; Listing generated by Microsoft (R) Optimizing Compiler Version 19.36.32537.0 

include listing.inc

INCLUDELIB OLDNAMES

?my_version@?1??deflateInit2_@@9@9 DB '1.2.13', 00H	; `deflateInit2_'::`2'::my_version
	ORG $+9
configuration_table DW 00H
	DW	00H
	DW	00H
	DW	00H
	DQ	FLAT:deflate_stored
	DW	04H
	DW	04H
	DW	08H
	DW	04H
	DQ	FLAT:deflate_fast
	DW	04H
	DW	05H
	DW	010H
	DW	08H
	DQ	FLAT:deflate_fast
	DW	04H
	DW	06H
	DW	020H
	DW	020H
	DQ	FLAT:deflate_fast
	DW	04H
	DW	04H
	DW	010H
	DW	010H
	DQ	FLAT:deflate_slow
	DW	08H
	DW	010H
	DW	020H
	DW	020H
	DQ	FLAT:deflate_slow
	DW	08H
	DW	010H
	DW	080H
	DW	080H
	DQ	FLAT:deflate_slow
	DW	08H
	DW	020H
	DW	080H
	DW	0100H
	DQ	FLAT:deflate_slow
	DW	020H
	DW	080H
	DW	0102H
	DW	0400H
	DQ	FLAT:deflate_slow
	DW	020H
	DW	0102H
	DW	0102H
	DW	01000H
	DQ	FLAT:deflate_slow
PUBLIC	deflateCopy
PUBLIC	deflateBound
PUBLIC	deflateTune
PUBLIC	deflateParams
PUBLIC	deflatePrime
PUBLIC	deflatePending
PUBLIC	deflateSetHeader
PUBLIC	deflateReset
PUBLIC	deflateResetKeep
PUBLIC	deflateGetDictionary
PUBLIC	deflateSetDictionary
PUBLIC	deflateInit2_
PUBLIC	deflateInit_
PUBLIC	deflateEnd
PUBLIC	deflate
;	COMDAT pdata
pdata	SEGMENT
$pdata$deflate_huff DD imagerel deflate_huff
	DD	imagerel deflate_huff+483
	DD	imagerel $unwind$deflate_huff
pdata	ENDS
;	COMDAT pdata
pdata	SEGMENT
$pdata$deflate_rle DD imagerel deflate_rle
	DD	imagerel deflate_rle+834
	DD	imagerel $unwind$deflate_rle
pdata	ENDS
;	COMDAT pdata
pdata	SEGMENT
$pdata$deflate_slow DD imagerel deflate_slow
	DD	imagerel deflate_slow+1389
	DD	imagerel $unwind$deflate_slow
pdata	ENDS
;	COMDAT pdata
pdata	SEGMENT
$pdata$deflate_fast DD imagerel deflate_fast
	DD	imagerel deflate_fast+1111
	DD	imagerel $unwind$deflate_fast
pdata	ENDS
;	COMDAT pdata
pdata	SEGMENT
$pdata$deflate_stored DD imagerel deflate_stored
	DD	imagerel deflate_stored+25
	DD	imagerel $unwind$deflate_stored
pdata	ENDS
;	COMDAT pdata
pdata	SEGMENT
$pdata$0$deflate_stored DD imagerel deflate_stored+25
	DD	imagerel deflate_stored+32
	DD	imagerel $chain$0$deflate_stored
pdata	ENDS
;	COMDAT pdata
pdata	SEGMENT
$pdata$2$deflate_stored DD imagerel deflate_stored+32
	DD	imagerel deflate_stored+431
	DD	imagerel $chain$2$deflate_stored
pdata	ENDS
;	COMDAT pdata
pdata	SEGMENT
$pdata$3$deflate_stored DD imagerel deflate_stored+431
	DD	imagerel deflate_stored+659
	DD	imagerel $chain$3$deflate_stored
pdata	ENDS
;	COMDAT pdata
pdata	SEGMENT
$pdata$4$deflate_stored DD imagerel deflate_stored+659
	DD	imagerel deflate_stored+1088
	DD	imagerel $chain$4$deflate_stored
pdata	ENDS
;	COMDAT pdata
pdata	SEGMENT
$pdata$fill_window DD imagerel fill_window
	DD	imagerel fill_window+548
	DD	imagerel $unwind$fill_window
pdata	ENDS
;	COMDAT pdata
pdata	SEGMENT
$pdata$longest_match DD imagerel longest_match
	DD	imagerel longest_match+447
	DD	imagerel $unwind$longest_match
pdata	ENDS
;	COMDAT pdata
pdata	SEGMENT
$pdata$lm_init DD imagerel lm_init
	DD	imagerel lm_init+176
	DD	imagerel $unwind$lm_init
pdata	ENDS
;	COMDAT pdata
pdata	SEGMENT
$pdata$read_buf DD imagerel read_buf
	DD	imagerel read_buf+160
	DD	imagerel $unwind$read_buf
pdata	ENDS
;	COMDAT pdata
pdata	SEGMENT
$pdata$deflateCopy DD imagerel $LN19@deflateCop
	DD	imagerel $LN19@deflateCop+41
	DD	imagerel $unwind$deflateCopy
pdata	ENDS
;	COMDAT pdata
pdata	SEGMENT
$pdata$1$deflateCopy DD imagerel $LN19@deflateCop+41
	DD	imagerel $LN19@deflateCop+450
	DD	imagerel $chain$1$deflateCopy
pdata	ENDS
;	COMDAT pdata
pdata	SEGMENT
$pdata$3$deflateCopy DD imagerel $LN19@deflateCop+450
	DD	imagerel $LN19@deflateCop+479
	DD	imagerel $chain$3$deflateCopy
pdata	ENDS
;	COMDAT pdata
pdata	SEGMENT
$pdata$4$deflateCopy DD imagerel $LN19@deflateCop+479
	DD	imagerel $LN19@deflateCop+490
	DD	imagerel $chain$4$deflateCopy
pdata	ENDS
;	COMDAT pdata
pdata	SEGMENT
$pdata$flush_pending DD imagerel flush_pending
	DD	imagerel flush_pending+52
	DD	imagerel $unwind$flush_pending
pdata	ENDS
;	COMDAT pdata
pdata	SEGMENT
$pdata$0$flush_pending DD imagerel flush_pending+52
	DD	imagerel flush_pending+91
	DD	imagerel $chain$0$flush_pending
pdata	ENDS
;	COMDAT pdata
pdata	SEGMENT
$pdata$1$flush_pending DD imagerel flush_pending+91
	DD	imagerel flush_pending+115
	DD	imagerel $chain$1$flush_pending
pdata	ENDS
;	COMDAT pdata
pdata	SEGMENT
$pdata$deflateBound DD imagerel $LN43@deflateBou
	DD	imagerel $LN43@deflateBou+326
	DD	imagerel $unwind$deflateBound
pdata	ENDS
;	COMDAT pdata
pdata	SEGMENT
$pdata$deflateTune DD imagerel $LN5@deflateTun
	DD	imagerel $LN5@deflateTun+71
	DD	imagerel $unwind$deflateTune
pdata	ENDS
;	COMDAT pdata
pdata	SEGMENT
$pdata$deflateParams DD imagerel $LN35@deflatePar
	DD	imagerel $LN35@deflatePar+378
	DD	imagerel $unwind$deflateParams
pdata	ENDS
;	COMDAT pdata
pdata	SEGMENT
$pdata$deflatePrime DD imagerel $LN18@deflatePri
	DD	imagerel $LN18@deflatePri+191
	DD	imagerel $unwind$deflatePrime
pdata	ENDS
;	COMDAT pdata
pdata	SEGMENT
$pdata$deflatePending DD imagerel $LN8@deflatePen
	DD	imagerel $LN8@deflatePen+69
	DD	imagerel $unwind$deflatePending
pdata	ENDS
;	COMDAT pdata
pdata	SEGMENT
$pdata$deflateSetHeader DD imagerel $LN6@deflateSet
	DD	imagerel $LN6@deflateSet+50
	DD	imagerel $unwind$deflateSetHeader
pdata	ENDS
;	COMDAT pdata
pdata	SEGMENT
$pdata$deflateReset DD imagerel $LN7@deflateRes
	DD	imagerel $LN7@deflateRes+46
	DD	imagerel $unwind$deflateReset
pdata	ENDS
;	COMDAT pdata
pdata	SEGMENT
$pdata$deflateResetKeep DD imagerel $LN11@deflateRes
	DD	imagerel $LN11@deflateRes+158
	DD	imagerel $unwind$deflateResetKeep
pdata	ENDS
;	COMDAT pdata
pdata	SEGMENT
$pdata$deflateGetDictionary DD imagerel $LN12@deflateGet
	DD	imagerel $LN12@deflateGet+122
	DD	imagerel $unwind$deflateGetDictionary
pdata	ENDS
;	COMDAT pdata
pdata	SEGMENT
$pdata$deflateSetDictionary DD imagerel $LN42@deflateSet
	DD	imagerel $LN42@deflateSet+86
	DD	imagerel $unwind$deflateSetDictionary
pdata	ENDS
;	COMDAT pdata
pdata	SEGMENT
$pdata$2$deflateSetDictionary DD imagerel $LN42@deflateSet+86
	DD	imagerel $LN42@deflateSet+474
	DD	imagerel $chain$2$deflateSetDictionary
pdata	ENDS
;	COMDAT pdata
pdata	SEGMENT
$pdata$3$deflateSetDictionary DD imagerel $LN42@deflateSet+474
	DD	imagerel $LN42@deflateSet+490
	DD	imagerel $chain$3$deflateSetDictionary
pdata	ENDS
;	COMDAT pdata
pdata	SEGMENT
$pdata$deflateInit2_ DD imagerel $LN47@deflateIni
	DD	imagerel $LN47@deflateIni+81
	DD	imagerel $unwind$deflateInit2_
pdata	ENDS
;	COMDAT pdata
pdata	SEGMENT
$pdata$0$deflateInit2_ DD imagerel $LN47@deflateIni+81
	DD	imagerel $LN47@deflateIni+271
	DD	imagerel $chain$0$deflateInit2_
pdata	ENDS
;	COMDAT pdata
pdata	SEGMENT
$pdata$1$deflateInit2_ DD imagerel $LN47@deflateIni+271
	DD	imagerel $LN47@deflateIni+561
	DD	imagerel $chain$1$deflateInit2_
pdata	ENDS
;	COMDAT pdata
pdata	SEGMENT
$pdata$2$deflateInit2_ DD imagerel $LN47@deflateIni+561
	DD	imagerel $LN47@deflateIni+585
	DD	imagerel $chain$2$deflateInit2_
pdata	ENDS
;	COMDAT pdata
pdata	SEGMENT
$pdata$4$deflateInit2_ DD imagerel $LN47@deflateIni+585
	DD	imagerel $LN47@deflateIni+618
	DD	imagerel $chain$4$deflateInit2_
pdata	ENDS
;	COMDAT pdata
pdata	SEGMENT
$pdata$5$deflateInit2_ DD imagerel $LN47@deflateIni+618
	DD	imagerel $LN47@deflateIni+625
	DD	imagerel $chain$5$deflateInit2_
pdata	ENDS
;	COMDAT pdata
pdata	SEGMENT
$pdata$6$deflateInit2_ DD imagerel $LN47@deflateIni+625
	DD	imagerel $LN47@deflateIni+649
	DD	imagerel $chain$6$deflateInit2_
pdata	ENDS
;	COMDAT pdata
pdata	SEGMENT
$pdata$slide_hash DD imagerel slide_hash
	DD	imagerel slide_hash+117
	DD	imagerel $unwind$slide_hash
pdata	ENDS
;	COMDAT pdata
pdata	SEGMENT
$pdata$deflateInit_ DD imagerel $LN4@deflateIni
	DD	imagerel $LN4@deflateIni+50
	DD	imagerel $unwind$deflateInit_
pdata	ENDS
;	COMDAT pdata
pdata	SEGMENT
$pdata$deflateEnd DD imagerel $LN15@deflateEnd
	DD	imagerel $LN15@deflateEnd+176
	DD	imagerel $unwind$deflateEnd
pdata	ENDS
;	COMDAT pdata
pdata	SEGMENT
$pdata$deflate DD imagerel $LN242@deflate
	DD	imagerel $LN242@deflate+42
	DD	imagerel $unwind$deflate
pdata	ENDS
;	COMDAT pdata
pdata	SEGMENT
$pdata$5$deflate DD imagerel $LN242@deflate+42
	DD	imagerel $LN242@deflate+282
	DD	imagerel $chain$5$deflate
pdata	ENDS
;	COMDAT pdata
pdata	SEGMENT
$pdata$7$deflate DD imagerel $LN242@deflate+282
	DD	imagerel $LN242@deflate+2350
	DD	imagerel $chain$7$deflate
pdata	ENDS
;	COMDAT pdata
pdata	SEGMENT
$pdata$8$deflate DD imagerel $LN242@deflate+2350
	DD	imagerel $LN242@deflate+2379
	DD	imagerel $chain$8$deflate
pdata	ENDS
;	COMDAT pdata
pdata	SEGMENT
$pdata$9$deflate DD imagerel $LN242@deflate+2379
	DD	imagerel $LN242@deflate+2392
	DD	imagerel $chain$9$deflate
;	COMDAT xdata
xdata	SEGMENT
$chain$9$deflate DD 021H
	DD	imagerel $LN242@deflate
	DD	imagerel $LN242@deflate+42
	DD	imagerel $unwind$deflate
xdata	ENDS
;	COMDAT xdata
xdata	SEGMENT
$chain$8$deflate DQ 0000a340000020021r		; 1.41892e-308
	DD	imagerel $LN242@deflate
	DD	imagerel $LN242@deflate+42
	DD	imagerel $unwind$deflate
xdata	ENDS
;	COMDAT xdata
xdata	SEGMENT
$chain$7$deflate DQ 00004f400000c0021r		; 6.88817e-309
	DQ	00006c4000005e400r		; 9.40876e-309
	DQ	0000b5400000c6400r		; 1.57537e-308
	DD	0a3400H
	DD	imagerel $LN242@deflate
	DD	imagerel $LN242@deflate+42
	DD	imagerel $unwind$deflate
xdata	ENDS
;	COMDAT xdata
xdata	SEGMENT
$chain$5$deflate DQ 00004f44e000c4e21r		; 6.88982e-309
	DQ	00006c4440005e449r		; 9.4102e-309
	DQ	0000b543a000c643fr		; 1.57549e-308
	DD	0a3405H
	DD	imagerel $LN242@deflate
	DD	imagerel $LN242@deflate+42
	DD	imagerel $unwind$deflate
xdata	ENDS
;	COMDAT xdata
xdata	SEGMENT
$unwind$deflate DQ 0d004620800030801r		; -2.95023e+77
	DD	07002H
xdata	ENDS
;	COMDAT xdata
xdata	SEGMENT
$unwind$deflateEnd DQ 00008743000083001r	; 1.17565e-308
	DQ	0000654260007642br		; 8.80115e-309
	DD	030023206H
xdata	ENDS
;	COMDAT xdata
xdata	SEGMENT
$unwind$deflateInit_ DQ 00000820400010401r	; 7.06285e-310
xdata	ENDS
;	COMDAT xdata
xdata	SEGMENT
$unwind$slide_hash DQ 00001340500020501r	; 1.67326e-309
xdata	ENDS
;	COMDAT xdata
xdata	SEGMENT
$chain$6$deflateInit2_ DD 021H
	DD	imagerel $LN47@deflateIni
	DD	imagerel $LN47@deflateIni+81
	DD	imagerel $unwind$deflateInit2_
xdata	ENDS
;	COMDAT xdata
xdata	SEGMENT
$chain$5$deflateInit2_ DQ 0000a540000020021r	; 1.4363e-308
	DD	imagerel $LN47@deflateIni
	DD	imagerel $LN47@deflateIni+81
	DD	imagerel $unwind$deflateInit2_
xdata	ENDS
;	COMDAT xdata
xdata	SEGMENT
$chain$4$deflateInit2_ DQ 0000b640000040021r	; 1.58406e-308
	DD	0a5400H
	DD	imagerel $LN47@deflateIni
	DD	imagerel $LN47@deflateIni+81
	DD	imagerel $unwind$deflateInit2_
xdata	ENDS
;	COMDAT xdata
xdata	SEGMENT
$chain$2$deflateInit2_ DD 021H
	DD	imagerel $LN47@deflateIni+81
	DD	imagerel $LN47@deflateIni+271
	DD	imagerel $chain$0$deflateInit2_
xdata	ENDS
;	COMDAT xdata
xdata	SEGMENT
$chain$1$deflateInit2_ DQ 0000b640500020521r	; 1.58407e-308
	DD	imagerel $LN47@deflateIni+81
	DD	imagerel $LN47@deflateIni+271
	DD	imagerel $chain$0$deflateInit2_
xdata	ENDS
;	COMDAT xdata
xdata	SEGMENT
$chain$0$deflateInit2_ DQ 0000a540500020521r	; 1.43631e-308
	DD	imagerel $LN47@deflateIni
	DD	imagerel $LN47@deflateIni+81
	DD	imagerel $unwind$deflateInit2_
xdata	ENDS
;	COMDAT xdata
xdata	SEGMENT
$unwind$deflateInit2_ DQ 0000c341200081201r	; 1.69709e-308
	DQ	0d00ae00cf00e3212r		; -3.88992e+77
	DD	07006c008H
xdata	ENDS
;	COMDAT xdata
xdata	SEGMENT
$chain$3$deflateSetDictionary DD 021H
	DD	imagerel $LN42@deflateSet
	DD	imagerel $LN42@deflateSet+86
	DD	imagerel $unwind$deflateSetDictionary
xdata	ENDS
;	COMDAT xdata
xdata	SEGMENT
$chain$2$deflateSetDictionary DQ 0000cf40f00060f21r ; 1.80139e-308
	DQ	0000ac405000bd40ar		; 1.49716e-308
	DD	imagerel $LN42@deflateSet
	DD	imagerel $LN42@deflateSet+86
	DD	imagerel $unwind$deflateSetDictionary
xdata	ENDS
;	COMDAT xdata
xdata	SEGMENT
$unwind$deflateSetDictionary DQ 0e007320b00060b01r ; -3.88751e+154
	DQ	03002500360047005r		; 1.97688e-77
xdata	ENDS
;	COMDAT xdata
xdata	SEGMENT
$unwind$deflateGetDictionary DQ 00006342c00042c01r ; 8.62744e-309
	DD	070023206H
xdata	ENDS
;	COMDAT xdata
xdata	SEGMENT
$unwind$deflateResetKeep DQ 00006343500043501r	; 8.62763e-309
	DD	070023206H
xdata	ENDS
;	COMDAT xdata
xdata	SEGMENT
$unwind$deflateReset DQ 00006340a00040a01r	; 8.62672e-309
	DD	07006320aH
xdata	ENDS
;	COMDAT xdata
xdata	SEGMENT
$unwind$deflateSetHeader DQ 00000420400010401r	; 3.58617e-310
xdata	ENDS
;	COMDAT xdata
xdata	SEGMENT
$unwind$deflatePending DQ 00000420400010401r	; 3.58617e-310
xdata	ENDS
;	COMDAT xdata
xdata	SEGMENT
$unwind$deflatePrime DQ 00006340a00040a01r	; 8.62672e-309
	DD	07006320aH
xdata	ENDS
;	COMDAT xdata
xdata	SEGMENT
$unwind$deflateParams DQ 0000b741e000c1e01r	; 1.59282e-308
	DQ	00009541e000a641er		; 1.2973e-308
	DQ	0f01a321e0008341er		; -1.01674e+232
	DD	0c016e018H
xdata	ENDS
;	COMDAT xdata
xdata	SEGMENT
$unwind$deflateTune DQ 00000420400010401r	; 3.58617e-310
xdata	ENDS
;	COMDAT xdata
xdata	SEGMENT
$unwind$deflateBound DQ 03002320600020601r	; 1.96423e-77
xdata	ENDS
;	COMDAT xdata
xdata	SEGMENT
$chain$1$flush_pending DD 021H
	DD	imagerel flush_pending
	DD	imagerel flush_pending+52
	DD	imagerel $unwind$flush_pending
xdata	ENDS
;	COMDAT xdata
xdata	SEGMENT
$chain$0$flush_pending DQ 00006340500020521r	; 8.62661e-309
	DD	imagerel flush_pending
	DD	imagerel flush_pending+52
	DD	imagerel $unwind$flush_pending
xdata	ENDS
;	COMDAT xdata
xdata	SEGMENT
$unwind$flush_pending DQ 00008640f00060f01r	; 1.16689e-308
	DQ	0700b320f0007540fr		; 5.2777e+231
xdata	ENDS
;	COMDAT xdata
xdata	SEGMENT
$chain$4$deflateCopy DD 021H
	DD	imagerel $LN19@deflateCop
	DD	imagerel $LN19@deflateCop+41
	DD	imagerel $unwind$deflateCopy
xdata	ENDS
;	COMDAT xdata
xdata	SEGMENT
$chain$3$deflateCopy DQ 00007640000040021r	; 1.02779e-308
	DD	063400H
	DD	imagerel $LN19@deflateCop
	DD	imagerel $LN19@deflateCop+41
	DD	imagerel $unwind$deflateCopy
xdata	ENDS
;	COMDAT xdata
xdata	SEGMENT
$chain$1$deflateCopy DQ 00007640d00040d21r	; 1.02782e-308
	DD	063405H
	DD	imagerel $LN19@deflateCop
	DD	imagerel $LN19@deflateCop+41
	DD	imagerel $unwind$deflateCopy
xdata	ENDS
;	COMDAT xdata
xdata	SEGMENT
$unwind$deflateCopy DQ 07002320600020601r	; 3.53109e+231
xdata	ENDS
;	COMDAT xdata
xdata	SEGMENT
$unwind$read_buf DQ 00006544700084701r		; 8.80185e-309
	DQ	00007340f0008640fr		; 1.00175e-308
	DD	0700b320fH
xdata	ENDS
;	COMDAT xdata
xdata	SEGMENT
$unwind$lm_init DQ 00006340a00040a01r		; 8.62672e-309
	DD	07006320aH
xdata	ENDS
;	COMDAT xdata
xdata	SEGMENT
$unwind$longest_match DQ 000096418000b1801r	; 1.30598e-308
	DQ	00007341800085418r		; 1.00177e-308
	DQ	0c012d014e016f018r		; -4.7032
	DD	07010H
xdata	ENDS
;	COMDAT xdata
xdata	SEGMENT
$unwind$fill_window DQ 00007640f00060f01r	; 1.02782e-308
	DQ	0700b320f0006340fr		; 5.2777e+231
xdata	ENDS
;	COMDAT xdata
xdata	SEGMENT
$chain$4$deflate_stored DQ 00005740000020021r	; 7.5835e-309
	DD	imagerel deflate_stored
	DD	imagerel deflate_stored+25
	DD	imagerel $unwind$deflate_stored
xdata	ENDS
;	COMDAT xdata
xdata	SEGMENT
$chain$3$deflate_stored DQ 00005740000020021r	; 7.5835e-309
	DD	imagerel deflate_stored+25
	DD	imagerel deflate_stored+32
	DD	imagerel $chain$0$deflate_stored
xdata	ENDS
;	COMDAT xdata
xdata	SEGMENT
$chain$2$deflate_stored DQ 00005741000041021r	; 7.58384e-309
	DD	0d5405H
	DD	imagerel deflate_stored+25
	DD	imagerel deflate_stored+32
	DD	imagerel $chain$0$deflate_stored
xdata	ENDS
;	COMDAT xdata
xdata	SEGMENT
$chain$0$deflate_stored DQ 00004c40500020521r	; 6.62752e-309
	DD	imagerel deflate_stored
	DD	imagerel deflate_stored+25
	DD	imagerel $unwind$deflate_stored
xdata	ENDS
;	COMDAT xdata
xdata	SEGMENT
$unwind$deflate_stored DQ 0f009520d00060d01r	; -4.91382e+231
	DQ	030026003d005e007r		; 1.98363e-77
xdata	ENDS
;	COMDAT xdata
xdata	SEGMENT
$unwind$deflate_fast DQ 0000c641c000c1c01r	; 1.72319e-308
	DQ	0000a341c000b541cr		; 1.41898e-308
	DQ	0d014e016f018321cr		; -6.043e+77
	DD	07010c012H
xdata	ENDS
;	COMDAT xdata
xdata	SEGMENT
$unwind$deflate_slow DQ 0000c641c000c1c01r	; 1.72319e-308
	DQ	0000a341c000b541cr		; 1.41898e-308
	DQ	0d014e016f018321cr		; -6.043e+77
	DD	07010c012H
xdata	ENDS
;	COMDAT xdata
xdata	SEGMENT
$unwind$deflate_rle DQ 00008e424000c2401r	; 1.23647e-308
	DQ	0000a5418000b6418r		; 1.43635e-308
	DQ	0f014321800093418r		; -7.83854e+231
	DD	07010c012H
xdata	ENDS
;	COMDAT xdata
xdata	SEGMENT
$unwind$deflate_huff DQ 00007640f00060f01r	; 1.02782e-308
	DQ	0700b320f0006340fr		; 5.2777e+231
END
