 zlibwapi

 Timestamp is 65dda641 (Tue Feb 27 17:07:13 2024)

 Preferred load address is 10000000

 Start         Length     Name                   Class
 0001:00000000 0005d4fdH .text$mn                CODE
 0001:0005d4fd 000001d7H .text$x                 CODE
 0002:00000000 00000150H .idata$5                DATA
 0002:00000150 0000000cH .00cfg                  DATA
 0002:0000015c 00000004H .CRT$XCA                DATA
 0002:00000160 00000004H .CRT$XCZ                DATA
 0002:00000164 00000004H .CRT$XIA                DATA
 0002:00000168 00000010H .CRT$XIC                DATA
 0002:00000178 00000004H .CRT$XIZ                DATA
 0002:0000017c 00000004H .CRT$XPA                DATA
 0002:00000180 00000008H .CRT$XPX                DATA
 0002:00000188 00000004H .CRT$XPXA               DATA
 0002:0000018c 00000004H .CRT$XPZ                DATA
 0002:00000190 00000004H .CRT$XTA                DATA
 0002:00000194 0000000cH .CRT$XTZ                DATA
 0002:00000198 00000000H .gfids$y                DATA
 0002:000001a0 0000c860H .rdata                  DATA
 0002:0000ca00 00000040H .rdata$CastGuardVftablesA DATA
 0002:0000ca40 00000040H .rdata$CastGuardVftablesC DATA
 0002:0000ca80 000002a0H .rdata$r                DATA
 0002:0000cd20 00000140H .rdata$voltmd           DATA
 0002:0000ce60 00000378H .rdata$zzzdbg           DATA
 0002:0000d1d8 00000004H .rtc$IAA                DATA
 0002:0000d1dc 00000004H .rtc$IZZ                DATA
 0002:0000d1e0 00000004H .rtc$TAA                DATA
 0002:0000d1e4 00000004H .rtc$TZZ                DATA
 0002:0000d1e8 00000c38H .xdata$x                DATA
 0002:0000de20 00000d50H .edata                  DATA
 0002:0000eb70 00000014H .idata$2                DATA
 0002:0000eb84 00000014H .idata$3                DATA
 0002:0000eb98 00000150H .idata$4                DATA
 0002:0000ece8 0000061cH .idata$6                DATA
 0003:00000000 000008b0H .data                   DATA
 0003:000008b0 00000058H .data$r                 DATA
 0003:00000908 000000b8H .data$rs                DATA
 0003:000009c0 000012d0H .bss                    DATA
 0004:00000000 00000060H .rsrc$01                DATA
 0004:00000060 00000338H .rsrc$02                DATA

  Address         Publics by Value              Rva+Base       Lib:Object

 0000:00000000       ___AbsoluteZero            00000000     <absolute>
 0000:00000000       ___arm64x_extra_rfe_table  00000000     <absolute>
 0000:00000000       ___arm64x_extra_rfe_table_size 00000000     <absolute>
 0000:00000000       ___arm64x_native_entrypoint 00000000     <absolute>
 0000:00000000       ___arm64x_redirection_metadata 00000000     <absolute>
 0000:00000000       ___arm64x_redirection_metadata_count 00000000     <absolute>
 0000:00000000       ___dynamic_value_reloc_table 00000000     <absolute>
 0000:00000000       ___enclave_config          00000000     <absolute>
 0000:00000000       ___guard_check_icall_a64n_fptr 00000000     <absolute>
 0000:00000000       ___guard_eh_cont_count     00000000     <absolute>
 0000:00000000       ___guard_eh_cont_table     00000000     <absolute>
 0000:00000000       ___guard_fids_count        00000000     <absolute>
 0000:00000000       ___guard_fids_table        00000000     <absolute>
 0000:00000000       ___guard_iat_count         00000000     <absolute>
 0000:00000000       ___guard_iat_table         00000000     <absolute>
 0000:00000000       ___guard_longjmp_count     00000000     <absolute>
 0000:00000000       ___guard_longjmp_table     00000000     <absolute>
 0000:00000000       ___hybrid_auxiliary_delayload_iat 00000000     <absolute>
 0000:00000000       ___hybrid_auxiliary_delayload_iat_copy 00000000     <absolute>
 0000:00000000       ___hybrid_auxiliary_iat    00000000     <absolute>
 0000:00000000       ___hybrid_auxiliary_iat_copy 00000000     <absolute>
 0000:00000000       ___hybrid_code_map         00000000     <absolute>
 0000:00000000       ___hybrid_code_map_count   00000000     <absolute>
 0000:00000000       ___safe_se_handler_count   00000000     <absolute>
 0000:00000000       ___safe_se_handler_table   00000000     <absolute>
 0000:00000000       ___x64_code_ranges_to_entry_points 00000000     <absolute>
 0000:00000000       ___x64_code_ranges_to_entry_points_count 00000000     <absolute>
 0000:00000000       __except_list              00000000     <absolute>
 0000:00000100       ___guard_flags             00000100     <absolute>
 0000:00000000       ___ImageBase               10000000     <linker-defined>
 0001:00000000       _adler32_z@12              10001000 f   adler32.obj
 0001:00000280       _adler32@12                10001280 f   adler32.obj
 0001:000003c0       _adler32_combine@12        100013c0 f   adler32.obj
 0001:000003e0       _compress2@20              100013e0 f   compress.obj
 0001:000004c0       _compress@16               100014c0 f   compress.obj
 0001:000004e0       _compressBound@4           100014e0 f   compress.obj
 0001:000005b0       _get_crc_table@0           100015b0 f   crc32.obj
 0001:00000650       _crc32_z@12                10001650 f   crc32.obj
 0001:00000970       _crc32@12                  10001970 f   crc32.obj
 0001:00000980       _crc32_combine64@16        10001980 f   crc32.obj
 0001:000009b0       _crc32_combine@12          100019b0 f   crc32.obj
 0001:000009d0       _crc32_combine_gen64@8     100019d0 f   crc32.obj
 0001:000009f0       _crc32_combine_gen@4       100019f0 f   crc32.obj
 0001:00000a10       _crc32_combine_op@12       10001a10 f   crc32.obj
 0001:00000aa0       _deflateInit_@16           10001aa0 f   deflate.obj
 0001:00000ac0       _deflateInit2_@32          10001ac0 f   deflate.obj
 0001:00000d60       _deflateSetDictionary@12   10001d60 f   deflate.obj
 0001:00000f00       _deflateGetDictionary@12   10001f00 f   deflate.obj
 0001:00000f60       _deflateResetKeep@4        10001f60 f   deflate.obj
 0001:00001000       _deflateReset@4            10002000 f   deflate.obj
 0001:00001030       _deflateSetHeader@8        10002030 f   deflate.obj
 0001:00001060       _deflatePending@12         10002060 f   deflate.obj
 0001:000010a0       _deflatePrime@12           100020a0 f   deflate.obj
 0001:00001140       _deflateParams@12          10002140 f   deflate.obj
 0001:00001290       _deflateTune@20            10002290 f   deflate.obj
 0001:000012e0       _deflateBound@8            100022e0 f   deflate.obj
 0001:00001480       _deflate@8                 10002480 f   deflate.obj
 0001:00001db0       _deflateEnd@4              10002db0 f   deflate.obj
 0001:00001e60       _deflateCopy@8             10002e60 f   deflate.obj
 0001:000033e0       _gzclose@4                 100043e0 f   gzclose.obj
 0001:00003410       ___local_stdio_printf_options 10004410 f i gzlib.obj
 0001:00003420       _vsnprintf                 10004420 f i gzlib.obj
 0001:00003460       _snprintf                  10004460 f i gzlib.obj
 0001:00003810       _gzopen@8                  10004810 f   gzlib.obj
 0001:00003830       _gzdopen@8                 10004830 f   gzlib.obj
 0001:00003890       _gzopen_w@8                10004890 f   gzlib.obj
 0001:000038b0       _gzbuffer@8                100048b0 f   gzlib.obj
 0001:00003900       _gzrewind@4                10004900 f   gzlib.obj
 0001:00003960       _gzseek64@16               10004960 f   gzlib.obj
 0001:00003b10       _gzseek@12                 10004b10 f   gzlib.obj
 0001:00003b50       _gztell64@4                10004b50 f   gzlib.obj
 0001:00003bb0       _gztell@4                  10004bb0 f   gzlib.obj
 0001:00003be0       _gzoffset64@4              10004be0 f   gzlib.obj
 0001:00003c30       _gzoffset@4                10004c30 f   gzlib.obj
 0001:00003c60       _gzeof@4                   10004c60 f   gzlib.obj
 0001:00003c90       _gzerror@8                 10004c90 f   gzlib.obj
 0001:00003ce0       _gzclearerr@4              10004ce0 f   gzlib.obj
 0001:00003d30       _gz_error                  10004d30 f   gzlib.obj
 0001:00004400       _gzread@12                 10005400 f   gzread.obj
 0001:00004470       _gzfread@16                10005470 f   gzread.obj
 0001:000044f0       _gzgetc@4                  100054f0 f   gzread.obj
 0001:00004560       _gzgetc_@4                 10005560 f   gzread.obj
 0001:00004570       _gzungetc@8                10005570 f   gzread.obj
 0001:00004670       _gzgets@12                 10005670 f   gzread.obj
 0001:00004790       _gzdirect@4                10005790 f   gzread.obj
 0001:000047d0       _gzclose_r@4               100057d0 f   gzread.obj
 0001:00004c60       _gzwrite@12                10005c60 f   gzwrite.obj
 0001:00004cb0       _gzfwrite@16               10005cb0 f   gzwrite.obj
 0001:00004d20       _gzputc@8                  10005d20 f   gzwrite.obj
 0001:00004de0       _gzputs@8                  10005de0 f   gzwrite.obj
 0001:00004e50       _gzvprintf                 10005e50 f   gzwrite.obj
 0001:00004f80       _gzprintf                  10005f80 f   gzwrite.obj
 0001:00004fa0       _gzflush@8                 10005fa0 f   gzwrite.obj
 0001:00005010       _gzsetparams@12            10006010 f   gzwrite.obj
 0001:000050d0       _gzclose_w@4               100060d0 f   gzwrite.obj
 0001:000051a0       _inflateBackInit_@20       100061a0 f   infback.obj
 0001:000052b0       _inflateBack@20            100062b0 f   infback.obj
 0001:00006030       _inflateBackEnd@4          10007030 f   infback.obj
 0001:00006070       _inflate_fast              10007070 f   inffast.obj
 0001:000064e0       _inflateResetKeep@4        100074e0 f   inflate.obj
 0001:00006590       _inflateReset@4            10007590 f   inflate.obj
 0001:000065d0       _inflateReset2@8           100075d0 f   inflate.obj
 0001:00006660       _inflateInit2_@16          10007660 f   inflate.obj
 0001:00006730       _inflateInit_@12           10007730 f   inflate.obj
 0001:00006750       _inflatePrime@12           10007750 f   inflate.obj
 0001:000068e0       _inflate@8                 100078e0 f   inflate.obj
 0001:00008050       _inflateEnd@4              10009050 f   inflate.obj
 0001:000080b0       _inflateGetDictionary@12   100090b0 f   inflate.obj
 0001:00008120       _inflateSetDictionary@12   10009120 f   inflate.obj
 0001:000081c0       _inflateGetHeader@8        100091c0 f   inflate.obj
 0001:00008280       _inflateSync@4             10009280 f   inflate.obj
 0001:000083a0       _inflateSyncPoint@4        100093a0 f   inflate.obj
 0001:000083e0       _inflateCopy@8             100093e0 f   inflate.obj
 0001:00008540       _inflateUndermine@8        10009540 f   inflate.obj
 0001:00008570       _inflateValidate@8         10009570 f   inflate.obj
 0001:000085b0       _inflateMark@4             100095b0 f   inflate.obj
 0001:00008620       _inflateCodesUsed@4        10009620 f   inflate.obj
 0001:00008650       _inflate_table             10009650 f   inftrees.obj
 0001:00008b30       _call_zopen64              10009b30 f   ioapi.obj
 0001:00008b50       _call_zseek64              10009b50 f   ioapi.obj
 0001:00008ba0       _call_ztell64              10009ba0 f   ioapi.obj
 0001:00008bd0       _fill_zlib_filefunc64_32_def_from_filefunc32 10009bd0 f   ioapi.obj
 0001:00008de0       _fill_fopen64_filefunc     10009de0 f   ioapi.obj
 0001:00008ed0       _win32_open64_file_func    10009ed0 f   iowin32.obj
 0001:00008f30       _win32_open64_file_funcA   10009f30 f   iowin32.obj
 0001:00008f90       _win32_open64_file_funcW   10009f90 f   iowin32.obj
 0001:00008ff0       _win32_open_file_func      10009ff0 f   iowin32.obj
 0001:00009050       _win32_read_file_func      1000a050 f   iowin32.obj
 0001:000090a0       _win32_write_file_func     1000a0a0 f   iowin32.obj
 0001:00009150       _win32_tell_file_func      1000a150 f   iowin32.obj
 0001:000091a0       _win32_tell64_file_func    1000a1a0 f   iowin32.obj
 0001:00009200       _win32_seek_file_func      1000a200 f   iowin32.obj
 0001:00009270       _win32_seek64_file_func    1000a270 f   iowin32.obj
 0001:000092f0       _win32_close_file_func     1000a2f0 f   iowin32.obj
 0001:00009320       _win32_error_file_func     1000a320 f   iowin32.obj
 0001:00009340       _fill_win32_filefunc       1000a340 f   iowin32.obj
 0001:00009380       _fill_win32_filefunc64     1000a380 f   iowin32.obj
 0001:000093c0       _fill_win32_filefunc64A    1000a3c0 f   iowin32.obj
 0001:00009400       _fill_win32_filefunc64W    1000a400 f   iowin32.obj
 0001:00009450       __tr_init                  1000a450 f   trees.obj
 0001:0000a430       __tr_stored_block          1000b430 f   trees.obj
 0001:0000a530       __tr_flush_bits            1000b530 f   trees.obj
 0001:0000a540       __tr_align                 1000b540 f   trees.obj
 0001:0000a620       __tr_flush_block           1000b620 f   trees.obj
 0001:0000adf0       _uncompress2@16            1000bdf0 f   uncompr.obj
 0001:0000af20       _uncompress@16             1000bf20 f   uncompr.obj
 0001:0000b2a0       _unzStringFileNameCompare@12 1000c2a0 f   unzip.obj
 0001:0000bb90       _unzOpen2@8                1000cb90 f   unzip.obj
 0001:0000bbe0       _unzOpen2_64@8             1000cbe0 f   unzip.obj
 0001:0000bc40       _unzOpen@4                 1000cc40 f   unzip.obj
 0001:0000bc60       _unzOpen64@4               1000cc60 f   unzip.obj
 0001:0000bc80       _unzClose@4                1000cc80 f   unzip.obj
 0001:0000bcc0       _unzGetGlobalInfo64@8      1000ccc0 f   unzip.obj
 0001:0000bcf0       _unzGetGlobalInfo@8        1000ccf0 f   unzip.obj
 0001:0000c370       _unzGetCurrentFileInfo64@32 1000d370 f   unzip.obj
 0001:0000c3a0       _unzGetCurrentFileInfo@32  1000d3a0 f   unzip.obj
 0001:0000c460       _unzGoToFirstFile@4        1000d460 f   unzip.obj
 0001:0000c4d0       _unzGoToNextFile@4         1000d4d0 f   unzip.obj
 0001:0000c580       _unzLocateFile@12          1000d580 f   unzip.obj
 0001:0000c730       _unzGetFilePos64@8         1000d730 f   unzip.obj
 0001:0000c780       _unzGetFilePos@8           1000d780 f   unzip.obj
 0001:0000c7b0       _unzGoToFilePos64@8        1000d7b0 f   unzip.obj
 0001:0000c820       _unzGoToFilePos@8          1000d820 f   unzip.obj
 0001:0000cac0       _unzOpenCurrentFile3@20    1000dac0 f   unzip.obj
 0001:0000cd50       _unzOpenCurrentFile@4      1000dd50 f   unzip.obj
 0001:0000cd70       _unzOpenCurrentFilePassword@8 1000dd70 f   unzip.obj
 0001:0000cd90       _unzOpenCurrentFile2@16    1000dd90 f   unzip.obj
 0001:0000cdb0       _unzGetCurrentFileZStreamPos64@4 1000ddb0 f   unzip.obj
 0001:0000cdf0       _unzReadCurrentFile@12     1000ddf0 f   unzip.obj
 0001:0000d0c0       _unztell@4                 1000e0c0 f   unzip.obj
 0001:0000d0f0       _unztell64@4               1000e0f0 f   unzip.obj
 0001:0000d120       _unzeof@4                  1000e120 f   unzip.obj
 0001:0000d160       _unzGetLocalExtrafield@12  1000e160 f   unzip.obj
 0001:0000d230       _unzCloseCurrentFile@4     1000e230 f   unzip.obj
 0001:0000d2c0       _unzGetGlobalComment@12    1000e2c0 f   unzip.obj
 0001:0000e3a0       _zipOpen3@16               1000f3a0 f   zip.obj
 0001:0000e510       _zipOpen2@16               1000f510 f   zip.obj
 0001:0000e560       _zipOpen2_64@16            1000f560 f   zip.obj
 0001:0000e5c0       _zipOpen@8                 1000f5c0 f   zip.obj
 0001:0000e5e0       _zipOpen64@8               1000f5e0 f   zip.obj
 0001:0000e840       _zipOpenNewFileInZip4_64@76 1000f840 f   zip.obj
 0001:0000ed90       _zipOpenNewFileInZip3@64   1000fd90 f   zip.obj
 0001:0000ede0       _zipOpenNewFileInZip3_64@68 1000fde0 f   zip.obj
 0001:0000ee30       _zipOpenNewFileInZip2@44   1000fe30 f   zip.obj
 0001:0000ee70       _zipOpenNewFileInZip2_64@48 1000fe70 f   zip.obj
 0001:0000eeb0       _zipOpenNewFileInZip64@44  1000feb0 f   zip.obj
 0001:0000eef0       _zipOpenNewFileInZip@40    1000fef0 f   zip.obj
 0001:0000eff0       _zipWriteInFileInZip@12    1000fff0 f   zip.obj
 0001:0000f100       _zipCloseFileInZipRaw@12   10010100 f   zip.obj
 0001:0000f120       _zipCloseFileInZipRaw64@16 10010120 f   zip.obj
 0001:0000f670       _zipCloseFileInZip@4       10010670 f   zip.obj
 0001:0000f9d0       _zipClose@8                100109d0 f   zip.obj
 0001:0000fb60       _zlibVersion@0             10010b60 f   zutil.obj
 0001:0000fb70       _zlibCompileFlags@0        10010b70 f   zutil.obj
 0001:0000fb80       _zError@4                  10010b80 f   zutil.obj
 0001:0000fba0       _zcalloc                   10010ba0 f   zutil.obj
 0001:0000fbc0       _zcfree                    10010bc0 f   zutil.obj
 0001:0000fbd0       _ReadFile@20               10010bd0 f   kernel32:KERNEL32.dll
 0001:0000fbd6       _WriteFile@20              10010bd6 f   kernel32:KERNEL32.dll
 0001:0000fbdc       _SetFilePointer@16         10010bdc f   kernel32:KERNEL32.dll
 0001:0000fbe2       _CreateFileW@28            10010be2 f   kernel32:KERNEL32.dll
 0001:0000fbe8       _GetLastError@0            10010be8 f   kernel32:KERNEL32.dll
 0001:0000fbee       _CreateFileA@28            10010bee f   kernel32:KERNEL32.dll
 0001:0000fbf4       _CloseHandle@4             10010bf4 f   kernel32:KERNEL32.dll
 0001:0000ff3a       __CRT_INIT@12              10010f3a f   LIBCMT:dll_dllmain.obj
 0001:0000ff43       __DllMainCRTStartup@12     10010f43 f   LIBCMT:dll_dllmain.obj
 0001:0000ffb3       ___security_init_cookie    10010fb3 f   LIBCMT:gs_support.obj
 0001:0000fffe       _DllMain@12                10010ffe f   LIBCMT:dll_dllmain_stub.obj
 0001:00010004       ?__scrt_initialize_type_info@@YAXXZ 10011004 f   LIBCMT:tncleanup.obj
 0001:00010010       ?__scrt_uninitialize_type_info@@YAXXZ 10011010 f   LIBCMT:tncleanup.obj
 0001:0001001c       ___local_stdio_scanf_options 1001101c f i LIBCMT:default_local_stdio_options.obj
 0001:00010022       ___scrt_initialize_default_local_stdio_options 10011022 f   LIBCMT:default_local_stdio_options.obj
 0001:0001003f       ?configure_argv@__scrt_narrow_argv_policy@@SAHXZ 1001103f f i LIBCMT:utility.obj
 0001:00010090       ?initialize_environment@__scrt_narrow_environment_policy@@SAHXZ 10011090 f i LIBCMT:utility.obj
 0001:000100c8       _NtCurrentTeb              100110c8 f i LIBCMT:utility.obj
 0001:000100cf       ___scrt_acquire_startup_lock 100110cf f   LIBCMT:utility.obj
 0001:00010101       ___scrt_dllmain_after_initialize_c 10011101 f   LIBCMT:utility.obj
 0001:0001012c       ___scrt_dllmain_before_initialize_c 1001112c f   LIBCMT:utility.obj
 0001:0001013a       ___scrt_dllmain_crt_thread_attach 1001113a f   LIBCMT:utility.obj
 0001:00010159       ___scrt_dllmain_crt_thread_detach 10011159 f   LIBCMT:utility.obj
 0001:00010166       ___scrt_dllmain_exception_filter 10011166 f   LIBCMT:utility.obj
 0001:0001019a       ___scrt_dllmain_uninitialize_c 1001119a f   LIBCMT:utility.obj
 0001:000101bd       ___scrt_dllmain_uninitialize_critical 100111bd f   LIBCMT:utility.obj
 0001:000101ca       ___scrt_initialize_crt     100111ca f   LIBCMT:utility.obj
 0001:00010203       ___scrt_initialize_onexit_tables 10011203 f   LIBCMT:utility.obj
 0001:0001028a       ___scrt_is_nonwritable_in_current_image 1001128a f   LIBCMT:utility.obj
 0001:0001031e       ___scrt_release_startup_lock 1001131e f   LIBCMT:utility.obj
 0001:0001033b       ___scrt_uninitialize_crt   1001133b f   LIBCMT:utility.obj
 0001:00010363       __onexit                   10011363 f   LIBCMT:utility.obj
 0001:00010390       _at_quick_exit             10011390 f   LIBCMT:utility.obj
 0001:000103b3       _atexit                    100113b3 f   LIBCMT:utility.obj
 0001:000103c8       ___scrt_get_dyn_tls_init_callback 100113c8 f   LIBCMT:dyn_tls_init.obj
 0001:000103ce       ___scrt_fastfail           100113ce f   LIBCMT:utility_desktop.obj
 0001:000104e9       ___scrt_get_show_window_mode 100114e9 f   LIBCMT:utility_desktop.obj
 0001:0001051a       ___scrt_initialize_mta     1001151a f   LIBCMT:utility_desktop.obj
 0001:0001051f       ___scrt_initialize_winrt   1001151f f   LIBCMT:utility_desktop.obj
 0001:00010522       ___scrt_is_managed_app     10011522 f   LIBCMT:utility_desktop.obj
 0001:00010564       ___scrt_set_unhandled_exception_filter 10011564 f   LIBCMT:utility_desktop.obj
 0001:00010570       ___scrt_exe_initialize_mta 10011570 f   LIBCMT:utility_desktop.obj
 0001:00010570       ___scrt_stub_for_initialize_mta 10011570 f   LIBCMT:utility_desktop.obj
 0001:00010573       ___scrt_unhandled_exception_filter@4 10011573 f   LIBCMT:utility_desktop.obj
 0001:000105c9       __crt_debugger_hook        100115c9 f   LIBCMT:utility_desktop.obj
 0001:000105d1       __RTC_Initialize           100115d1 f   LIBCMT:initsect.obj
 0001:000105fd       __RTC_Terminate            100115fd f   LIBCMT:initsect.obj
 0001:00010630       __SEH_prolog4              10011630 f   LIBCMT:sehprolg4.obj
 0001:00010680       __SEH_epilog4              10011680 f   LIBCMT:sehprolg4.obj
 0001:00010694       @_guard_check_icall_nop@4  10011694 f i LIBCMT:guard_support.obj
 0001:00010697       _ReadNoFence               10011697 f i LIBCMT:guard_support.obj
 0001:000106a1       _ReadPointerNoFence        100116a1 f i LIBCMT:guard_support.obj
 0001:000106ab       __InlineInterlockedExchangePointer 100116ab f i LIBCMT:guard_support.obj
 0001:000106b8       ___castguard_check_failure_debugbreak 100116b8 f i LIBCMT:guard_support.obj
 0001:000106d3       ___castguard_check_failure_fastfail 100116d3 f i LIBCMT:guard_support.obj
 0001:000106f2       ___castguard_check_failure_nop 100116f2 f i LIBCMT:guard_support.obj
 0001:000106f5       ___castguard_check_failure_os_handled 100116f5 f i LIBCMT:guard_support.obj
 0001:00010736       ___castguard_check_failure_user_handled 10011736 f i LIBCMT:guard_support.obj
 0001:000107a4       ___castguard_set_user_handler 100117a4 f i LIBCMT:guard_support.obj
 0001:000107b3       ___castguard_slow_path_check_debugbreak 100117b3 f i LIBCMT:guard_support.obj
 0001:000107e0       ___castguard_slow_path_check_fastfail 100117e0 f i LIBCMT:guard_support.obj
 0001:00010811       ___castguard_slow_path_check_nop 10011811 f i LIBCMT:guard_support.obj
 0001:00010814       ___castguard_slow_path_check_os_handled 10011814 f i LIBCMT:guard_support.obj
 0001:00010855       ___castguard_slow_path_check_user_handled 10011855 f i LIBCMT:guard_support.obj
 0001:000108b6       __guard_icall_checks_enforced 100118b6 f i LIBCMT:guard_support.obj
 0001:000108c8       ___isa_available_init      100118c8 f   LIBCMT:cpu_disp.obj
 0001:00010a9c       __get_startup_argv_mode    10011a9c f   LIBCMT:argv_mode.obj
 0001:00010aa0       ___scrt_is_ucrt_dll_in_use 10011aa0 f   LIBCMT:ucrt_detection.obj
 0001:00010aac       @__security_check_cookie@4 10011aac f   LIBCMT:secchk.obj
 0001:00010aba       ___raise_securityfailure   10011aba f   LIBCMT:gs_report.obj
 0001:00010ae2       ___report_gsfailure        10011ae2 f   LIBCMT:gs_report.obj
 0001:00010bdc       ___report_rangecheckfailure 10011bdc f   LIBCMT:gs_report.obj
 0001:00010be8       ___report_securityfailure  10011be8 f   LIBCMT:gs_report.obj
 0001:00010cb7       ___report_securityfailureEx 10011cb7 f   LIBCMT:gs_report.obj
 0001:00010e10       __except_handler4          10011e10 f   libvcruntime:chandler4.obj
 0001:00010f7c       ??$?RD@__crt_internal_free_policy@@QBEXQBD@Z 10011f7c f i libvcruntime:std_type_info.obj
 0001:00010f8c       ??$?RX@__crt_internal_free_policy@@QBEXQBX@Z 10011f8c f i libvcruntime:std_type_info.obj
 0001:00010f9c       ??$__crt_interlocked_compare_exchange_pointer@$$CBDPAD$$T@@YAPBDPDSBDQAD$$T@Z 10011f9c f i libvcruntime:std_type_info.obj
 0001:00010fae       ??$__crt_interlocked_read_pointer@$$CBD@@YAPBDPDSBD@Z 10011fae f i libvcruntime:std_type_info.obj
 0001:00010fb9       ??0?$__crt_unique_heap_ptr@DU__crt_internal_free_policy@@@@QAE@QAD@Z 10011fb9 f i libvcruntime:std_type_info.obj
 0001:00010fc7       ??0?$__crt_unique_heap_ptr@XU__crt_internal_free_policy@@@@QAE@QAX@Z 10011fc7 f i libvcruntime:std_type_info.obj
 0001:00010fd5       ??1?$__crt_unique_heap_ptr@DU__crt_internal_free_policy@@@@QAE@XZ 10011fd5 f i libvcruntime:std_type_info.obj
 0001:00010fe5       ??1?$__crt_unique_heap_ptr@XU__crt_internal_free_policy@@@@QAE@XZ 10011fe5 f i libvcruntime:std_type_info.obj
 0001:00010ff5       ??B?$__crt_unique_heap_ptr@DU__crt_internal_free_policy@@@@QBE_NXZ 10011ff5 f i libvcruntime:std_type_info.obj
 0001:00010ffc       ??B?$__crt_unique_heap_ptr@XU__crt_internal_free_policy@@@@QBE_NXZ 10011ffc f i libvcruntime:std_type_info.obj
 0001:00011023       ?__crt_interlocked_read_32@@YAHPDH@Z 10012023 f i libvcruntime:std_type_info.obj
 0001:0001102e       ?detach@?$__crt_unique_heap_ptr@XU__crt_internal_free_policy@@@@QAEPAXXZ 1001202e f i libvcruntime:std_type_info.obj
 0001:00011034       ?get@?$__crt_unique_heap_ptr@DU__crt_internal_free_policy@@@@QBEPADXZ 10012034 f i libvcruntime:std_type_info.obj
 0001:00011037       ?get@?$__crt_unique_heap_ptr@XU__crt_internal_free_policy@@@@QBEPAXXZ 10012037 f i libvcruntime:std_type_info.obj
 0001:0001103a       ?is_valid@?$__crt_unique_heap_ptr@DU__crt_internal_free_policy@@@@QBE_NXZ 1001203a f i libvcruntime:std_type_info.obj
 0001:00011041       ?is_valid@?$__crt_unique_heap_ptr@XU__crt_internal_free_policy@@@@QBE_NXZ 10012041 f i libvcruntime:std_type_info.obj
 0001:00011048       ?release@?$__crt_unique_heap_ptr@DU__crt_internal_free_policy@@@@QAEXXZ 10012048 f i libvcruntime:std_type_info.obj
 0001:00011058       ?release@?$__crt_unique_heap_ptr@XU__crt_internal_free_policy@@@@QAEXXZ 10012058 f i libvcruntime:std_type_info.obj
 0001:00011068       ___std_type_info_compare   10012068 f   libvcruntime:std_type_info.obj
 0001:000110a4       ___std_type_info_destroy_list 100120a4 f   libvcruntime:std_type_info.obj
 0001:000110c7       ___std_type_info_hash      100120c7 f   libvcruntime:std_type_info.obj
 0001:000110ed       ___std_type_info_name      100120ed f   libvcruntime:std_type_info.obj
 0001:000111b3       ___vcrt_initialize         100121b3 f   libvcruntime:initialization.obj
 0001:000111d2       ___vcrt_thread_attach      100121d2 f   libvcruntime:initialization.obj
 0001:000111dd       ___vcrt_thread_detach      100121dd f   libvcruntime:initialization.obj
 0001:000111e8       ___vcrt_uninitialize       100121e8 f   libvcruntime:initialization.obj
 0001:000111ff       ___vcrt_uninitialize_critical 100121ff f   libvcruntime:initialization.obj
 0001:0001120a       ___DestructExceptionObject 1001220a f   libvcruntime:ehhelpers.obj
 0001:000112ab       ?_CallMemberFunction0@@YGXQAX0@Z 100122ab f i libvcruntime:ehhelpers.obj
 0001:00011310       ?raw_name@type_info@@QBEPBDXZ 10012310 f i libvcruntime:ehhelpers.obj
 0001:00011314       __IsExceptionObjectToBeDestroyed 10012314 f   libvcruntime:ehhelpers.obj
 0001:0001133a       __SetWinRTOutOfMemoryExceptionCallback 1001233a f   libvcruntime:ehhelpers.obj
 0001:00011347       ___AdjustPointer           10012347 f   libvcruntime:ehhelpers.obj
 0001:0001136c       ___FrameUnwindFilter       1001236c f   libvcruntime:ehhelpers.obj
 0001:000113c2       ___GetPlatformExceptionInfo 100123c2 f   libvcruntime:ehhelpers.obj
 0001:0001140e       ___current_exception       1001240e f   libvcruntime:ehhelpers.obj
 0001:00011417       ___current_exception_context 10012417 f   libvcruntime:ehhelpers.obj
 0001:00011420       ___processing_throw        10012420 f   libvcruntime:ehhelpers.obj
 0001:00011429       ___std_terminate           10012429 f   libvcruntime:ehhelpers.obj
 0001:0001142e       __is_exception_typeof      1001242e f   libvcruntime:ehhelpers.obj
 0001:000114e0       _memset                    100124e0 f   libvcruntime:memset.obj
 0001:00011640       __local_unwind4            10012640 f   libvcruntime:exsup4.obj
 0001:00011730       __seh_longjmp_unwind4@4    10012730 f   libvcruntime:exsup4.obj
 0001:00011760       @_EH4_CallFilterFunc@8     10012760 f   libvcruntime:exsup4.obj
 0001:00011780       @_EH4_TransferToHandler@8  10012780 f   libvcruntime:exsup4.obj
 0001:000117a0       @_EH4_GlobalUnwind2@8      100127a0 f   libvcruntime:exsup4.obj
 0001:000117c0       @_EH4_LocalUnwind@16       100127c0 f   libvcruntime:exsup4.obj
 0001:000117e2       ___except_validate_context_record 100127e2 f   libvcruntime:jbcxrval.obj
 0001:00011812       ___except_validate_jump_buffer 10012812 f   libvcruntime:jbcxrval.obj
 0001:0001183f       ___except_validate_jump_buffer_common 1001283f f i libvcruntime:jbcxrval.obj
 0001:00011878       ??$?0$00@DName@@QAE@PBDU?$StringLifeSelector@$00@@@Z 10012878 f i libvcruntime:undname.obj
 0001:000118ab       ??$?0$00@pcharNode@@QAE@PBDHU?$StringLifeSelector@$00@@@Z 100128ab f i libvcruntime:undname.obj
 0001:000118c6       ??$?0$01@DName@@QAE@PBDU?$StringLifeSelector@$01@@@Z 100128c6 f i libvcruntime:undname.obj
 0001:000118f9       ??$?0$01@pcharNode@@QAE@PBDHU?$StringLifeSelector@$01@@@Z 100128f9 f i libvcruntime:undname.obj
 0001:00011939       ??$?0$0A@@DName@@QAE@PBDU?$StringLifeSelector@$0A@@@@Z 10012939 f i libvcruntime:undname.obj
 0001:0001196c       ??$?0$0A@@pcharNode@@QAE@PBDHU?$StringLifeSelector@$0A@@@@Z 1001296c f i libvcruntime:undname.obj
 0001:000119ac       ??$?0_K$0A@@?$optional@_K@std@@QAE@$$QA_K@Z 100129ac f i libvcruntime:undname.obj
 0001:000119c6       ??$?0_K@?$_Optional_construct_base@_K@std@@QAE@Uin_place_t@1@$$QA_K@Z 100129c6 f i libvcruntime:undname.obj
 0001:000119e0       ??$?0_K@?$_Optional_destruct_base@_K$00@std@@QAE@Uin_place_t@1@$$QA_K@Z 100129e0 f i libvcruntime:undname.obj
 0001:000119fa       ??$append@VDNameNode@@@DName@@AAEXPBVDNameNode@@@Z 100129fa f i libvcruntime:undname.obj
 0001:00011a3b       ??$append@VDNameStatusNode@@@DName@@AAEXPBVDNameStatusNode@@@Z 10012a3b f i libvcruntime:undname.obj
 0001:00011a7c       ??$append@VcharNode@@@DName@@AAEXPBVcharNode@@@Z 10012a7c f i libvcruntime:undname.obj
 0001:00011abd       ??$append@VpDNameNode@@@DName@@AAEXPBVpDNameNode@@@Z 10012abd f i libvcruntime:undname.obj
 0001:00011afe       ??$append@VpcharNode@@@DName@@AAEXPBVpcharNode@@@Z 10012afe f i libvcruntime:undname.obj
 0001:00011b3f       ??$doPchar@$00@DName@@AAEXPBDH@Z 10012b3f f i libvcruntime:undname.obj
 0001:00011baa       ??$doPchar@$01@DName@@AAEXPBDH@Z 10012baa f i libvcruntime:undname.obj
 0001:00011c1b       ??$doPchar@$0A@@DName@@AAEXPBDH@Z 10012c1b f i libvcruntime:undname.obj
 0001:00011c8c       ??$forward@_K@std@@YA$$QA_KAA_K@Z 10012c8c f i libvcruntime:undname.obj
 0001:00011d50       ??$size@D$04@std@@YAIAAY04$$CBD@Z 10012d50 f i libvcruntime:undname.obj
 0001:00011d54       ??0?$_Optional_construct_base@_K@std@@QAE@XZ 10012d54 f i libvcruntime:undname.obj
 0001:00011d5b       ??0?$_Optional_destruct_base@_K$00@std@@QAE@XZ 10012d5b f i libvcruntime:undname.obj
 0001:00011d62       ??0?$optional@_K@std@@QAE@XZ 10012d62 f i libvcruntime:undname.obj
 0001:00011d69       ??0Block@_HeapManager@@QAE@XZ 10012d69 f i libvcruntime:undname.obj
 0001:00011d6f       ??0DName@@QAE@AAPBDD@Z     10012d6f f   libvcruntime:undname.obj
 0001:00011def       ??0DName@@QAE@ABUStringLiteral@@@Z 10012def f   libvcruntime:undname.obj
 0001:00011e16       ??0DName@@QAE@ABV0@@Z      10012e16 f i libvcruntime:undname.obj
 0001:00011e2c       ??0DName@@QAE@D@Z          10012e2c f   libvcruntime:undname.obj
 0001:00011e48       ??0DName@@QAE@PAV0@@Z      10012e48 f   libvcruntime:undname.obj
 0001:00011e91       ??0DName@@QAE@W4DNameStatus@@@Z 10012e91 f   libvcruntime:undname.obj
 0001:00011ed1       ??0DName@@QAE@XZ           10012ed1 f i libvcruntime:undname.obj
 0001:00011edb       ??0DName@@QAE@_J@Z         10012edb f   libvcruntime:undname.obj
 0001:00011f65       ??0DName@@QAE@_K@Z         10012f65 f   libvcruntime:undname.obj
 0001:00011fc9       ??0DNameNode@@IAE@XZ       10012fc9 f i libvcruntime:undname.obj
 0001:00011fd2       ??0Replicator@@QAE@XZ      10012fd2 f i libvcruntime:undname.obj
 0001:00011fe1       ??0UnDecorator@@QAE@PBDP6APADJ@ZK@Z 10012fe1 f i libvcruntime:undname.obj
 0001:0001202d       ??0_Nontrivial_dummy_type@std@@QAE@XZ 1001302d f i libvcruntime:undname.obj
 0001:00012030       ??0charNode@@QAE@D@Z       10013030 f i libvcruntime:undname.obj
 0001:00012045       ??0pDNameNode@@QAE@PAVDName@@@Z 10013045 f   libvcruntime:undname.obj
 0001:0001206d       ??0pairNode@@QAE@PBVDNameNode@@0@Z 1001306d f i libvcruntime:undname.obj
 0001:00012093       ??2@YAPAXIAAV_HeapManager@@H@Z 10013093 f   libvcruntime:undname.obj
 0001:000120b2       ??4DName@@QAEAAV0@ABUStringLiteral@@@Z 100130b2 f   libvcruntime:undname.obj
 0001:000120d3       ??4DName@@QAEAAV0@ABV0@@Z  100130d3 f   libvcruntime:undname.obj
 0001:000120e9       ??4DName@@QAEAAV0@D@Z      100130e9 f i libvcruntime:undname.obj
 0001:00012105       ??4DName@@QAEAAV0@PAV0@@Z  10013105 f   libvcruntime:undname.obj
 0001:00012148       ??4DName@@QAEAAV0@W4DNameStatus@@@Z 10013148 f   libvcruntime:undname.obj
 0001:0001217a       ??AReplicator@@QBE?AVDName@@H@Z 1001317a f   libvcruntime:undname.obj
 0001:000121b6       ??B?$optional@_K@std@@QBE_NXZ 100131b6 f i libvcruntime:undname.obj
 0001:000121ba       ??D?$_Optional_construct_base@_K@std@@QGAEAA_KXZ 100131ba f i libvcruntime:undname.obj
 0001:000121bd       ??H@YA?AVDName@@ABUStringLiteral@@ABV0@@Z 100131bd f i libvcruntime:undname.obj
 0001:000121df       ??H@YA?AVDName@@DABV0@@Z   100131df f i libvcruntime:undname.obj
 0001:0001220a       ??H@YA?AVDName@@W4DNameStatus@@ABV0@@Z 1001320a f i libvcruntime:undname.obj
 0001:0001222c       ??HDName@@QBE?AV0@ABUStringLiteral@@@Z 1001322c f   libvcruntime:undname.obj
 0001:0001224e       ??HDName@@QBE?AV0@ABV0@@Z  1001324e f   libvcruntime:undname.obj
 0001:00012270       ??HDName@@QBE?AV0@D@Z      10013270 f   libvcruntime:undname.obj
 0001:00012292       ??HDName@@QBE?AV0@PAV0@@Z  10013292 f   libvcruntime:undname.obj
 0001:000122b4       ??HDName@@QBE?AV0@W4DNameStatus@@@Z 100132b4 f   libvcruntime:undname.obj
 0001:000122d6       ??HStringLiteral@@QBE?AU0@H@Z 100132d6 f i libvcruntime:undname.obj
 0001:000122f0       ??YDName@@QAEAAV0@ABUStringLiteral@@@Z 100132f0 f   libvcruntime:undname.obj
 0001:00012348       ??YDName@@QAEAAV0@ABV0@@Z  10013348 f   libvcruntime:undname.obj
 0001:0001239f       ??YDName@@QAEAAV0@D@Z      1001339f f   libvcruntime:undname.obj
 0001:000123f4       ??YDName@@QAEAAV0@PAV0@@Z  100133f4 f   libvcruntime:undname.obj
 0001:00012458       ??YDName@@QAEAAV0@W4DNameStatus@@@Z 10013458 f   libvcruntime:undname.obj
 0001:00012498       ??YReplicator@@QAEAAV0@ABVDName@@@Z 10013498 f   libvcruntime:undname.obj
 0001:000124d8       ??_5DName@@QAEAAV0@ABV0@@Z 100134d8 f   libvcruntime:undname.obj
 0001:000124f7       ??__K_l@@YA?AUStringLiteral@@PBDI@Z 100134f7 f i libvcruntime:undname.obj
 0001:00012502       ?Constructor@_HeapManager@@QAEXP6APAXI@ZP6AXPAX@Z@Z 10013502 f i libvcruntime:undname.obj
 0001:0001251f       ?Destructor@_HeapManager@@QAEXXZ 1001351f f i libvcruntime:undname.obj
 0001:00012563       ?UScore@UnDecorator@@SA?AUStringLiteral@@W4Tokens@@@Z 10013563 f   libvcruntime:undname.obj
 0001:0001258a       ?composeDeclaration@UnDecorator@@CA?AVDName@@ABV2@@Z 1001358a f i libvcruntime:undname.obj
 0001:00013282       ?doAccessSpecifiers@UnDecorator@@SAHXZ 10014282 f i libvcruntime:undname.obj
 0001:00013290       ?doAllocationLanguage@UnDecorator@@SAHXZ 10014290 f i libvcruntime:undname.obj
 0001:0001329e       ?doAllocationModel@UnDecorator@@SAHXZ 1001429e f i libvcruntime:undname.obj
 0001:000132ac       ?doEcsu@UnDecorator@@SAHXZ 100142ac f i libvcruntime:undname.obj
 0001:000132ba       ?doEllipsis@UnDecorator@@SAHXZ 100142ba f i libvcruntime:undname.obj
 0001:000132c8       ?doFunctionReturns@UnDecorator@@SAHXZ 100142c8 f i libvcruntime:undname.obj
 0001:000132d6       ?doMSKeywords@UnDecorator@@SAHXZ 100142d6 f i libvcruntime:undname.obj
 0001:000132e3       ?doMemberTypes@UnDecorator@@SAHXZ 100142e3 f i libvcruntime:undname.obj
 0001:000132f1       ?doNameOnly@UnDecorator@@SAHXZ 100142f1 f i libvcruntime:undname.obj
 0001:000132fc       ?doNoIdentCharCheck@UnDecorator@@SAHXZ 100142fc f i libvcruntime:undname.obj
 0001:00013307       ?doPchar@DName@@AAEXD@Z    10014307 f   libvcruntime:undname.obj
 0001:0001333f       ?doPtr64@UnDecorator@@SAHXZ 1001433f f i libvcruntime:undname.obj
 0001:0001334d       ?doRestrictionSpec@UnDecorator@@SAHXZ 1001434d f i libvcruntime:undname.obj
 0001:0001335b       ?doThisTypes@UnDecorator@@SAHXZ 1001435b f i libvcruntime:undname.obj
 0001:0001336d       ?doThrowTypes@UnDecorator@@SAHXZ 1001436d f i libvcruntime:undname.obj
 0001:0001337b       ?doTypeOnly@UnDecorator@@SAHXZ 1001437b f i libvcruntime:undname.obj
 0001:00013386       ?doUnderScore@UnDecorator@@SAHXZ 10014386 f i libvcruntime:undname.obj
 0001:00013391       ?getAddressOf@UnDecorator@@CA?AVDName@@XZ 10014391 f   libvcruntime:undname.obj
 0001:000133f9       ?getArgumentList@UnDecorator@@CA?AVDName@@XZ 100143f9 f   libvcruntime:undname.obj
 0001:00013563       ?getArgumentTypes@UnDecorator@@CA?AVDName@@XZ 10014563 f   libvcruntime:undname.obj
 0001:0001366b       ?getArrayAccess@UnDecorator@@CA?AVDName@@XZ 1001466b f   libvcruntime:undname.obj
 0001:000136df       ?getArrayObject@UnDecorator@@CA?AVDName@@XZ 100146df f   libvcruntime:undname.obj
 0001:0001376a       ?getArrayType@UnDecorator@@CA?AVDName@@ABV2@@Z 1001476a f i libvcruntime:undname.obj
 0001:00013907       ?getBasedType@UnDecorator@@CA?AVDName@@XZ 10014907 f   libvcruntime:undname.obj
 0001:000139b6       ?getBasicDataType@UnDecorator@@CA?AVDName@@ABV2@@Z 100149b6 f   libvcruntime:undname.obj
 0001:00013f12       ?getCHPEName@UnDecorator@@QAEPADPADH@Z 10014f12 f i libvcruntime:undname.obj
 0001:00013fef       ?getCallIndex@UnDecorator@@CA?AVDName@@XZ 10014fef f i libvcruntime:undname.obj
 0001:00014003       ?getCallingConvention@UnDecorator@@CA?AVDName@@XZ 10015003 f   libvcruntime:undname.obj
 0001:000140d8       ?getDataIndirectType@UnDecorator@@CA?AVDName@@ABV2@W4IndirectionKind@@0H@Z 100150d8 f   libvcruntime:undname.obj
 0001:0001488a       ?getDataIndirectType@UnDecorator@@CA?AVDName@@XZ 1001588a f i libvcruntime:undname.obj
 0001:000148b8       ?getDataType@UnDecorator@@CA?AVDName@@PAV2@@Z 100158b8 f   libvcruntime:undname.obj
 0001:0001498f       ?getDecoratedName@UnDecorator@@CA?AVDName@@XZ 1001598f f   libvcruntime:undname.obj
 0001:00014be3       ?getDimension@UnDecorator@@CA?AVDName@@_N@Z 10015be3 f   libvcruntime:undname.obj
 0001:00014cea       ?getDispatchTarget@UnDecorator@@CA?AVDName@@XZ 10015cea f   libvcruntime:undname.obj
 0001:00014d3b       ?getDisplacement@UnDecorator@@CA?AVDName@@XZ 10015d3b f i libvcruntime:undname.obj
 0001:00014d4f       ?getECSUDataType@UnDecorator@@CA?AVDName@@XZ 10015d4f f   libvcruntime:undname.obj
 0001:00014ef9       ?getECSUName@UnDecorator@@CA?AVDName@@XZ 10015ef9 f i libvcruntime:undname.obj
 0001:00014f0a       ?getEnumType@UnDecorator@@CA?AVDName@@XZ 10015f0a f i libvcruntime:undname.obj
 0001:0001502a       ?getExtendedDataIndirectType@UnDecorator@@CA?AVDName@@AAW4IndirectionKind@@AA_NH@Z 1001602a f   libvcruntime:undname.obj
 0001:000151d6       ?getExternalDataType@UnDecorator@@CA?AVDName@@ABV2@@Z 100161d6 f i libvcruntime:undname.obj
 0001:0001523b       ?getFloatingPoint@UnDecorator@@CA?AVDName@@H@Z 1001623b f   libvcruntime:undname.obj
 0001:000152f9       ?getFunctionIndirectType@UnDecorator@@CA?AVDName@@ABV2@@Z 100162f9 f   libvcruntime:undname.obj
 0001:000156a3       ?getGuardNumber@UnDecorator@@CA?AVDName@@XZ 100166a3 f i libvcruntime:undname.obj
 0001:000156b7       ?getLastChar@DName@@QBEDXZ 100166b7 f i libvcruntime:undname.obj
 0001:000156d7       ?getLastChar@DNameStatusNode@@UBEDXZ 100166d7 f i libvcruntime:undname.obj
 0001:000156e3       ?getLastChar@charNode@@UBEDXZ 100166e3 f i libvcruntime:undname.obj
 0001:000156e7       ?getLastChar@pDNameNode@@UBEDXZ 100166e7 f i libvcruntime:undname.obj
 0001:000156f5       ?getLastChar@pairNode@@UBEDXZ 100166f5 f i libvcruntime:undname.obj
 0001:0001572a       ?getLastChar@pcharNode@@UBEDXZ 1001672a f i libvcruntime:undname.obj
 0001:0001573c       ?getLexicalFrame@UnDecorator@@CA?AVDName@@XZ 1001673c f i libvcruntime:undname.obj
 0001:0001576d       ?getMemberAccess@UnDecorator@@CA?AVDName@@XZ 1001676d f   libvcruntime:undname.obj
 0001:000157dd       ?getMemoryWithBuffer@_HeapManager@@QAEPAXI@Z 100167dd f   libvcruntime:undname.obj
 0001:00015847       ?getMemoryWithoutBuffer@_HeapManager@@QAEPAXI@Z 10016847 f   libvcruntime:undname.obj
 0001:00015867       ?getNoexcept@UnDecorator@@CA?AVDName@@XZ 10016867 f   libvcruntime:undname.obj
 0001:000158af       ?getNumberOfDimensions@UnDecorator@@CAHXZ 100168af f   libvcruntime:undname.obj
 0001:00015911       ?getOperatorName@UnDecorator@@CA?AVDName@@_NPA_N@Z 10016911 f i libvcruntime:undname.obj
 0001:0001613b       ?getPointerToMember@UnDecorator@@CA?AVDName@@XZ 1001713b f   libvcruntime:undname.obj
 0001:000161f7       ?getPointerType@UnDecorator@@CA?AVDName@@ABV2@0@Z 100171f7 f i libvcruntime:undname.obj
 0001:00016212       ?getPointerTypeArray@UnDecorator@@CA?AVDName@@ABV2@0@Z 10017212 f i libvcruntime:undname.obj
 0001:0001622d       ?getPrimaryDataType@UnDecorator@@CA?AVDName@@ABV2@@Z 1001722d f   libvcruntime:undname.obj
 0001:0001647b       ?getPtrRefDataType@UnDecorator@@CA?AVDName@@ABV2@H@Z 1001747b f   libvcruntime:undname.obj
 0001:000165e8       ?getPtrRefType@UnDecorator@@CA?AVDName@@ABV2@0W4IndirectionKind@@@Z 100175e8 f   libvcruntime:undname.obj
 0001:000166f9       ?getReferenceType@UnDecorator@@CA?AVDName@@ABV2@0W4IndirectionKind@@@Z 100176f9 f i libvcruntime:undname.obj
 0001:00016715       ?getRestrictionSpec@UnDecorator@@CA?AVDName@@XZ 10017715 f   libvcruntime:undname.obj
 0001:0001682e       ?getReturnType@UnDecorator@@CA?AVDName@@PAV2@@Z 1001782e f   libvcruntime:undname.obj
 0001:0001685d       ?getScope@UnDecorator@@CA?AVDName@@XZ 1001785d f   libvcruntime:undname.obj
 0001:00016c1b       ?getScopedName@UnDecorator@@CA?AVDName@@XZ 10017c1b f   libvcruntime:undname.obj
 0001:00016d0e       ?getSignedDimension@UnDecorator@@CA?AVDName@@XZ 10017d0e f   libvcruntime:undname.obj
 0001:00016d5f       ?getStorageConvention@UnDecorator@@CA?AVDName@@XZ 10017d5f f i libvcruntime:undname.obj
 0001:00016d70       ?getString@DName@@QBEPADPAD0@Z 10017d70 f i libvcruntime:undname.obj
 0001:00016d9d       ?getString@DName@@QBEPADPADH@Z 10017d9d f i libvcruntime:undname.obj
 0001:00016df2       ?getString@DNameStatusNode@@UBEPADPAD0@Z 10017df2 f i libvcruntime:undname.obj
 0001:00016e39       ?getString@charNode@@UBEPADPAD0@Z 10017e39 f i libvcruntime:undname.obj
 0001:00016e4e       ?getString@pDNameNode@@UBEPADPAD0@Z 10017e4e f i libvcruntime:undname.obj
 0001:00016e65       ?getString@pairNode@@UBEPADPAD0@Z 10017e65 f i libvcruntime:undname.obj
 0001:00016eab       ?getString@pcharNode@@UBEPADPAD0@Z 10017eab f i libvcruntime:undname.obj
 0001:00016ec6       ?getStringEncoding@UnDecorator@@CA?AVDName@@W4PrefixKind@@H@Z 10017ec6 f   libvcruntime:undname.obj
 0001:00016f59       ?getStringHelper@@YAPADPADPBD1H@Z 10017f59 f i libvcruntime:undname.obj
 0001:00016f83       ?getStringObject@UnDecorator@@CA?AVDName@@XZ 10017f83 f   libvcruntime:undname.obj
 0001:00016fce       ?getSymbolName@UnDecorator@@CA?AVDName@@XZ 10017fce f i libvcruntime:undname.obj
 0001:00017016       ?getTemplateArgumentList@UnDecorator@@CA?AVDName@@XZ 10018016 f   libvcruntime:undname.obj
 0001:000171c6       ?getTemplateName@UnDecorator@@CA?AVDName@@_N@Z 100181c6 f   libvcruntime:undname.obj
 0001:00017326       ?getTemplateNonTypeArgument@UnDecorator@@CA?AVDName@@XZ 10018326 f   libvcruntime:undname.obj
 0001:000176ee       ?getTemplateTypeArgument@UnDecorator@@CA?AVDName@@XZ 100186ee f   libvcruntime:undname.obj
 0001:000177ff       ?getThisType@UnDecorator@@CA?AVDName@@XZ 100187ff f i libvcruntime:undname.obj
 0001:0001782e       ?getThrowTypes@UnDecorator@@CA?AVDName@@XZ 1001882e f   libvcruntime:undname.obj
 0001:0001784d       ?getTypeEncoding@UnDecorator@@CAHXZ 1001884d f i libvcruntime:undname.obj
 0001:00017b8d       ?getUndecoratedName@UnDecorator@@QAEPADPADH@Z 10018b8d f i libvcruntime:undname.obj
 0001:00017cac       ?getUnionObject@UnDecorator@@CA?AVDName@@XZ 10018cac f   libvcruntime:undname.obj
 0001:00017d53       ?getVCallThunkType@UnDecorator@@CA?AVDName@@XZ 10018d53 f i libvcruntime:undname.obj
 0001:00017d9d       ?getValue@UnDecorator@@CA?AV?$optional@_K@std@@XZ 10018d9d f   libvcruntime:undname.obj
 0001:00017df4       ?getValueObject@UnDecorator@@CA?AVDName@@XZ 10018df4 f   libvcruntime:undname.obj
 0001:00017eee       ?getVbTableType@UnDecorator@@CA?AVDName@@ABV2@@Z 10018eee f i libvcruntime:undname.obj
 0001:00017f03       ?getVdispMapType@UnDecorator@@CA?AVDName@@ABV2@@Z 10018f03 f i libvcruntime:undname.obj
 0001:00017f64       ?getVfTableType@UnDecorator@@CA?AVDName@@ABV2@@Z 10018f64 f i libvcruntime:undname.obj
 0001:000180b8       ?getZName@UnDecorator@@CA?AVDName@@_N0@Z 100190b8 f   libvcruntime:undname.obj
 0001:000182d1       ?get_current_character_and_increment_buffer@UnDecorator@@CADXZ 100192d1 f i libvcruntime:undname.obj
 0001:000182e5       ?haveTemplateParameters@UnDecorator@@SAHXZ 100192e5 f i libvcruntime:undname.obj
 0001:000182f0       ?increment_buffer@UnDecorator@@CA_NI@Z 100192f0 f i libvcruntime:undname.obj
 0001:00018318       ?increment_buffer_no_check@UnDecorator@@CAXI@Z 10019318 f i libvcruntime:undname.obj
 0001:00018326       ?increment_buffer_no_check@UnDecorator@@CAXXZ 10019326 f i libvcruntime:undname.obj
 0001:0001832d       ?isArray@DName@@QBEHXZ     1001932d f i libvcruntime:undname.obj
 0001:00018337       ?isComArray@DName@@QBEHXZ  10019337 f i libvcruntime:undname.obj
 0001:00018341       ?isEmpty@DName@@QBEHXZ     10019341 f i libvcruntime:undname.obj
 0001:00018349       ?isFull@Replicator@@QBEHXZ 10019349 f i libvcruntime:undname.obj
 0001:00018352       ?isNoTE@DName@@QBEHXZ      10019352 f i libvcruntime:undname.obj
 0001:0001835c       ?isPinPtr@DName@@QBEHXZ    1001935c f i libvcruntime:undname.obj
 0001:00018366       ?isPtrRef@DName@@QBEHXZ    10019366 f i libvcruntime:undname.obj
 0001:00018370       ?isUDC@DName@@QBEHXZ       10019370 f i libvcruntime:undname.obj
 0001:00018381       ?isUDTThunk@DName@@QBEHXZ  10019381 f i libvcruntime:undname.obj
 0001:00018392       ?isVCallThunk@DName@@QBEHXZ 10019392 f i libvcruntime:undname.obj
 0001:0001839c       ?isValid@DName@@QBEHXZ     1001939c f i libvcruntime:undname.obj
 0001:000183a6       ?length@DName@@QBEHXZ      100193a6 f i libvcruntime:undname.obj
 0001:000183c5       ?length@DNameStatusNode@@UBEHXZ 100193c5 f i libvcruntime:undname.obj
 0001:000183c9       ?length@charNode@@UBEHXZ   100193c9 f i libvcruntime:undname.obj
 0001:000183cd       ?length@pDNameNode@@UBEHXZ 100193cd f i libvcruntime:undname.obj
 0001:000183db       ?length@pairNode@@UBEHXZ   100193db f i libvcruntime:undname.obj
 0001:00018424       ?length@pcharNode@@UBEHXZ  10019424 f i libvcruntime:undname.obj
 0001:00018428       ?make@DNameStatusNode@@SAPBV1@W4DNameStatus@@@Z 10019428 f i libvcruntime:undname.obj
 0001:00018444       ?parseDecoratedName@UnDecorator@@CA?AVDName@@XZ 10019444 f   libvcruntime:undname.obj
 0001:0001853f       ?raw_length@DNameStatusNode@@UBEHXZ 1001953f f i libvcruntime:undname.obj
 0001:00018543       ?raw_length@charNode@@UBEHXZ 10019543 f i libvcruntime:undname.obj
 0001:00018547       ?raw_length@pDNameNode@@UBEHXZ 10019547 f i libvcruntime:undname.obj
 0001:0001854b       ?raw_length@pairNode@@UBEHXZ 1001954b f i libvcruntime:undname.obj
 0001:0001854f       ?raw_length@pcharNode@@UBEHXZ 1001954f f i libvcruntime:undname.obj
 0001:00018553       ?setIsArray@DName@@QAEXXZ  10019553 f i libvcruntime:undname.obj
 0001:0001855b       ?setIsComArray@DName@@QAEXXZ 1001955b f i libvcruntime:undname.obj
 0001:00018563       ?setIsNoTE@DName@@QAEXXZ   10019563 f i libvcruntime:undname.obj
 0001:0001856b       ?setIsPinPtr@DName@@QAEXXZ 1001956b f i libvcruntime:undname.obj
 0001:00018573       ?setIsUDC@DName@@QAEXXZ    10019573 f i libvcruntime:undname.obj
 0001:00018580       ?setIsVCallThunk@DName@@QAEXXZ 10019580 f i libvcruntime:undname.obj
 0001:00018588       ?setPtrRef@DName@@QAEAAV1@XZ 10019588 f i libvcruntime:undname.obj
 0001:00018592       ?status@DName@@QBE?AW4DNameStatus@@XZ 10019592 f i libvcruntime:undname.obj
 0001:000185fe       ___unDName                 100195fe f   libvcruntime:undname.obj
 0001:00018621       ___unDNameEx               10019621 f   libvcruntime:undname.obj
 0001:000186c0       __vsprintf_s_l             100196c0 f i libvcruntime:undname.obj
 0001:000186ed       _sprintf_s                 100196ed f i libvcruntime:undname.obj
 0001:00018709       _unDNameGenerateCHPE       10019709 f   libvcruntime:undname.obj
 0001:000187a6       ??$?RU__vcrt_ptd@@@__crt_internal_free_policy@@QBEXQBU__vcrt_ptd@@@Z 100197a6 f i libvcruntime:per_thread_data.obj
 0001:000187b6       ??0?$__crt_unique_heap_ptr@U__vcrt_ptd@@U__crt_internal_free_policy@@@@QAE@QAU__vcrt_ptd@@@Z 100197b6 f i libvcruntime:per_thread_data.obj
 0001:000187d3       ??1?$__crt_unique_heap_ptr@U__vcrt_ptd@@U__crt_internal_free_policy@@@@QAE@XZ 100197d3 f i libvcruntime:per_thread_data.obj
 0001:000187ec       ??B?$__crt_unique_heap_ptr@U__vcrt_ptd@@U__crt_internal_free_policy@@@@QBE_NXZ 100197ec f i libvcruntime:per_thread_data.obj
 0001:000187f3       ?detach@?$__crt_unique_heap_ptr@U__vcrt_ptd@@U__crt_internal_free_policy@@@@QAEPAU__vcrt_ptd@@XZ 100197f3 f i libvcruntime:per_thread_data.obj
 0001:000187f9       ?get@?$__crt_unique_heap_ptr@U__vcrt_ptd@@U__crt_internal_free_policy@@@@QBEPAU__vcrt_ptd@@XZ 100197f9 f i libvcruntime:per_thread_data.obj
 0001:000187fc       ?is_valid@?$__crt_unique_heap_ptr@U__vcrt_ptd@@U__crt_internal_free_policy@@@@QBE_NXZ 100197fc f i libvcruntime:per_thread_data.obj
 0001:00018803       ?release@?$__crt_unique_heap_ptr@U__vcrt_ptd@@U__crt_internal_free_policy@@@@QAEXXZ 10019803 f i libvcruntime:per_thread_data.obj
 0001:0001882d       ___vcrt_freefls@4          1001982d f   libvcruntime:per_thread_data.obj
 0001:00018849       ___vcrt_freeptd            10019849 f   libvcruntime:per_thread_data.obj
 0001:0001887f       ___vcrt_getptd             1001987f f   libvcruntime:per_thread_data.obj
 0001:0001888d       ___vcrt_getptd_noexit      1001988d f   libvcruntime:per_thread_data.obj
 0001:0001891f       ___vcrt_getptd_noinit      1001991f f   libvcruntime:per_thread_data.obj
 0001:00018956       ___vcrt_initialize_ptd     10019956 f   libvcruntime:per_thread_data.obj
 0001:00018989       ___vcrt_uninitialize_ptd   10019989 f   libvcruntime:per_thread_data.obj
 0001:000189a4       ___vcrt_initialize_locks   100199a4 f   libvcruntime:locks.obj
 0001:000189e0       ___vcrt_lock               100199e0 f   libvcruntime:locks.obj
 0001:000189f5       ___vcrt_uninitialize_locks 100199f5 f   libvcruntime:locks.obj
 0001:00018a24       ___vcrt_unlock             10019a24 f   libvcruntime:locks.obj
 0001:00018a40       __global_unwind2           10019a40 f   libvcruntime:exsup.obj
 0001:00018ac0       __local_unwind2            10019ac0 f   libvcruntime:exsup.obj
 0001:00018b60       __abnormal_termination     10019b60 f   libvcruntime:exsup.obj
 0001:00018b90       __NLG_Notify1              10019b90 f   libvcruntime:exsup.obj
 0001:00018ba0       __NLG_Notify               10019ba0 f   libvcruntime:exsup.obj
 0001:00018bb7       __NLG_Dispatch             10019bb7     libvcruntime:exsup.obj
 0001:00018bb7       __NLG_Dispatch2            10019bb7     libvcruntime:exsup.obj
 0001:00018bc0       __NLG_Call                 10019bc0 f   libvcruntime:exsup.obj
 0001:00018bc2       __NLG_Return2              10019bc2     libvcruntime:exsup.obj
 0001:00018bc3       ??$__crt_interlocked_exchange_pointer@$$A6AXXZP6AXXZ@@YAP6AXXZPDS6AXXZQ6AXXZ@Z 10019bc3 f i libvcruntime:purevirt.obj
 0001:00018bd0       ??$__crt_interlocked_read_pointer@$$A6AXXZ@@YAP6AXXZPDS6AXXZ@Z 10019bd0 f i libvcruntime:purevirt.obj
 0001:00018bdb       __get_purecall_handler     10019bdb f   libvcruntime:purevirt.obj
 0001:00018be2       __purecall                 10019be2 f   libvcruntime:purevirt.obj
 0001:00018bfe       __set_purecall_handler     10019bfe f   libvcruntime:purevirt.obj
 0001:00018c0d       ??$?0AAViterator@TryBlockMap@__FrameHandler3@@AAV012@$0A@@?$pair@Viterator@TryBlockMap@__FrameHandler3@@V123@@std@@QAE@AAViterator@TryBlockMap@__FrameHandler3@@0@Z 10019c0d f i libvcruntime:trnsctrl.obj
 0001:00018c31       ??$forward@AAViterator@TryBlockMap@__FrameHandler3@@@std@@YAAAViterator@TryBlockMap@__FrameHandler3@@AAV123@@Z 10019c31 f i libvcruntime:trnsctrl.obj
 0001:00018c39       ??0iterator@TryBlockMap@__FrameHandler3@@QAE@AAV12@I@Z 10019c39 f i libvcruntime:trnsctrl.obj
 0001:00018c4d       ?GetRangeOfTrysToCheck@__FrameHandler3@@SA?AU?$pair@Viterator@TryBlockMap@__FrameHandler3@@V123@@std@@AAVTryBlockMap@1@HPAXPBU_s_FuncInfo@@H@Z 10019c4d f   libvcruntime:trnsctrl.obj
 0001:00018cbd       ?_CallCatchBlock2@@YAPAXPAUEHRegistrationNode@@PBU_s_FuncInfo@@PAXHK@Z 10019cbd f   libvcruntime:trnsctrl.obj
 0001:00018d1a       ?_CallSETranslator@@YAHPAUEHExceptionRecord@@PAUEHRegistrationNode@@PAX2PBU_s_FuncInfo@@H1@Z 10019d1a f   libvcruntime:trnsctrl.obj
 0001:00018e10       ?_JumpToContinuation@@YGXPAXPAUEHRegistrationNode@@@Z 10019e10 f   libvcruntime:trnsctrl.obj
 0001:00018e40       ?_UnwindNestedFrames@@YGXPAUEHRegistrationNode@@PAUEHExceptionRecord@@@Z 10019e40 f   libvcruntime:trnsctrl.obj
 0001:00018e93       __CatchGuardHandler        10019e93 f   libvcruntime:trnsctrl.obj
 0001:00018ec4       __CreateFrameInfo          10019ec4 f   libvcruntime:trnsctrl.obj
 0001:00018ee8       __FindAndUnlinkFrame       10019ee8 f   libvcruntime:trnsctrl.obj
 0001:00018f30       __TranslatorGuardHandler   10019f30 f   libvcruntime:trnsctrl.obj
 0001:00018fcd       ___CxxFrameHandler         10019fcd f   libvcruntime:trnsctrl.obj
 0001:00019003       ___CxxFrameHandler2        1001a003 f   libvcruntime:trnsctrl.obj
 0001:00019039       ___CxxFrameHandler3        1001a039 f   libvcruntime:trnsctrl.obj
 0001:0001906f       ___CxxLongjmpUnwind@4      1001a06f f   libvcruntime:trnsctrl.obj
 0001:000190a0       _memcpy                    1001a0a0 f   libvcruntime:memcpy.obj
 0001:00019614       ??$__crt_interlocked_exchange_pointer@UHINSTANCE__@@PAU1@@@YAPAUHINSTANCE__@@PDSAU0@QAU0@@Z 1001a614 f i libvcruntime:winapi_downlevel.obj
 0001:00019621       ??$__crt_interlocked_exchange_pointer@UHINSTANCE__@@PAX@@YAPAUHINSTANCE__@@PDSAU0@QAX@Z 1001a621 f i libvcruntime:winapi_downlevel.obj
 0001:0001962e       ??$__crt_interlocked_exchange_pointer@XPAX@@YAPAXPDSAXQAX@Z 1001a62e f i libvcruntime:winapi_downlevel.obj
 0001:0001963b       ??$__crt_interlocked_read_pointer@UHINSTANCE__@@@@YAPAUHINSTANCE__@@PDSAU0@@Z 1001a63b f i libvcruntime:winapi_downlevel.obj
 0001:00019646       ??$__crt_interlocked_read_pointer@X@@YAPAXPDSAX@Z 1001a646 f i libvcruntime:winapi_downlevel.obj
 0001:000198d2       ___vcrt_FlsAlloc           1001a8d2 f   libvcruntime:winapi_downlevel.obj
 0001:0001990d       ___vcrt_FlsFree            1001a90d f   libvcruntime:winapi_downlevel.obj
 0001:00019948       ___vcrt_FlsGetValue        1001a948 f   libvcruntime:winapi_downlevel.obj
 0001:00019983       ___vcrt_FlsSetValue        1001a983 f   libvcruntime:winapi_downlevel.obj
 0001:000199c1       ___vcrt_InitializeCriticalSectionEx 1001a9c1 f   libvcruntime:winapi_downlevel.obj
 0001:0001a13a       ??$TypeMatchHelper@V__FrameHandler3@@@@YAHPBU_s_HandlerType@@PBU_s_CatchableType@@PBU_s_ThrowInfo@@@Z 1001b13a f i libvcruntime:frame.obj
 0001:0001a1c8       ??$__InternalCxxFrameHandler@V__FrameHandler3@@@@YA?AW4_EXCEPTION_DISPOSITION@@PAUEHExceptionRecord@@PAUEHRegistrationNode@@PAU_CONTEXT@@PAXPBU_s_FuncInfo@@H1E@Z 1001b1c8 f i libvcruntime:frame.obj
 0001:0001a2ca       ??$__InternalCxxFrameHandlerWrapper@V__FrameHandler3@@@@YA?AW4_EXCEPTION_DISPOSITION@@PAUEHExceptionRecord@@PAUEHRegistrationNode@@PAU_CONTEXT@@PAXPBU_s_FuncInfo@@H1E@Z 1001b2ca f i libvcruntime:frame.obj
 0001:0001a2d3       ??0HandlerMap@__FrameHandler3@@QAE@PBU_s_TryBlockMapEntry@@II@Z 1001b2d3 f i libvcruntime:frame.obj
 0001:0001a2ea       ??0TryBlockMap@__FrameHandler3@@QAE@PBU_s_FuncInfo@@I@Z 1001b2ea f i libvcruntime:frame.obj
 0001:0001a2fe       ??0bad_exception@std@@QAE@ABV01@@Z 1001b2fe f i libvcruntime:frame.obj
 0001:0001a319       ??0bad_exception@std@@QAE@XZ 1001b319 f i libvcruntime:frame.obj
 0001:0001a331       ??0exception@std@@QAE@ABV01@@Z 1001b331 f i libvcruntime:frame.obj
 0001:0001a35d       ??0exception@std@@QAE@QBDH@Z 1001b35d f i libvcruntime:frame.obj
 0001:0001a37a       ??0iterator@HandlerMap@__FrameHandler3@@QAE@AAV12@I@Z 1001b37a f i libvcruntime:frame.obj
 0001:0001a38e       ??1bad_exception@std@@UAE@XZ 1001b38e f i libvcruntime:frame.obj
 0001:0001a39f       ??1exception@std@@UAE@XZ   1001b39f f i libvcruntime:frame.obj
 0001:0001a3b0       ??8iterator@HandlerMap@__FrameHandler3@@QBE_NABV012@@Z 1001b3b0 f i libvcruntime:frame.obj
 0001:0001a3c3       ??8type_info@@QBE_NABV0@@Z 1001b3c3 f i libvcruntime:frame.obj
 0001:0001a3e2       ??9iterator@HandlerMap@__FrameHandler3@@QBE_NABV012@@Z 1001b3e2 f i libvcruntime:frame.obj
 0001:0001a3f5       ??Diterator@HandlerMap@__FrameHandler3@@QAE?BU_s_HandlerType@@XZ 1001b3f5 f i libvcruntime:frame.obj
 0001:0001a414       ??Diterator@TryBlockMap@__FrameHandler3@@QAE?BU_s_TryBlockMapEntry@@XZ 1001b414 f i libvcruntime:frame.obj
 0001:0001a436       ??Eiterator@HandlerMap@__FrameHandler3@@QAEAAV012@XZ 1001b436 f i libvcruntime:frame.obj
 0001:0001a43c       ??Eiterator@TryBlockMap@__FrameHandler3@@QAEAAV012@XZ 1001b43c f i libvcruntime:frame.obj
 0001:0001a442       ??Miterator@TryBlockMap@__FrameHandler3@@QBE_NABV012@@Z 1001b442 f i libvcruntime:frame.obj
 0001:0001a455       ??_Ebad_exception@std@@UAEPAXI@Z 1001b455 f i libvcruntime:frame.obj
 0001:0001a455       ??_Gbad_exception@std@@UAEPAXI@Z 1001b455 f i libvcruntime:frame.obj
 0001:0001a482       ??_Eexception@std@@UAEPAXI@Z 1001b482 f i libvcruntime:frame.obj
 0001:0001a482       ??_Gexception@std@@UAEPAXI@Z 1001b482 f i libvcruntime:frame.obj
 0001:0001a4af       ?BuildCatchObject@__FrameHandler3@@SAXPAUEHExceptionRecord@@PAXPBU_s_HandlerType@@PBU_s_CatchableType@@@Z 1001b4af f   libvcruntime:frame.obj
 0001:0001a4b4       ?BuildCatchObjectHelper@__FrameHandler3@@SAHPAUEHExceptionRecord@@PAXPBU_s_HandlerType@@PBU_s_CatchableType@@@Z 1001b4b4 f   libvcruntime:frame.obj
 0001:0001a715       ?FrameUnwindToEmptyState@__FrameHandler3@@SAXPAUEHRegistrationNode@@PAXPBU_s_FuncInfo@@@Z 1001b715 f   libvcruntime:frame.obj
 0001:0001a72d       ?FrameUnwindToState@__FrameHandler3@@SAXPAUEHRegistrationNode@@PAXPBU_s_FuncInfo@@H@Z 1001b72d f   libvcruntime:frame.obj
 0001:0001a815       ?GetMaxState@__FrameHandler3@@SAHPAXPBU_s_FuncInfo@@@Z 1001b815 f i libvcruntime:frame.obj
 0001:0001a8f3       ?TypeMatch@__FrameHandler3@@SAHPBU_s_HandlerType@@PBU_s_CatchableType@@PBU_s_ThrowInfo@@@Z 1001b8f3 f   libvcruntime:frame.obj
 0001:0001a8fc       ?_CallMemberFunction1@@YGXQAX00@Z 1001b8fc f i libvcruntime:frame.obj
 0001:0001a90c       ?_CallMemberFunction2@@YGXQAX00H@Z 1001b90c f i libvcruntime:frame.obj
 0001:0001a91f       ?begin@HandlerMap@__FrameHandler3@@QAE?AViterator@12@XZ 1001b91f f i libvcruntime:frame.obj
 0001:0001a92f       ?end@HandlerMap@__FrameHandler3@@QAE?AViterator@12@XZ 1001b92f f i libvcruntime:frame.obj
 0001:0001a940       ?getESTypes@__FrameHandler3@@SAPBU_s_ESTypeList@@PBU_s_FuncInfo@@@Z 1001b940 f i libvcruntime:frame.obj
 0001:0001a94b       ?getLastEntry@HandlerMap@__FrameHandler3@@QAEPBU_s_HandlerType@@XZ 1001b94b f i libvcruntime:frame.obj
 0001:0001a959       ?getMagicNum@__FrameHandler3@@SAIPBU_s_FuncInfo@@@Z 1001b959 f i libvcruntime:frame.obj
 0001:0001a968       ?getNumTryBlocks@TryBlockMap@__FrameHandler3@@QAEIXZ 1001b968 f i libvcruntime:frame.obj
 0001:0001a96e       ?isEHs@__FrameHandler3@@SA_NPBU_s_FuncInfo@@@Z 1001b96e f i libvcruntime:frame.obj
 0001:0001a97b       ?isNoExcept@__FrameHandler3@@SA_NPBU_s_FuncInfo@@@Z 1001b97b f i libvcruntime:frame.obj
 0001:0001a98b       ?what@exception@std@@UBEPBDXZ 1001b98b f i libvcruntime:frame.obj
 0001:0001a998       ___BuildCatchObject        1001b998 f   libvcruntime:frame.obj
 0001:0001a99d       ___BuildCatchObjectHelper  1001b99d f   libvcruntime:frame.obj
 0001:0001a9a6       ___TypeMatch               1001b9a6 f   libvcruntime:frame.obj
 0001:0001a9af       ___vcrt_EncodePointer      1001b9af f i libvcruntime:frame.obj
 0001:0001a9c0       __CallSettingFrame@12      1001b9c0 f   libvcruntime:lowhelpr.obj
 0001:0001a9e7       __NLG_Return               1001b9e7     libvcruntime:lowhelpr.obj
 0001:0001aa20       __get_unexpected           1001ba20 f   libvcruntime:unexpected.obj
 0001:0001aa32       _set_unexpected            1001ba32 f   libvcruntime:unexpected.obj
 0001:0001aa50       _unexpected                1001ba50 f   libvcruntime:unexpected.obj
 0001:0001aa6d       ?GetCurrentState@__FrameHandler3@@SAHPAUEHRegistrationNode@@PAXPBU_s_FuncInfo@@@Z 1001ba6d f   libvcruntime:ehstate.obj
 0001:0001aa8a       ?SetState@__FrameHandler3@@SAXPAUEHRegistrationNode@@PBU_s_FuncInfo@@H@Z 1001ba8a f   libvcruntime:ehstate.obj
 0001:0001aa98       ??$?RD@__crt_public_free_policy@@QBEXQBD@Z 1001ba98 f i libvcruntime:std_exception.obj
 0001:0001aaa8       ??0?$__crt_unique_heap_ptr@DU__crt_public_free_policy@@@@QAE@QAD@Z 1001baa8 f i libvcruntime:std_exception.obj
 0001:0001aab6       ??1?$__crt_unique_heap_ptr@DU__crt_public_free_policy@@@@QAE@XZ 1001bab6 f i libvcruntime:std_exception.obj
 0001:0001aac6       ??B?$__crt_unique_heap_ptr@DU__crt_public_free_policy@@@@QBE_NXZ 1001bac6 f i libvcruntime:std_exception.obj
 0001:0001aacd       ?detach@?$__crt_unique_heap_ptr@DU__crt_public_free_policy@@@@QAEPADXZ 1001bacd f i libvcruntime:std_exception.obj
 0001:0001aad3       ?get@?$__crt_unique_heap_ptr@DU__crt_public_free_policy@@@@QBEPADXZ 1001bad3 f i libvcruntime:std_exception.obj
 0001:0001aad6       ?is_valid@?$__crt_unique_heap_ptr@DU__crt_public_free_policy@@@@QBE_NXZ 1001bad6 f i libvcruntime:std_exception.obj
 0001:0001aadd       ?release@?$__crt_unique_heap_ptr@DU__crt_public_free_policy@@@@QAEXXZ 1001badd f i libvcruntime:std_exception.obj
 0001:0001aaed       ___std_exception_copy      1001baed f   libvcruntime:std_exception.obj
 0001:0001ab50       ___std_exception_destroy   1001bb50 f   libvcruntime:std_exception.obj
 0001:0001ab6f       __CxxThrowException@8      1001bb6f f   libvcruntime:throw.obj
 0001:0001abe0       _memmove                   1001bbe0 f   libvcruntime:memmove.obj
 0001:0001b462       ??0?$cached@H@__crt_cached_ptd_host@@QAE@XZ 1001c462 f i libucrt:lseek.obj
 0001:0001b469       ??0?$cached@K@__crt_cached_ptd_host@@QAE@XZ 1001c469 f i libucrt:lseek.obj
 0001:0001b470       ??0__crt_cached_ptd_host@@QAE@QAU__crt_locale_pointers@@@Z 1001c470 f i libucrt:lseek.obj
 0001:0001b4b8       ??0__crt_scoped_get_last_error_reset@@QAE@XZ 1001c4b8 f i libucrt:lseek.obj
 0001:0001b4c9       ??1__crt_cached_ptd_host@@QAE@XZ 1001c4c9 f i libucrt:lseek.obj
 0001:0001b505       ??1__crt_scoped_get_last_error_reset@@QAE@XZ 1001c505 f i libucrt:lseek.obj
 0001:0001b50e       ?check_synchronize_global_state_index@__crt_cached_ptd_host@@AAEIABV__crt_scoped_get_last_error_reset@@@Z 1001c50e f i libucrt:lseek.obj
 0001:0001b526       ?check_synchronize_per_thread_data@__crt_cached_ptd_host@@AAEPAU__acrt_ptd@@XZ 1001c526 f i libucrt:lseek.obj
 0001:0001b60d       ?force_synchronize_global_state_index@__crt_cached_ptd_host@@AAEIABV__crt_scoped_get_last_error_reset@@@Z 1001c60d f i libucrt:lseek.obj
 0001:0001b61a       ?force_synchronize_per_thread_data@__crt_cached_ptd_host@@AAEPAU__acrt_ptd@@XZ 1001c61a f i libucrt:lseek.obj
 0001:0001b660       ?get_current_state_index@__crt_state_management@@YAIABV__crt_scoped_get_last_error_reset@@@Z 1001c660 f i libucrt:lseek.obj
 0001:0001b663       ?get_doserrno@__crt_cached_ptd_host@@QAEAAU?$cached@K@1@XZ 1001c663 f i libucrt:lseek.obj
 0001:0001b667       ?get_errno@__crt_cached_ptd_host@@QAEAAU?$cached@H@1@XZ 1001c667 f i libucrt:lseek.obj
 0001:0001b66b       ?get_raw_ptd@__crt_cached_ptd_host@@QAEPAU__acrt_ptd@@XZ 1001c66b f i libucrt:lseek.obj
 0001:0001b688       ?set@?$cached@H@__crt_cached_ptd_host@@QAEHH@Z 1001c688 f i libucrt:lseek.obj
 0001:0001b69a       ?set@?$cached@K@__crt_cached_ptd_host@@QAEKK@Z 1001c69a f i libucrt:lseek.obj
 0001:0001b6ac       ?unsafe_value@?$cached@H@__crt_cached_ptd_host@@QAEHXZ 1001c6ac f i libucrt:lseek.obj
 0001:0001b6af       ?unsafe_value@?$cached@K@__crt_cached_ptd_host@@QAEKXZ 1001c6af f i libucrt:lseek.obj
 0001:0001b6b2       ?valid@?$cached@H@__crt_cached_ptd_host@@QBE_NXZ 1001c6b2 f i libucrt:lseek.obj
 0001:0001b6b6       ?valid@?$cached@K@__crt_cached_ptd_host@@QBE_NXZ 1001c6b6 f i libucrt:lseek.obj
 0001:0001b6ba       ___acrt_enable_global_locale_sync 1001c6ba f i libucrt:lseek.obj
 0001:0001b6cf       ___acrt_locale_changed     1001c6cf f i libucrt:lseek.obj
 0001:0001b6da       __lseek                    1001c6da f   libucrt:lseek.obj
 0001:0001b711       __lseek_internal           1001c711 f   libucrt:lseek.obj
 0001:0001b71c       __lseek_nolock             1001c71c f   libucrt:lseek.obj
 0001:0001b753       __lseek_nolock_internal    1001c753 f   libucrt:lseek.obj
 0001:0001b75e       __lseeki64                 1001c75e f   libucrt:lseek.obj
 0001:0001b79e       __lseeki64_internal        1001c79e f   libucrt:lseek.obj
 0001:0001b7bc       __lseeki64_nolock          1001c7bc f   libucrt:lseek.obj
 0001:0001b7fc       __lseeki64_nolock_internal 1001c7fc f   libucrt:lseek.obj
 0001:0001b81a       ??$__acrt_convert_wcs_mbs_cp@D_WV<lambda_62f6974d9771e494a5ea317cc32e971c>@@U__crt_win32_buffer_internal_dynamic_resizing@@@@YAHQBDAAV?$__crt_win32_buffer@_WU__crt_win32_buffer_internal_dynamic_resizing@@@@ABV<lambda_62f6974d9771e494a5ea317cc32e971c>@@I@Z 1001c81a f i libucrt:open.obj
 0001:0001b8cc       ??$__acrt_mbs_to_wcs_cp@U__crt_win32_buffer_internal_dynamic_resizing@@@@YAHQBDAAV?$__crt_win32_buffer@_WU__crt_win32_buffer_internal_dynamic_resizing@@@@I@Z 1001c8cc f i libucrt:open.obj
 0001:0001bbd3       ??$tsopen_nolock@PAHABQAHABQBDABHABHABHABH@?$__crt_char_traits@D@@SAH$$QAPAHABQAHABQBDABH333@Z 1001cbd3 f i libucrt:open.obj
 0001:0001bc05       ??$tsopen_nolock@PAHABQAHABQB_WABHABHABHABH@?$__crt_char_traits@_W@@SAH$$QAPAHABQAHABQB_WABH333@Z 1001cc05 f i libucrt:open.obj
 0001:0001bc37       ??$tsopen_nolock@PAHPAHABQBDABHHABHH@?$__crt_char_traits@D@@SAH$$QAPAH0ABQBDABH$$QAH23@Z 1001cc37 f i libucrt:open.obj
 0001:0001bc69       ??$tsopen_nolock@PAHPAHABQB_WABHHABHH@?$__crt_char_traits@_W@@SAH$$QAPAH0ABQB_WABH$$QAH23@Z 1001cc69 f i libucrt:open.obj
 0001:0001bc9b       ??0?$__crt_win32_buffer@_WU__crt_win32_buffer_internal_dynamic_resizing@@@@QAE@XZ 1001cc9b f i libucrt:open.obj
 0001:0001bcb1       ??0_LocaleUpdate@@QAE@QAU__crt_locale_pointers@@@Z 1001ccb1 f i libucrt:open.obj
 0001:0001bd33       ??1?$__crt_win32_buffer@_WU__crt_win32_buffer_internal_dynamic_resizing@@@@QAE@XZ 1001cd33 f i libucrt:open.obj
 0001:0001bd38       ??1_LocaleUpdate@@QAE@XZ   1001cd38 f i libucrt:open.obj
 0001:0001bd48       ??R<lambda_62f6974d9771e494a5ea317cc32e971c>@@QBEHIQBDQA_WI@Z 1001cd48 f i libucrt:open.obj
 0001:0001bd69       ?GetLocaleT@_LocaleUpdate@@QAEPAU__crt_locale_pointers@@XZ 1001cd69 f i libucrt:open.obj
 0001:0001bd6d       ?__acrt_get_utf8_acp_compatibility_codepage@@YAIXZ 1001cd6d f i libucrt:open.obj
 0001:0001bdac       ?_deallocate@?$__crt_win32_buffer@_WU__crt_win32_buffer_internal_dynamic_resizing@@@@AAEXXZ 1001cdac f i libucrt:open.obj
 0001:0001bdc6       ?allocate@?$__crt_win32_buffer@_WU__crt_win32_buffer_internal_dynamic_resizing@@@@QAEHI@Z 1001cdc6 f i libucrt:open.obj
 0001:0001be05       ?allocate@__crt_win32_buffer_internal_dynamic_resizing@@SAHQAPAXIABV__crt_win32_buffer_empty_debug_info@@@Z 1001ce05 f i libucrt:open.obj
 0001:0001be24       ?capacity@?$__crt_win32_buffer@_WU__crt_win32_buffer_internal_dynamic_resizing@@@@QBEIXZ 1001ce24 f i libucrt:open.obj
 0001:0001c09b       ?data@?$__crt_win32_buffer@_WU__crt_win32_buffer_internal_dynamic_resizing@@@@QAEPA_WXZ 1001d09b f i libucrt:open.obj
 0001:0001c09f       ?deallocate@__crt_win32_buffer_internal_dynamic_resizing@@SAXQAXABV__crt_win32_buffer_empty_debug_info@@@Z 1001d09f f i libucrt:open.obj
 0001:0001c0af       ?debug_info@?$__crt_win32_buffer@_WU__crt_win32_buffer_internal_dynamic_resizing@@@@QBEABV__crt_win32_buffer_empty_debug_info@@XZ 1001d0af f i libucrt:open.obj
 0001:0001c388       ?set_to_nullptr@?$__crt_win32_buffer@_WU__crt_win32_buffer_internal_dynamic_resizing@@@@QAEXXZ 1001d388 f i libucrt:open.obj
 0001:0001c39f       ?size@?$__crt_win32_buffer@_WU__crt_win32_buffer_internal_dynamic_resizing@@@@QAEXI@Z 1001d39f f i libucrt:open.obj
 0001:0001c458       ___acrt_disable_global_locale_sync 1001d458 f i libucrt:open.obj
 0001:0001c46b       __invoke_watson_if_error   1001d46b f i libucrt:open.obj
 0001:0001c48d       __open                     1001d48d f   libucrt:open.obj
 0001:0001c4a5       __sopen                    1001d4a5 f   libucrt:open.obj
 0001:0001c4d8       __sopen_dispatch           1001d4d8 f   libucrt:open.obj
 0001:0001c4e3       __sopen_nolock             1001d4e3 f   libucrt:open.obj
 0001:0001c551       __sopen_s                  1001d551 f   libucrt:open.obj
 0001:0001c571       __wopen                    1001d571 f   libucrt:open.obj
 0001:0001c589       __wsopen                   1001d589 f   libucrt:open.obj
 0001:0001c5bc       __wsopen_dispatch          1001d5bc f   libucrt:open.obj
 0001:0001c5c7       __wsopen_nolock            1001d5c7 f   libucrt:open.obj
 0001:0001c8f1       __wsopen_s                 1001d8f1 f   libucrt:open.obj
 0001:0001cc96       ?get_locale@__crt_cached_ptd_host@@QAEPAU__crt_locale_pointers@@XZ 1001dc96 f i libucrt:wcstombs.obj
 0001:0001ccab       ?update_locale@__crt_cached_ptd_host@@AAEXXZ 1001dcab f i libucrt:wcstombs.obj
 0001:0001ccb6       ?update_locale_slow@__crt_cached_ptd_host@@AAEXXZ 1001dcb6 f i libucrt:wcstombs.obj
 0001:0001cd0f       ?value_or@?$cached@H@__crt_cached_ptd_host@@QBEHH@Z 1001dd0f f i libucrt:wcstombs.obj
 0001:0001cd53       __wcstombs_l               1001dd53 f   libucrt:wcstombs.obj
 0001:0001cd8b       __wcstombs_s_l             1001dd8b f   libucrt:wcstombs.obj
 0001:0001cdc9       _wcstombs                  1001ddc9 f   libucrt:wcstombs.obj
 0001:0001ce00       _wcstombs_s                1001de00 f   libucrt:wcstombs.obj
 0001:0001ce3d       ??$?0ABV?$stream_output_adapter@D@__crt_stdio_output@@AB_KABQBDAAV__crt_cached_ptd_host@@ABQAD@?$format_validation_base@DV?$stream_output_adapter@D@__crt_stdio_output@@@__crt_stdio_output@@IAE@ABV?$stream_output_adapter@D@1@AB_KABQBDAAV__crt_cached_ptd_host@@ABQAD@Z 1001de3d f i libucrt:output.obj
 0001:0001ce60       ??$?0ABV?$stream_output_adapter@D@__crt_stdio_output@@AB_KABQBDAAV__crt_cached_ptd_host@@ABQAD@?$positional_parameter_base@DV?$stream_output_adapter@D@__crt_stdio_output@@@__crt_stdio_output@@IAE@ABV?$stream_output_adapter@D@1@AB_KABQBDAAV__crt_cached_ptd_host@@ABQAD@Z 1001de60 f i libucrt:output.obj
 0001:0001cea8       ??$?0ABV?$stream_output_adapter@D@__crt_stdio_output@@AB_KABQBDAAV__crt_cached_ptd_host@@ABQAD@?$standard_base@DV?$stream_output_adapter@D@__crt_stdio_output@@@__crt_stdio_output@@IAE@ABV?$stream_output_adapter@D@1@AB_KABQBDAAV__crt_cached_ptd_host@@ABQAD@Z 1001dea8 f i libucrt:output.obj
 0001:0001cedb       ??$?0ABV?$stream_output_adapter@_W@__crt_stdio_output@@AB_KABQB_WAAV__crt_cached_ptd_host@@ABQAD@?$format_validation_base@_WV?$stream_output_adapter@_W@__crt_stdio_output@@@__crt_stdio_output@@IAE@ABV?$stream_output_adapter@_W@1@AB_KABQB_WAAV__crt_cached_ptd_host@@ABQAD@Z 1001dedb f i libucrt:output.obj
 0001:0001cefe       ??$?0ABV?$stream_output_adapter@_W@__crt_stdio_output@@AB_KABQB_WAAV__crt_cached_ptd_host@@ABQAD@?$positional_parameter_base@_WV?$stream_output_adapter@_W@__crt_stdio_output@@@__crt_stdio_output@@IAE@ABV?$stream_output_adapter@_W@1@AB_KABQB_WAAV__crt_cached_ptd_host@@ABQAD@Z 1001defe f i libucrt:output.obj
 0001:0001cf46       ??$?0ABV?$stream_output_adapter@_W@__crt_stdio_output@@AB_KABQB_WAAV__crt_cached_ptd_host@@ABQAD@?$standard_base@_WV?$stream_output_adapter@_W@__crt_stdio_output@@@__crt_stdio_output@@IAE@ABV?$stream_output_adapter@_W@1@AB_KABQB_WAAV__crt_cached_ptd_host@@ABQAD@Z 1001df46 f i libucrt:output.obj
 0001:0001cf79       ??$?0ABV?$string_output_adapter@D@__crt_stdio_output@@AB_KABQBDAAV__crt_cached_ptd_host@@ABQAD@?$format_validation_base@DV?$string_output_adapter@D@__crt_stdio_output@@@__crt_stdio_output@@IAE@ABV?$string_output_adapter@D@1@AB_KABQBDAAV__crt_cached_ptd_host@@ABQAD@Z 1001df79 f i libucrt:output.obj
 0001:0001cf9c       ??$?0ABV?$string_output_adapter@D@__crt_stdio_output@@AB_KABQBDAAV__crt_cached_ptd_host@@ABQAD@?$positional_parameter_base@DV?$string_output_adapter@D@__crt_stdio_output@@@__crt_stdio_output@@IAE@ABV?$string_output_adapter@D@1@AB_KABQBDAAV__crt_cached_ptd_host@@ABQAD@Z 1001df9c f i libucrt:output.obj
 0001:0001cfe4       ??$?0ABV?$string_output_adapter@D@__crt_stdio_output@@AB_KABQBDAAV__crt_cached_ptd_host@@ABQAD@?$standard_base@DV?$string_output_adapter@D@__crt_stdio_output@@@__crt_stdio_output@@IAE@ABV?$string_output_adapter@D@1@AB_KABQBDAAV__crt_cached_ptd_host@@ABQAD@Z 1001dfe4 f i libucrt:output.obj
 0001:0001d017       ??$?0ABV?$string_output_adapter@_W@__crt_stdio_output@@AB_KABQB_WAAV__crt_cached_ptd_host@@ABQAD@?$format_validation_base@_WV?$string_output_adapter@_W@__crt_stdio_output@@@__crt_stdio_output@@IAE@ABV?$string_output_adapter@_W@1@AB_KABQB_WAAV__crt_cached_ptd_host@@ABQAD@Z 1001e017 f i libucrt:output.obj
 0001:0001d03a       ??$?0ABV?$string_output_adapter@_W@__crt_stdio_output@@AB_KABQB_WAAV__crt_cached_ptd_host@@ABQAD@?$positional_parameter_base@_WV?$string_output_adapter@_W@__crt_stdio_output@@@__crt_stdio_output@@IAE@ABV?$string_output_adapter@_W@1@AB_KABQB_WAAV__crt_cached_ptd_host@@ABQAD@Z 1001e03a f i libucrt:output.obj
 0001:0001d082       ??$?0ABV?$string_output_adapter@_W@__crt_stdio_output@@AB_KABQB_WAAV__crt_cached_ptd_host@@ABQAD@?$standard_base@_WV?$string_output_adapter@_W@__crt_stdio_output@@@__crt_stdio_output@@IAE@ABV?$string_output_adapter@_W@1@AB_KABQB_WAAV__crt_cached_ptd_host@@ABQAD@Z 1001e082 f i libucrt:output.obj
 0001:0001d3bb       ??$__crt_interlocked_read@J@@YAJPDJ@Z 1001e3bb f i libucrt:output.obj
 0001:0001d3c8       ??$_tcstol_internal@DPAPAD$0A@@@YAJAAV__crt_cached_ptd_host@@QBDQAPADH@Z 1001e3c8 f i libucrt:output.obj
 0001:0001d3f3       ??$_tcstol_internal@_WPAPA_W$0A@@@YAJAAV__crt_cached_ptd_host@@QB_WQAPA_WH@Z 1001e3f3 f i libucrt:output.obj
 0001:0001e34d       ??$count@D@formatting_buffer@__crt_stdio_output@@QBEIXZ 1001f34d f i libucrt:output.obj
 0001:0001e365       ??$count@_W@formatting_buffer@__crt_stdio_output@@QBEIXZ 1001f365 f i libucrt:output.obj
 0001:0001e37e       ??$data@D@formatting_buffer@__crt_stdio_output@@QAEPADXZ 1001f37e f i libucrt:output.obj
 0001:0001e38b       ??$data@_W@formatting_buffer@__crt_stdio_output@@QAEPA_WXZ 1001f38b f i libucrt:output.obj
 0001:0001e398       ??$ensure_buffer_is_big_enough@D@formatting_buffer@__crt_stdio_output@@QAE_NIAAV__crt_cached_ptd_host@@@Z 1001f398 f i libucrt:output.obj
 0001:0001e419       ??$ensure_buffer_is_big_enough@_W@formatting_buffer@__crt_stdio_output@@QAE_NIAAV__crt_cached_ptd_host@@@Z 1001f419 f i libucrt:output.obj
 0001:0001e49b       ??$extract_argument_from_va_list@C_J@?$positional_parameter_base@DV?$stream_output_adapter@D@__crt_stdio_output@@@__crt_stdio_output@@IAE_NAA_J@Z 1001f49b f i libucrt:output.obj
 0001:0001e523       ??$extract_argument_from_va_list@C_J@?$positional_parameter_base@DV?$string_output_adapter@D@__crt_stdio_output@@@__crt_stdio_output@@IAE_NAA_J@Z 1001f523 f i libucrt:output.obj
 0001:0001e5ab       ??$extract_argument_from_va_list@C_J@?$positional_parameter_base@_WV?$stream_output_adapter@_W@__crt_stdio_output@@@__crt_stdio_output@@IAE_NAA_J@Z 1001f5ab f i libucrt:output.obj
 0001:0001e634       ??$extract_argument_from_va_list@C_J@?$positional_parameter_base@_WV?$string_output_adapter@_W@__crt_stdio_output@@@__crt_stdio_output@@IAE_NAA_J@Z 1001f634 f i libucrt:output.obj
 0001:0001e6bd       ??$extract_argument_from_va_list@C_J@?$standard_base@DV?$stream_output_adapter@D@__crt_stdio_output@@@__crt_stdio_output@@IAE_NAA_J@Z 1001f6bd f i libucrt:output.obj
 0001:0001e6dc       ??$extract_argument_from_va_list@C_J@?$standard_base@DV?$string_output_adapter@D@__crt_stdio_output@@@__crt_stdio_output@@IAE_NAA_J@Z 1001f6dc f i libucrt:output.obj
 0001:0001e6fb       ??$extract_argument_from_va_list@C_J@?$standard_base@_WV?$stream_output_adapter@_W@__crt_stdio_output@@@__crt_stdio_output@@IAE_NAA_J@Z 1001f6fb f i libucrt:output.obj
 0001:0001e71a       ??$extract_argument_from_va_list@C_J@?$standard_base@_WV?$string_output_adapter@_W@__crt_stdio_output@@@__crt_stdio_output@@IAE_NAA_J@Z 1001f71a f i libucrt:output.obj
 0001:0001e739       ??$extract_argument_from_va_list@E_J@?$positional_parameter_base@DV?$stream_output_adapter@D@__crt_stdio_output@@@__crt_stdio_output@@IAE_NAA_J@Z 1001f739 f i libucrt:output.obj
 0001:0001e7c1       ??$extract_argument_from_va_list@E_J@?$positional_parameter_base@DV?$string_output_adapter@D@__crt_stdio_output@@@__crt_stdio_output@@IAE_NAA_J@Z 1001f7c1 f i libucrt:output.obj
 0001:0001e849       ??$extract_argument_from_va_list@E_J@?$positional_parameter_base@_WV?$stream_output_adapter@_W@__crt_stdio_output@@@__crt_stdio_output@@IAE_NAA_J@Z 1001f849 f i libucrt:output.obj
 0001:0001e8d2       ??$extract_argument_from_va_list@E_J@?$positional_parameter_base@_WV?$string_output_adapter@_W@__crt_stdio_output@@@__crt_stdio_output@@IAE_NAA_J@Z 1001f8d2 f i libucrt:output.obj
 0001:0001e95b       ??$extract_argument_from_va_list@E_J@?$standard_base@DV?$stream_output_adapter@D@__crt_stdio_output@@@__crt_stdio_output@@IAE_NAA_J@Z 1001f95b f i libucrt:output.obj
 0001:0001e97a       ??$extract_argument_from_va_list@E_J@?$standard_base@DV?$string_output_adapter@D@__crt_stdio_output@@@__crt_stdio_output@@IAE_NAA_J@Z 1001f97a f i libucrt:output.obj
 0001:0001e999       ??$extract_argument_from_va_list@E_J@?$standard_base@_WV?$stream_output_adapter@_W@__crt_stdio_output@@@__crt_stdio_output@@IAE_NAA_J@Z 1001f999 f i libucrt:output.obj
 0001:0001e9b8       ??$extract_argument_from_va_list@E_J@?$standard_base@_WV?$string_output_adapter@_W@__crt_stdio_output@@@__crt_stdio_output@@IAE_NAA_J@Z 1001f9b8 f i libucrt:output.obj
 0001:0001e9d7       ??$extract_argument_from_va_list@F_J@?$positional_parameter_base@DV?$stream_output_adapter@D@__crt_stdio_output@@@__crt_stdio_output@@IAE_NAA_J@Z 1001f9d7 f i libucrt:output.obj
 0001:0001ea5f       ??$extract_argument_from_va_list@F_J@?$positional_parameter_base@DV?$string_output_adapter@D@__crt_stdio_output@@@__crt_stdio_output@@IAE_NAA_J@Z 1001fa5f f i libucrt:output.obj
 0001:0001eae7       ??$extract_argument_from_va_list@F_J@?$positional_parameter_base@_WV?$stream_output_adapter@_W@__crt_stdio_output@@@__crt_stdio_output@@IAE_NAA_J@Z 1001fae7 f i libucrt:output.obj
 0001:0001eb70       ??$extract_argument_from_va_list@F_J@?$positional_parameter_base@_WV?$string_output_adapter@_W@__crt_stdio_output@@@__crt_stdio_output@@IAE_NAA_J@Z 1001fb70 f i libucrt:output.obj
 0001:0001ebf9       ??$extract_argument_from_va_list@F_J@?$standard_base@DV?$stream_output_adapter@D@__crt_stdio_output@@@__crt_stdio_output@@IAE_NAA_J@Z 1001fbf9 f i libucrt:output.obj
 0001:0001ec18       ??$extract_argument_from_va_list@F_J@?$standard_base@DV?$string_output_adapter@D@__crt_stdio_output@@@__crt_stdio_output@@IAE_NAA_J@Z 1001fc18 f i libucrt:output.obj
 0001:0001ec37       ??$extract_argument_from_va_list@F_J@?$standard_base@_WV?$stream_output_adapter@_W@__crt_stdio_output@@@__crt_stdio_output@@IAE_NAA_J@Z 1001fc37 f i libucrt:output.obj
 0001:0001ec56       ??$extract_argument_from_va_list@F_J@?$standard_base@_WV?$string_output_adapter@_W@__crt_stdio_output@@@__crt_stdio_output@@IAE_NAA_J@Z 1001fc56 f i libucrt:output.obj
 0001:0001ec75       ??$extract_argument_from_va_list@GD@?$positional_parameter_base@DV?$stream_output_adapter@D@__crt_stdio_output@@@__crt_stdio_output@@IAE_NAAD@Z 1001fc75 f i libucrt:output.obj
 0001:0001ecfc       ??$extract_argument_from_va_list@GD@?$positional_parameter_base@DV?$string_output_adapter@D@__crt_stdio_output@@@__crt_stdio_output@@IAE_NAAD@Z 1001fcfc f i libucrt:output.obj
 0001:0001ed83       ??$extract_argument_from_va_list@GD@?$standard_base@DV?$stream_output_adapter@D@__crt_stdio_output@@@__crt_stdio_output@@IAE_NAAD@Z 1001fd83 f i libucrt:output.obj
 0001:0001ed9d       ??$extract_argument_from_va_list@GD@?$standard_base@DV?$string_output_adapter@D@__crt_stdio_output@@@__crt_stdio_output@@IAE_NAAD@Z 1001fd9d f i libucrt:output.obj
 0001:0001edb7       ??$extract_argument_from_va_list@G_J@?$positional_parameter_base@DV?$stream_output_adapter@D@__crt_stdio_output@@@__crt_stdio_output@@IAE_NAA_J@Z 1001fdb7 f i libucrt:output.obj
 0001:0001ee3f       ??$extract_argument_from_va_list@G_J@?$positional_parameter_base@DV?$string_output_adapter@D@__crt_stdio_output@@@__crt_stdio_output@@IAE_NAA_J@Z 1001fe3f f i libucrt:output.obj
 0001:0001eec7       ??$extract_argument_from_va_list@G_J@?$positional_parameter_base@_WV?$stream_output_adapter@_W@__crt_stdio_output@@@__crt_stdio_output@@IAE_NAA_J@Z 1001fec7 f i libucrt:output.obj
 0001:0001ef50       ??$extract_argument_from_va_list@G_J@?$positional_parameter_base@_WV?$string_output_adapter@_W@__crt_stdio_output@@@__crt_stdio_output@@IAE_NAA_J@Z 1001ff50 f i libucrt:output.obj
 0001:0001efd9       ??$extract_argument_from_va_list@G_J@?$standard_base@DV?$stream_output_adapter@D@__crt_stdio_output@@@__crt_stdio_output@@IAE_NAA_J@Z 1001ffd9 f i libucrt:output.obj
 0001:0001eff8       ??$extract_argument_from_va_list@G_J@?$standard_base@DV?$string_output_adapter@D@__crt_stdio_output@@@__crt_stdio_output@@IAE_NAA_J@Z 1001fff8 f i libucrt:output.obj
 0001:0001f017       ??$extract_argument_from_va_list@G_J@?$standard_base@_WV?$stream_output_adapter@_W@__crt_stdio_output@@@__crt_stdio_output@@IAE_NAA_J@Z 10020017 f i libucrt:output.obj
 0001:0001f036       ??$extract_argument_from_va_list@G_J@?$standard_base@_WV?$string_output_adapter@_W@__crt_stdio_output@@@__crt_stdio_output@@IAE_NAA_J@Z 10020036 f i libucrt:output.obj
 0001:0001f055       ??$extract_argument_from_va_list@H_J@?$positional_parameter_base@DV?$stream_output_adapter@D@__crt_stdio_output@@@__crt_stdio_output@@IAE_NAA_J@Z 10020055 f i libucrt:output.obj
 0001:0001f0db       ??$extract_argument_from_va_list@H_J@?$positional_parameter_base@DV?$string_output_adapter@D@__crt_stdio_output@@@__crt_stdio_output@@IAE_NAA_J@Z 100200db f i libucrt:output.obj
 0001:0001f161       ??$extract_argument_from_va_list@H_J@?$positional_parameter_base@_WV?$stream_output_adapter@_W@__crt_stdio_output@@@__crt_stdio_output@@IAE_NAA_J@Z 10020161 f i libucrt:output.obj
 0001:0001f1e8       ??$extract_argument_from_va_list@H_J@?$positional_parameter_base@_WV?$string_output_adapter@_W@__crt_stdio_output@@@__crt_stdio_output@@IAE_NAA_J@Z 100201e8 f i libucrt:output.obj
 0001:0001f26f       ??$extract_argument_from_va_list@H_J@?$standard_base@DV?$stream_output_adapter@D@__crt_stdio_output@@@__crt_stdio_output@@IAE_NAA_J@Z 1002026f f i libucrt:output.obj
 0001:0001f28d       ??$extract_argument_from_va_list@H_J@?$standard_base@DV?$string_output_adapter@D@__crt_stdio_output@@@__crt_stdio_output@@IAE_NAA_J@Z 1002028d f i libucrt:output.obj
 0001:0001f2ab       ??$extract_argument_from_va_list@H_J@?$standard_base@_WV?$stream_output_adapter@_W@__crt_stdio_output@@@__crt_stdio_output@@IAE_NAA_J@Z 100202ab f i libucrt:output.obj
 0001:0001f2c9       ??$extract_argument_from_va_list@H_J@?$standard_base@_WV?$string_output_adapter@_W@__crt_stdio_output@@@__crt_stdio_output@@IAE_NAA_J@Z 100202c9 f i libucrt:output.obj
 0001:0001f2e7       ??$extract_argument_from_va_list@I_J@?$positional_parameter_base@DV?$stream_output_adapter@D@__crt_stdio_output@@@__crt_stdio_output@@IAE_NAA_J@Z 100202e7 f i libucrt:output.obj
 0001:0001f376       ??$extract_argument_from_va_list@I_J@?$positional_parameter_base@DV?$string_output_adapter@D@__crt_stdio_output@@@__crt_stdio_output@@IAE_NAA_J@Z 10020376 f i libucrt:output.obj
 0001:0001f405       ??$extract_argument_from_va_list@I_J@?$positional_parameter_base@_WV?$stream_output_adapter@_W@__crt_stdio_output@@@__crt_stdio_output@@IAE_NAA_J@Z 10020405 f i libucrt:output.obj
 0001:0001f495       ??$extract_argument_from_va_list@I_J@?$positional_parameter_base@_WV?$string_output_adapter@_W@__crt_stdio_output@@@__crt_stdio_output@@IAE_NAA_J@Z 10020495 f i libucrt:output.obj
 0001:0001f525       ??$extract_argument_from_va_list@I_J@?$standard_base@DV?$stream_output_adapter@D@__crt_stdio_output@@@__crt_stdio_output@@IAE_NAA_J@Z 10020525 f i libucrt:output.obj
 0001:0001f543       ??$extract_argument_from_va_list@I_J@?$standard_base@DV?$string_output_adapter@D@__crt_stdio_output@@@__crt_stdio_output@@IAE_NAA_J@Z 10020543 f i libucrt:output.obj
 0001:0001f561       ??$extract_argument_from_va_list@I_J@?$standard_base@_WV?$stream_output_adapter@_W@__crt_stdio_output@@@__crt_stdio_output@@IAE_NAA_J@Z 10020561 f i libucrt:output.obj
 0001:0001f57f       ??$extract_argument_from_va_list@I_J@?$standard_base@_WV?$string_output_adapter@_W@__crt_stdio_output@@@__crt_stdio_output@@IAE_NAA_J@Z 1002057f f i libucrt:output.obj
 0001:0001f59d       ??$extract_argument_from_va_list@PADPAD@?$positional_parameter_base@DV?$stream_output_adapter@D@__crt_stdio_output@@@__crt_stdio_output@@IAE_NAAPAD@Z 1002059d f i libucrt:output.obj
 0001:0001f624       ??$extract_argument_from_va_list@PADPAD@?$positional_parameter_base@DV?$string_output_adapter@D@__crt_stdio_output@@@__crt_stdio_output@@IAE_NAAPAD@Z 10020624 f i libucrt:output.obj
 0001:0001f6ab       ??$extract_argument_from_va_list@PADPAD@?$positional_parameter_base@_WV?$stream_output_adapter@_W@__crt_stdio_output@@@__crt_stdio_output@@IAE_NAAPAD@Z 100206ab f i libucrt:output.obj
 0001:0001f733       ??$extract_argument_from_va_list@PADPAD@?$positional_parameter_base@_WV?$string_output_adapter@_W@__crt_stdio_output@@@__crt_stdio_output@@IAE_NAAPAD@Z 10020733 f i libucrt:output.obj
 0001:0001f7bb       ??$extract_argument_from_va_list@PADPAD@?$standard_base@DV?$stream_output_adapter@D@__crt_stdio_output@@@__crt_stdio_output@@IAE_NAAPAD@Z 100207bb f i libucrt:output.obj
 0001:0001f7d5       ??$extract_argument_from_va_list@PADPAD@?$standard_base@DV?$string_output_adapter@D@__crt_stdio_output@@@__crt_stdio_output@@IAE_NAAPAD@Z 100207d5 f i libucrt:output.obj
 0001:0001f7ef       ??$extract_argument_from_va_list@PADPAD@?$standard_base@_WV?$stream_output_adapter@_W@__crt_stdio_output@@@__crt_stdio_output@@IAE_NAAPAD@Z 100207ef f i libucrt:output.obj
 0001:0001f809       ??$extract_argument_from_va_list@PADPAD@?$standard_base@_WV?$string_output_adapter@_W@__crt_stdio_output@@@__crt_stdio_output@@IAE_NAAPAD@Z 10020809 f i libucrt:output.obj
 0001:0001f823       ??$extract_argument_from_va_list@PAUansi_string@?1??type_case_Z@?$output_processor@DV?$stream_output_adapter@D@__crt_stdio_output@@V?$format_validation_base@DV?$stream_output_adapter@D@__crt_stdio_output@@@2@@__crt_stdio_output@@AAE_NXZ@PAU1?1??234@AAE_NXZ@@?$standard_base@DV?$stream_output_adapter@D@__crt_stdio_output@@@__crt_stdio_output@@IAE_NAAPAUansi_string@?1??type_case_Z@?$output_processor@DV?$stream_output_adapter@D@__crt_stdio_output@@V?$format_validation_base@DV?$stream_output_adapter@D@__crt_stdio_output@@@2@@1@AAE_NXZ@@Z 10020823 f i libucrt:output.obj
 0001:0001f83d       ??$extract_argument_from_va_list@PAUansi_string@?1??type_case_Z@?$output_processor@DV?$stream_output_adapter@D@__crt_stdio_output@@V?$positional_parameter_base@DV?$stream_output_adapter@D@__crt_stdio_output@@@2@@__crt_stdio_output@@AAE_NXZ@PAU1?1??234@AAE_NXZ@@?$positional_parameter_base@DV?$stream_output_adapter@D@__crt_stdio_output@@@__crt_stdio_output@@IAE_NAAPAUansi_string@?1??type_case_Z@?$output_processor@DV?$stream_output_adapter@D@__crt_stdio_output@@V?$positional_parameter_base@DV?$stream_output_adapter@D@__crt_stdio_output@@@2@@1@AAE_NXZ@@Z 1002083d f i libucrt:output.obj
 0001:0001f8c4       ??$extract_argument_from_va_list@PAUansi_string@?1??type_case_Z@?$output_processor@DV?$stream_output_adapter@D@__crt_stdio_output@@V?$positional_parameter_base@DV?$stream_output_adapter@D@__crt_stdio_output@@@2@@__crt_stdio_output@@AAE_NXZ@PAU1?1??234@AAE_NXZ@@?$standard_base@DV?$stream_output_adapter@D@__crt_stdio_output@@@__crt_stdio_output@@IAE_NAAPAUansi_string@?1??type_case_Z@?$output_processor@DV?$stream_output_adapter@D@__crt_stdio_output@@V?$positional_parameter_base@DV?$stream_output_adapter@D@__crt_stdio_output@@@2@@1@AAE_NXZ@@Z 100208c4 f i libucrt:output.obj
 0001:0001f8de       ??$extract_argument_from_va_list@PAUansi_string@?1??type_case_Z@?$output_processor@DV?$stream_output_adapter@D@__crt_stdio_output@@V?$standard_base@DV?$stream_output_adapter@D@__crt_stdio_output@@@2@@__crt_stdio_output@@AAE_NXZ@PAU1?1??234@AAE_NXZ@@?$standard_base@DV?$stream_output_adapter@D@__crt_stdio_output@@@__crt_stdio_output@@IAE_NAAPAUansi_string@?1??type_case_Z@?$output_processor@DV?$stream_output_adapter@D@__crt_stdio_output@@V?$standard_base@DV?$stream_output_adapter@D@__crt_stdio_output@@@2@@1@AAE_NXZ@@Z 100208de f i libucrt:output.obj
 0001:0001f8f8       ??$extract_argument_from_va_list@PAUansi_string@?1??type_case_Z@?$output_processor@DV?$string_output_adapter@D@__crt_stdio_output@@V?$format_validation_base@DV?$string_output_adapter@D@__crt_stdio_output@@@2@@__crt_stdio_output@@AAE_NXZ@PAU1?1??234@AAE_NXZ@@?$standard_base@DV?$string_output_adapter@D@__crt_stdio_output@@@__crt_stdio_output@@IAE_NAAPAUansi_string@?1??type_case_Z@?$output_processor@DV?$string_output_adapter@D@__crt_stdio_output@@V?$format_validation_base@DV?$string_output_adapter@D@__crt_stdio_output@@@2@@1@AAE_NXZ@@Z 100208f8 f i libucrt:output.obj
 0001:0001f912       ??$extract_argument_from_va_list@PAUansi_string@?1??type_case_Z@?$output_processor@DV?$string_output_adapter@D@__crt_stdio_output@@V?$positional_parameter_base@DV?$string_output_adapter@D@__crt_stdio_output@@@2@@__crt_stdio_output@@AAE_NXZ@PAU1?1??234@AAE_NXZ@@?$positional_parameter_base@DV?$string_output_adapter@D@__crt_stdio_output@@@__crt_stdio_output@@IAE_NAAPAUansi_string@?1??type_case_Z@?$output_processor@DV?$string_output_adapter@D@__crt_stdio_output@@V?$positional_parameter_base@DV?$string_output_adapter@D@__crt_stdio_output@@@2@@1@AAE_NXZ@@Z 10020912 f i libucrt:output.obj
 0001:0001f999       ??$extract_argument_from_va_list@PAUansi_string@?1??type_case_Z@?$output_processor@DV?$string_output_adapter@D@__crt_stdio_output@@V?$positional_parameter_base@DV?$string_output_adapter@D@__crt_stdio_output@@@2@@__crt_stdio_output@@AAE_NXZ@PAU1?1??234@AAE_NXZ@@?$standard_base@DV?$string_output_adapter@D@__crt_stdio_output@@@__crt_stdio_output@@IAE_NAAPAUansi_string@?1??type_case_Z@?$output_processor@DV?$string_output_adapter@D@__crt_stdio_output@@V?$positional_parameter_base@DV?$string_output_adapter@D@__crt_stdio_output@@@2@@1@AAE_NXZ@@Z 10020999 f i libucrt:output.obj
 0001:0001f9b3       ??$extract_argument_from_va_list@PAUansi_string@?1??type_case_Z@?$output_processor@DV?$string_output_adapter@D@__crt_stdio_output@@V?$standard_base@DV?$string_output_adapter@D@__crt_stdio_output@@@2@@__crt_stdio_output@@AAE_NXZ@PAU1?1??234@AAE_NXZ@@?$standard_base@DV?$string_output_adapter@D@__crt_stdio_output@@@__crt_stdio_output@@IAE_NAAPAUansi_string@?1??type_case_Z@?$output_processor@DV?$string_output_adapter@D@__crt_stdio_output@@V?$standard_base@DV?$string_output_adapter@D@__crt_stdio_output@@@2@@1@AAE_NXZ@@Z 100209b3 f i libucrt:output.obj
 0001:0001f9cd       ??$extract_argument_from_va_list@PAUansi_string@?1??type_case_Z@?$output_processor@_WV?$stream_output_adapter@_W@__crt_stdio_output@@V?$format_validation_base@_WV?$stream_output_adapter@_W@__crt_stdio_output@@@2@@__crt_stdio_output@@AAE_NXZ@PAU1?1??234@AAE_NXZ@@?$standard_base@_WV?$stream_output_adapter@_W@__crt_stdio_output@@@__crt_stdio_output@@IAE_NAAPAUansi_string@?1??type_case_Z@?$output_processor@_WV?$stream_output_adapter@_W@__crt_stdio_output@@V?$format_validation_base@_WV?$stream_output_adapter@_W@__crt_stdio_output@@@2@@1@AAE_NXZ@@Z 100209cd f i libucrt:output.obj
 0001:0001f9e7       ??$extract_argument_from_va_list@PAUansi_string@?1??type_case_Z@?$output_processor@_WV?$stream_output_adapter@_W@__crt_stdio_output@@V?$positional_parameter_base@_WV?$stream_output_adapter@_W@__crt_stdio_output@@@2@@__crt_stdio_output@@AAE_NXZ@PAU1?1??234@AAE_NXZ@@?$positional_parameter_base@_WV?$stream_output_adapter@_W@__crt_stdio_output@@@__crt_stdio_output@@IAE_NAAPAUansi_string@?1??type_case_Z@?$output_processor@_WV?$stream_output_adapter@_W@__crt_stdio_output@@V?$positional_parameter_base@_WV?$stream_output_adapter@_W@__crt_stdio_output@@@2@@1@AAE_NXZ@@Z 100209e7 f i libucrt:output.obj
 0001:0001fa6f       ??$extract_argument_from_va_list@PAUansi_string@?1??type_case_Z@?$output_processor@_WV?$stream_output_adapter@_W@__crt_stdio_output@@V?$positional_parameter_base@_WV?$stream_output_adapter@_W@__crt_stdio_output@@@2@@__crt_stdio_output@@AAE_NXZ@PAU1?1??234@AAE_NXZ@@?$standard_base@_WV?$stream_output_adapter@_W@__crt_stdio_output@@@__crt_stdio_output@@IAE_NAAPAUansi_string@?1??type_case_Z@?$output_processor@_WV?$stream_output_adapter@_W@__crt_stdio_output@@V?$positional_parameter_base@_WV?$stream_output_adapter@_W@__crt_stdio_output@@@2@@1@AAE_NXZ@@Z 10020a6f f i libucrt:output.obj
 0001:0001fa89       ??$extract_argument_from_va_list@PAUansi_string@?1??type_case_Z@?$output_processor@_WV?$stream_output_adapter@_W@__crt_stdio_output@@V?$standard_base@_WV?$stream_output_adapter@_W@__crt_stdio_output@@@2@@__crt_stdio_output@@AAE_NXZ@PAU1?1??234@AAE_NXZ@@?$standard_base@_WV?$stream_output_adapter@_W@__crt_stdio_output@@@__crt_stdio_output@@IAE_NAAPAUansi_string@?1??type_case_Z@?$output_processor@_WV?$stream_output_adapter@_W@__crt_stdio_output@@V?$standard_base@_WV?$stream_output_adapter@_W@__crt_stdio_output@@@2@@1@AAE_NXZ@@Z 10020a89 f i libucrt:output.obj
 0001:0001faa3       ??$extract_argument_from_va_list@PAUansi_string@?1??type_case_Z@?$output_processor@_WV?$string_output_adapter@_W@__crt_stdio_output@@V?$format_validation_base@_WV?$string_output_adapter@_W@__crt_stdio_output@@@2@@__crt_stdio_output@@AAE_NXZ@PAU1?1??234@AAE_NXZ@@?$standard_base@_WV?$string_output_adapter@_W@__crt_stdio_output@@@__crt_stdio_output@@IAE_NAAPAUansi_string@?1??type_case_Z@?$output_processor@_WV?$string_output_adapter@_W@__crt_stdio_output@@V?$format_validation_base@_WV?$string_output_adapter@_W@__crt_stdio_output@@@2@@1@AAE_NXZ@@Z 10020aa3 f i libucrt:output.obj
 0001:0001fabd       ??$extract_argument_from_va_list@PAUansi_string@?1??type_case_Z@?$output_processor@_WV?$string_output_adapter@_W@__crt_stdio_output@@V?$positional_parameter_base@_WV?$string_output_adapter@_W@__crt_stdio_output@@@2@@__crt_stdio_output@@AAE_NXZ@PAU1?1??234@AAE_NXZ@@?$positional_parameter_base@_WV?$string_output_adapter@_W@__crt_stdio_output@@@__crt_stdio_output@@IAE_NAAPAUansi_string@?1??type_case_Z@?$output_processor@_WV?$string_output_adapter@_W@__crt_stdio_output@@V?$positional_parameter_base@_WV?$string_output_adapter@_W@__crt_stdio_output@@@2@@1@AAE_NXZ@@Z 10020abd f i libucrt:output.obj
 0001:0001fb45       ??$extract_argument_from_va_list@PAUansi_string@?1??type_case_Z@?$output_processor@_WV?$string_output_adapter@_W@__crt_stdio_output@@V?$positional_parameter_base@_WV?$string_output_adapter@_W@__crt_stdio_output@@@2@@__crt_stdio_output@@AAE_NXZ@PAU1?1??234@AAE_NXZ@@?$standard_base@_WV?$string_output_adapter@_W@__crt_stdio_output@@@__crt_stdio_output@@IAE_NAAPAUansi_string@?1??type_case_Z@?$output_processor@_WV?$string_output_adapter@_W@__crt_stdio_output@@V?$positional_parameter_base@_WV?$string_output_adapter@_W@__crt_stdio_output@@@2@@1@AAE_NXZ@@Z 10020b45 f i libucrt:output.obj
 0001:0001fb5f       ??$extract_argument_from_va_list@PAUansi_string@?1??type_case_Z@?$output_processor@_WV?$string_output_adapter@_W@__crt_stdio_output@@V?$standard_base@_WV?$string_output_adapter@_W@__crt_stdio_output@@@2@@__crt_stdio_output@@AAE_NXZ@PAU1?1??234@AAE_NXZ@@?$standard_base@_WV?$string_output_adapter@_W@__crt_stdio_output@@@__crt_stdio_output@@IAE_NAAPAUansi_string@?1??type_case_Z@?$output_processor@_WV?$string_output_adapter@_W@__crt_stdio_output@@V?$standard_base@_WV?$string_output_adapter@_W@__crt_stdio_output@@@2@@1@AAE_NXZ@@Z 10020b5f f i libucrt:output.obj
 0001:0001fb79       ??$extract_argument_from_va_list@PAXPAX@?$positional_parameter_base@DV?$stream_output_adapter@D@__crt_stdio_output@@@__crt_stdio_output@@IAE_NAAPAX@Z 10020b79 f i libucrt:output.obj
 0001:0001fc00       ??$extract_argument_from_va_list@PAXPAX@?$positional_parameter_base@DV?$string_output_adapter@D@__crt_stdio_output@@@__crt_stdio_output@@IAE_NAAPAX@Z 10020c00 f i libucrt:output.obj
 0001:0001fc87       ??$extract_argument_from_va_list@PAXPAX@?$positional_parameter_base@_WV?$stream_output_adapter@_W@__crt_stdio_output@@@__crt_stdio_output@@IAE_NAAPAX@Z 10020c87 f i libucrt:output.obj
 0001:0001fd0f       ??$extract_argument_from_va_list@PAXPAX@?$positional_parameter_base@_WV?$string_output_adapter@_W@__crt_stdio_output@@@__crt_stdio_output@@IAE_NAAPAX@Z 10020d0f f i libucrt:output.obj
 0001:0001fd97       ??$extract_argument_from_va_list@PAXPAX@?$standard_base@DV?$stream_output_adapter@D@__crt_stdio_output@@@__crt_stdio_output@@IAE_NAAPAX@Z 10020d97 f i libucrt:output.obj
 0001:0001fdb1       ??$extract_argument_from_va_list@PAXPAX@?$standard_base@DV?$string_output_adapter@D@__crt_stdio_output@@@__crt_stdio_output@@IAE_NAAPAX@Z 10020db1 f i libucrt:output.obj
 0001:0001fdcb       ??$extract_argument_from_va_list@PAXPAX@?$standard_base@_WV?$stream_output_adapter@_W@__crt_stdio_output@@@__crt_stdio_output@@IAE_NAAPAX@Z 10020dcb f i libucrt:output.obj
 0001:0001fde5       ??$extract_argument_from_va_list@PAXPAX@?$standard_base@_WV?$string_output_adapter@_W@__crt_stdio_output@@@__crt_stdio_output@@IAE_NAAPAX@Z 10020de5 f i libucrt:output.obj
 0001:0001fdff       ??$extract_argument_from_va_list@U_CRT_DOUBLE@@U1@@?$positional_parameter_base@DV?$stream_output_adapter@D@__crt_stdio_output@@@__crt_stdio_output@@IAE_NAAU_CRT_DOUBLE@@@Z 10020dff f i libucrt:output.obj
 0001:0001fe94       ??$extract_argument_from_va_list@U_CRT_DOUBLE@@U1@@?$positional_parameter_base@DV?$string_output_adapter@D@__crt_stdio_output@@@__crt_stdio_output@@IAE_NAAU_CRT_DOUBLE@@@Z 10020e94 f i libucrt:output.obj
 0001:0001ff29       ??$extract_argument_from_va_list@U_CRT_DOUBLE@@U1@@?$positional_parameter_base@_WV?$stream_output_adapter@_W@__crt_stdio_output@@@__crt_stdio_output@@IAE_NAAU_CRT_DOUBLE@@@Z 10020f29 f i libucrt:output.obj
 0001:0001ffbf       ??$extract_argument_from_va_list@U_CRT_DOUBLE@@U1@@?$positional_parameter_base@_WV?$string_output_adapter@_W@__crt_stdio_output@@@__crt_stdio_output@@IAE_NAAU_CRT_DOUBLE@@@Z 10020fbf f i libucrt:output.obj
 0001:00020055       ??$extract_argument_from_va_list@U_CRT_DOUBLE@@U1@@?$standard_base@DV?$stream_output_adapter@D@__crt_stdio_output@@@__crt_stdio_output@@IAE_NAAU_CRT_DOUBLE@@@Z 10021055 f i libucrt:output.obj
 0001:00020075       ??$extract_argument_from_va_list@U_CRT_DOUBLE@@U1@@?$standard_base@DV?$string_output_adapter@D@__crt_stdio_output@@@__crt_stdio_output@@IAE_NAAU_CRT_DOUBLE@@@Z 10021075 f i libucrt:output.obj
 0001:00020095       ??$extract_argument_from_va_list@U_CRT_DOUBLE@@U1@@?$standard_base@_WV?$stream_output_adapter@_W@__crt_stdio_output@@@__crt_stdio_output@@IAE_NAAU_CRT_DOUBLE@@@Z 10021095 f i libucrt:output.obj
 0001:000200b5       ??$extract_argument_from_va_list@U_CRT_DOUBLE@@U1@@?$standard_base@_WV?$string_output_adapter@_W@__crt_stdio_output@@@__crt_stdio_output@@IAE_NAAU_CRT_DOUBLE@@@Z 100210b5 f i libucrt:output.obj
 0001:000200d5       ??$extract_argument_from_va_list@_J_J@?$positional_parameter_base@DV?$stream_output_adapter@D@__crt_stdio_output@@@__crt_stdio_output@@IAE_NAA_J@Z 100210d5 f i libucrt:output.obj
 0001:0002016a       ??$extract_argument_from_va_list@_J_J@?$positional_parameter_base@DV?$string_output_adapter@D@__crt_stdio_output@@@__crt_stdio_output@@IAE_NAA_J@Z 1002116a f i libucrt:output.obj
 0001:000201ff       ??$extract_argument_from_va_list@_J_J@?$positional_parameter_base@_WV?$stream_output_adapter@_W@__crt_stdio_output@@@__crt_stdio_output@@IAE_NAA_J@Z 100211ff f i libucrt:output.obj
 0001:00020295       ??$extract_argument_from_va_list@_J_J@?$positional_parameter_base@_WV?$string_output_adapter@_W@__crt_stdio_output@@@__crt_stdio_output@@IAE_NAA_J@Z 10021295 f i libucrt:output.obj
 0001:0002032b       ??$extract_argument_from_va_list@_J_J@?$standard_base@DV?$stream_output_adapter@D@__crt_stdio_output@@@__crt_stdio_output@@IAE_NAA_J@Z 1002132b f i libucrt:output.obj
 0001:0002034b       ??$extract_argument_from_va_list@_J_J@?$standard_base@DV?$string_output_adapter@D@__crt_stdio_output@@@__crt_stdio_output@@IAE_NAA_J@Z 1002134b f i libucrt:output.obj
 0001:0002036b       ??$extract_argument_from_va_list@_J_J@?$standard_base@_WV?$stream_output_adapter@_W@__crt_stdio_output@@@__crt_stdio_output@@IAE_NAA_J@Z 1002136b f i libucrt:output.obj
 0001:0002038b       ??$extract_argument_from_va_list@_J_J@?$standard_base@_WV?$string_output_adapter@_W@__crt_stdio_output@@@__crt_stdio_output@@IAE_NAA_J@Z 1002138b f i libucrt:output.obj
 0001:000203ab       ??$extract_argument_from_va_list@_K_J@?$positional_parameter_base@DV?$stream_output_adapter@D@__crt_stdio_output@@@__crt_stdio_output@@IAE_NAA_J@Z 100213ab f i libucrt:output.obj
 0001:00020440       ??$extract_argument_from_va_list@_K_J@?$positional_parameter_base@DV?$string_output_adapter@D@__crt_stdio_output@@@__crt_stdio_output@@IAE_NAA_J@Z 10021440 f i libucrt:output.obj
 0001:000204d5       ??$extract_argument_from_va_list@_K_J@?$positional_parameter_base@_WV?$stream_output_adapter@_W@__crt_stdio_output@@@__crt_stdio_output@@IAE_NAA_J@Z 100214d5 f i libucrt:output.obj
 0001:0002056b       ??$extract_argument_from_va_list@_K_J@?$positional_parameter_base@_WV?$string_output_adapter@_W@__crt_stdio_output@@@__crt_stdio_output@@IAE_NAA_J@Z 1002156b f i libucrt:output.obj
 0001:00020601       ??$extract_argument_from_va_list@_K_J@?$standard_base@DV?$stream_output_adapter@D@__crt_stdio_output@@@__crt_stdio_output@@IAE_NAA_J@Z 10021601 f i libucrt:output.obj
 0001:00020621       ??$extract_argument_from_va_list@_K_J@?$standard_base@DV?$string_output_adapter@D@__crt_stdio_output@@@__crt_stdio_output@@IAE_NAA_J@Z 10021621 f i libucrt:output.obj
 0001:00020641       ??$extract_argument_from_va_list@_K_J@?$standard_base@_WV?$stream_output_adapter@_W@__crt_stdio_output@@@__crt_stdio_output@@IAE_NAA_J@Z 10021641 f i libucrt:output.obj
 0001:00020661       ??$extract_argument_from_va_list@_K_J@?$standard_base@_WV?$string_output_adapter@_W@__crt_stdio_output@@@__crt_stdio_output@@IAE_NAA_J@Z 10021661 f i libucrt:output.obj
 0001:00020681       ??$extract_argument_from_va_list@_W_W@?$positional_parameter_base@DV?$stream_output_adapter@D@__crt_stdio_output@@@__crt_stdio_output@@IAE_NAA_W@Z 10021681 f i libucrt:output.obj
 0001:0002070c       ??$extract_argument_from_va_list@_W_W@?$positional_parameter_base@DV?$string_output_adapter@D@__crt_stdio_output@@@__crt_stdio_output@@IAE_NAA_W@Z 1002170c f i libucrt:output.obj
 0001:00020797       ??$extract_argument_from_va_list@_W_W@?$positional_parameter_base@_WV?$stream_output_adapter@_W@__crt_stdio_output@@@__crt_stdio_output@@IAE_NAA_W@Z 10021797 f i libucrt:output.obj
 0001:00020823       ??$extract_argument_from_va_list@_W_W@?$positional_parameter_base@_WV?$string_output_adapter@_W@__crt_stdio_output@@@__crt_stdio_output@@IAE_NAA_W@Z 10021823 f i libucrt:output.obj
 0001:000208af       ??$extract_argument_from_va_list@_W_W@?$standard_base@DV?$stream_output_adapter@D@__crt_stdio_output@@@__crt_stdio_output@@IAE_NAA_W@Z 100218af f i libucrt:output.obj
 0001:000208cb       ??$extract_argument_from_va_list@_W_W@?$standard_base@DV?$string_output_adapter@D@__crt_stdio_output@@@__crt_stdio_output@@IAE_NAA_W@Z 100218cb f i libucrt:output.obj
 0001:000208e7       ??$extract_argument_from_va_list@_W_W@?$standard_base@_WV?$stream_output_adapter@_W@__crt_stdio_output@@@__crt_stdio_output@@IAE_NAA_W@Z 100218e7 f i libucrt:output.obj
 0001:00020903       ??$extract_argument_from_va_list@_W_W@?$standard_base@_WV?$string_output_adapter@_W@__crt_stdio_output@@@__crt_stdio_output@@IAE_NAA_W@Z 10021903 f i libucrt:output.obj
 0001:0002091f       ??$get_parameter_type@D@?$positional_parameter_base@DV?$stream_output_adapter@D@__crt_stdio_output@@@__crt_stdio_output@@CA?AW4parameter_type@01@PAD@Z 1002191f f i libucrt:output.obj
 0001:00020923       ??$get_parameter_type@D@?$positional_parameter_base@DV?$string_output_adapter@D@__crt_stdio_output@@@__crt_stdio_output@@CA?AW4parameter_type@01@PAD@Z 10021923 f i libucrt:output.obj
 0001:00020927       ??$get_parameter_type@D@?$positional_parameter_base@_WV?$stream_output_adapter@_W@__crt_stdio_output@@@__crt_stdio_output@@CA?AW4parameter_type@01@PAD@Z 10021927 f i libucrt:output.obj
 0001:0002092b       ??$get_parameter_type@D@?$positional_parameter_base@_WV?$string_output_adapter@_W@__crt_stdio_output@@@__crt_stdio_output@@CA?AW4parameter_type@01@PAD@Z 1002192b f i libucrt:output.obj
 0001:0002092f       ??$get_parameter_type@Uansi_string@?1??type_case_Z@?$output_processor@DV?$stream_output_adapter@D@__crt_stdio_output@@V?$positional_parameter_base@DV?$stream_output_adapter@D@__crt_stdio_output@@@2@@__crt_stdio_output@@AAE_NXZ@@?$positional_parameter_base@DV?$stream_output_adapter@D@__crt_stdio_output@@@__crt_stdio_output@@CA?AW4parameter_type@01@PAUansi_string@?1??type_case_Z@?$output_processor@DV?$stream_output_adapter@D@__crt_stdio_output@@V?$positional_parameter_base@DV?$stream_output_adapter@D@__crt_stdio_output@@@2@@1@AAE_NXZ@@Z 1002192f f i libucrt:output.obj
 0001:00020933       ??$get_parameter_type@Uansi_string@?1??type_case_Z@?$output_processor@DV?$string_output_adapter@D@__crt_stdio_output@@V?$positional_parameter_base@DV?$string_output_adapter@D@__crt_stdio_output@@@2@@__crt_stdio_output@@AAE_NXZ@@?$positional_parameter_base@DV?$string_output_adapter@D@__crt_stdio_output@@@__crt_stdio_output@@CA?AW4parameter_type@01@PAUansi_string@?1??type_case_Z@?$output_processor@DV?$string_output_adapter@D@__crt_stdio_output@@V?$positional_parameter_base@DV?$string_output_adapter@D@__crt_stdio_output@@@2@@1@AAE_NXZ@@Z 10021933 f i libucrt:output.obj
 0001:00020937       ??$get_parameter_type@Uansi_string@?1??type_case_Z@?$output_processor@_WV?$stream_output_adapter@_W@__crt_stdio_output@@V?$positional_parameter_base@_WV?$stream_output_adapter@_W@__crt_stdio_output@@@2@@__crt_stdio_output@@AAE_NXZ@@?$positional_parameter_base@_WV?$stream_output_adapter@_W@__crt_stdio_output@@@__crt_stdio_output@@CA?AW4parameter_type@01@PAUansi_string@?1??type_case_Z@?$output_processor@_WV?$stream_output_adapter@_W@__crt_stdio_output@@V?$positional_parameter_base@_WV?$stream_output_adapter@_W@__crt_stdio_output@@@2@@1@AAE_NXZ@@Z 10021937 f i libucrt:output.obj
 0001:0002093b       ??$get_parameter_type@Uansi_string@?1??type_case_Z@?$output_processor@_WV?$string_output_adapter@_W@__crt_stdio_output@@V?$positional_parameter_base@_WV?$string_output_adapter@_W@__crt_stdio_output@@@2@@__crt_stdio_output@@AAE_NXZ@@?$positional_parameter_base@_WV?$string_output_adapter@_W@__crt_stdio_output@@@__crt_stdio_output@@CA?AW4parameter_type@01@PAUansi_string@?1??type_case_Z@?$output_processor@_WV?$string_output_adapter@_W@__crt_stdio_output@@V?$positional_parameter_base@_WV?$string_output_adapter@_W@__crt_stdio_output@@@2@@1@AAE_NXZ@@Z 1002193b f i libucrt:output.obj
 0001:0002093f       ??$get_parameter_type@X@?$positional_parameter_base@DV?$stream_output_adapter@D@__crt_stdio_output@@@__crt_stdio_output@@CA?AW4parameter_type@01@PAX@Z 1002193f f i libucrt:output.obj
 0001:00020943       ??$get_parameter_type@X@?$positional_parameter_base@DV?$string_output_adapter@D@__crt_stdio_output@@@__crt_stdio_output@@CA?AW4parameter_type@01@PAX@Z 10021943 f i libucrt:output.obj
 0001:00020947       ??$get_parameter_type@X@?$positional_parameter_base@_WV?$stream_output_adapter@_W@__crt_stdio_output@@@__crt_stdio_output@@CA?AW4parameter_type@01@PAX@Z 10021947 f i libucrt:output.obj
 0001:0002094b       ??$get_parameter_type@X@?$positional_parameter_base@_WV?$string_output_adapter@_W@__crt_stdio_output@@@__crt_stdio_output@@CA?AW4parameter_type@01@PAX@Z 1002194b f i libucrt:output.obj
 0001:0002094f       ??$is_character_specifier@D@?$positional_parameter_base@DV?$stream_output_adapter@D@__crt_stdio_output@@@__crt_stdio_output@@CA_ND@Z 1002194f f i libucrt:output.obj
 0001:00020967       ??$is_character_specifier@D@?$positional_parameter_base@DV?$string_output_adapter@D@__crt_stdio_output@@@__crt_stdio_output@@CA_ND@Z 10021967 f i libucrt:output.obj
 0001:0002097f       ??$is_character_specifier@_W@?$positional_parameter_base@_WV?$stream_output_adapter@_W@__crt_stdio_output@@@__crt_stdio_output@@CA_N_W@Z 1002197f f i libucrt:output.obj
 0001:0002099a       ??$is_character_specifier@_W@?$positional_parameter_base@_WV?$string_output_adapter@_W@__crt_stdio_output@@@__crt_stdio_output@@CA_N_W@Z 1002199a f i libucrt:output.obj
 0001:000209b5       ??$is_integral_specifier@D@?$positional_parameter_base@DV?$stream_output_adapter@D@__crt_stdio_output@@@__crt_stdio_output@@CA_ND@Z 100219b5 f i libucrt:output.obj
 0001:000209e1       ??$is_integral_specifier@D@?$positional_parameter_base@DV?$string_output_adapter@D@__crt_stdio_output@@@__crt_stdio_output@@CA_ND@Z 100219e1 f i libucrt:output.obj
 0001:00020a0d       ??$is_integral_specifier@_W@?$positional_parameter_base@_WV?$stream_output_adapter@_W@__crt_stdio_output@@@__crt_stdio_output@@CA_N_W@Z 10021a0d f i libucrt:output.obj
 0001:00020a48       ??$is_integral_specifier@_W@?$positional_parameter_base@_WV?$string_output_adapter@_W@__crt_stdio_output@@@__crt_stdio_output@@CA_N_W@Z 10021a48 f i libucrt:output.obj
 0001:00020a83       ??$is_overflow_condition@K@__crt_strtox@@YA_NIK@Z 10021a83 f i libucrt:output.obj
 0001:00020ab4       ??$is_pointer_specifier@D@?$positional_parameter_base@DV?$stream_output_adapter@D@__crt_stdio_output@@@__crt_stdio_output@@CA_ND@Z 10021ab4 f i libucrt:output.obj
 0001:00020ac2       ??$is_pointer_specifier@D@?$positional_parameter_base@DV?$string_output_adapter@D@__crt_stdio_output@@@__crt_stdio_output@@CA_ND@Z 10021ac2 f i libucrt:output.obj
 0001:00020ad0       ??$is_pointer_specifier@_W@?$positional_parameter_base@_WV?$stream_output_adapter@_W@__crt_stdio_output@@@__crt_stdio_output@@CA_N_W@Z 10021ad0 f i libucrt:output.obj
 0001:00020adf       ??$is_pointer_specifier@_W@?$positional_parameter_base@_WV?$string_output_adapter@_W@__crt_stdio_output@@@__crt_stdio_output@@CA_N_W@Z 10021adf f i libucrt:output.obj
 0001:00020aee       ??$is_string_specifier@D@?$positional_parameter_base@DV?$stream_output_adapter@D@__crt_stdio_output@@@__crt_stdio_output@@CA_ND@Z 10021aee f i libucrt:output.obj
 0001:00020b06       ??$is_string_specifier@D@?$positional_parameter_base@DV?$string_output_adapter@D@__crt_stdio_output@@@__crt_stdio_output@@CA_ND@Z 10021b06 f i libucrt:output.obj
 0001:00020b1e       ??$is_string_specifier@_W@?$positional_parameter_base@_WV?$stream_output_adapter@_W@__crt_stdio_output@@@__crt_stdio_output@@CA_N_W@Z 10021b1e f i libucrt:output.obj
 0001:00020b39       ??$is_string_specifier@_W@?$positional_parameter_base@_WV?$string_output_adapter@_W@__crt_stdio_output@@@__crt_stdio_output@@CA_N_W@Z 10021b39 f i libucrt:output.obj
 0001:00020b54       ??$is_wide_character_specifier@D@__crt_stdio_output@@YA_N_KDW4length_modifier@0@@Z 10021b54 f i libucrt:output.obj
 0001:00020b85       ??$is_wide_character_specifier@_W@__crt_stdio_output@@YA_N_K_WW4length_modifier@0@@Z 10021b85 f i libucrt:output.obj
 0001:00020bd3       ??$make_c_string_character_source@DPAPAD@__crt_strtox@@YA?AV?$c_string_character_source@D@0@QBDQAPAD@Z 10021bd3 f i libucrt:output.obj
 0001:00020bee       ??$make_c_string_character_source@_WPAPA_W@__crt_strtox@@YA?AV?$c_string_character_source@_W@0@QB_WQAPA_W@Z 10021bee f i libucrt:output.obj
 0001:00020c09       ??$parse_integer@KV?$c_string_character_source@D@__crt_strtox@@$0A@@__crt_strtox@@YAKAAV__crt_cached_ptd_host@@V?$c_string_character_source@D@0@H_N@Z 10021c09 f i libucrt:output.obj
 0001:00020e18       ??$parse_integer@KV?$c_string_character_source@_W@__crt_strtox@@$0A@@__crt_strtox@@YAKAAV__crt_cached_ptd_host@@V?$c_string_character_source@_W@0@H_N@Z 10021e18 f i libucrt:output.obj
 0001:000213e7       ??$peek_va_arg@C@__crt_stdio_output@@YACPAD@Z 100223e7 f i libucrt:output.obj
 0001:000213f3       ??$peek_va_arg@E@__crt_stdio_output@@YAEPAD@Z 100223f3 f i libucrt:output.obj
 0001:000213ff       ??$peek_va_arg@F@__crt_stdio_output@@YAFPAD@Z 100223ff f i libucrt:output.obj
 0001:0002140c       ??$peek_va_arg@G@__crt_stdio_output@@YAGPAD@Z 1002240c f i libucrt:output.obj
 0001:00021419       ??$peek_va_arg@H@__crt_stdio_output@@YAHPAD@Z 10022419 f i libucrt:output.obj
 0001:00021425       ??$peek_va_arg@I@__crt_stdio_output@@YAIPAD@Z 10022425 f i libucrt:output.obj
 0001:00021431       ??$peek_va_arg@PAD@__crt_stdio_output@@YAPADPAD@Z 10022431 f i libucrt:output.obj
 0001:0002143d       ??$peek_va_arg@PAUansi_string@?1??type_case_Z@?$output_processor@DV?$stream_output_adapter@D@__crt_stdio_output@@V?$positional_parameter_base@DV?$stream_output_adapter@D@__crt_stdio_output@@@2@@__crt_stdio_output@@AAE_NXZ@@__crt_stdio_output@@YAPAUansi_string@?1??type_case_Z@?$output_processor@DV?$stream_output_adapter@D@__crt_stdio_output@@V?$positional_parameter_base@DV?$stream_output_adapter@D@__crt_stdio_output@@@2@@0@AAE_NXZ@PAD@Z 1002243d f i libucrt:output.obj
 0001:00021449       ??$peek_va_arg@PAUansi_string@?1??type_case_Z@?$output_processor@DV?$string_output_adapter@D@__crt_stdio_output@@V?$positional_parameter_base@DV?$string_output_adapter@D@__crt_stdio_output@@@2@@__crt_stdio_output@@AAE_NXZ@@__crt_stdio_output@@YAPAUansi_string@?1??type_case_Z@?$output_processor@DV?$string_output_adapter@D@__crt_stdio_output@@V?$positional_parameter_base@DV?$string_output_adapter@D@__crt_stdio_output@@@2@@0@AAE_NXZ@PAD@Z 10022449 f i libucrt:output.obj
 0001:00021455       ??$peek_va_arg@PAUansi_string@?1??type_case_Z@?$output_processor@_WV?$stream_output_adapter@_W@__crt_stdio_output@@V?$positional_parameter_base@_WV?$stream_output_adapter@_W@__crt_stdio_output@@@2@@__crt_stdio_output@@AAE_NXZ@@__crt_stdio_output@@YAPAUansi_string@?1??type_case_Z@?$output_processor@_WV?$stream_output_adapter@_W@__crt_stdio_output@@V?$positional_parameter_base@_WV?$stream_output_adapter@_W@__crt_stdio_output@@@2@@0@AAE_NXZ@PAD@Z 10022455 f i libucrt:output.obj
 0001:00021461       ??$peek_va_arg@PAUansi_string@?1??type_case_Z@?$output_processor@_WV?$string_output_adapter@_W@__crt_stdio_output@@V?$positional_parameter_base@_WV?$string_output_adapter@_W@__crt_stdio_output@@@2@@__crt_stdio_output@@AAE_NXZ@@__crt_stdio_output@@YAPAUansi_string@?1??type_case_Z@?$output_processor@_WV?$string_output_adapter@_W@__crt_stdio_output@@V?$positional_parameter_base@_WV?$string_output_adapter@_W@__crt_stdio_output@@@2@@0@AAE_NXZ@PAD@Z 10022461 f i libucrt:output.obj
 0001:0002146d       ??$peek_va_arg@PAX@__crt_stdio_output@@YAPAXPAD@Z 1002246d f i libucrt:output.obj
 0001:00021479       ??$peek_va_arg@U_CRT_DOUBLE@@@__crt_stdio_output@@YA?AU_CRT_DOUBLE@@PAD@Z 10022479 f i libucrt:output.obj
 0001:00021488       ??$peek_va_arg@_J@__crt_stdio_output@@YA_JPAD@Z 10022488 f i libucrt:output.obj
 0001:00021497       ??$peek_va_arg@_K@__crt_stdio_output@@YA_KPAD@Z 10022497 f i libucrt:output.obj
 0001:000214a6       ??$peek_va_arg@_W@__crt_stdio_output@@YA_WPAD@Z 100224a6 f i libucrt:output.obj
 0001:000214b3       ??$puttc_nolock_internal@ABDPAU_iobuf@@AAV__crt_cached_ptd_host@@@?$__crt_char_traits@D@@SAHABD$$QAPAU_iobuf@@AAV__crt_cached_ptd_host@@@Z 100224b3 f i libucrt:output.obj
 0001:000214d1       ??$puttc_nolock_internal@AB_WPAU_iobuf@@AAV__crt_cached_ptd_host@@@?$__crt_char_traits@_W@@SAGAB_W$$QAPAU_iobuf@@AAV__crt_cached_ptd_host@@@Z 100224d1 f i libucrt:output.obj
 0001:000214ef       ??$read_va_arg@C@__crt_stdio_output@@YACAAPAD@Z 100224ef f i libucrt:output.obj
 0001:00021501       ??$read_va_arg@E@__crt_stdio_output@@YAEAAPAD@Z 10022501 f i libucrt:output.obj
 0001:00021513       ??$read_va_arg@F@__crt_stdio_output@@YAFAAPAD@Z 10022513 f i libucrt:output.obj
 0001:00021526       ??$read_va_arg@G@__crt_stdio_output@@YAGAAPAD@Z 10022526 f i libucrt:output.obj
 0001:00021539       ??$read_va_arg@H@__crt_stdio_output@@YAHAAPAD@Z 10022539 f i libucrt:output.obj
 0001:0002154b       ??$read_va_arg@I@__crt_stdio_output@@YAIAAPAD@Z 1002254b f i libucrt:output.obj
 0001:0002155d       ??$read_va_arg@PAD@__crt_stdio_output@@YAPADAAPAD@Z 1002255d f i libucrt:output.obj
 0001:0002156f       ??$read_va_arg@PAUansi_string@?1??type_case_Z@?$output_processor@DV?$stream_output_adapter@D@__crt_stdio_output@@V?$format_validation_base@DV?$stream_output_adapter@D@__crt_stdio_output@@@2@@__crt_stdio_output@@AAE_NXZ@@__crt_stdio_output@@YAPAUansi_string@?1??type_case_Z@?$output_processor@DV?$stream_output_adapter@D@__crt_stdio_output@@V?$format_validation_base@DV?$stream_output_adapter@D@__crt_stdio_output@@@2@@0@AAE_NXZ@AAPAD@Z 1002256f f i libucrt:output.obj
 0001:00021581       ??$read_va_arg@PAUansi_string@?1??type_case_Z@?$output_processor@DV?$stream_output_adapter@D@__crt_stdio_output@@V?$positional_parameter_base@DV?$stream_output_adapter@D@__crt_stdio_output@@@2@@__crt_stdio_output@@AAE_NXZ@@__crt_stdio_output@@YAPAUansi_string@?1??type_case_Z@?$output_processor@DV?$stream_output_adapter@D@__crt_stdio_output@@V?$positional_parameter_base@DV?$stream_output_adapter@D@__crt_stdio_output@@@2@@0@AAE_NXZ@AAPAD@Z 10022581 f i libucrt:output.obj
 0001:00021593       ??$read_va_arg@PAUansi_string@?1??type_case_Z@?$output_processor@DV?$stream_output_adapter@D@__crt_stdio_output@@V?$standard_base@DV?$stream_output_adapter@D@__crt_stdio_output@@@2@@__crt_stdio_output@@AAE_NXZ@@__crt_stdio_output@@YAPAUansi_string@?1??type_case_Z@?$output_processor@DV?$stream_output_adapter@D@__crt_stdio_output@@V?$standard_base@DV?$stream_output_adapter@D@__crt_stdio_output@@@2@@0@AAE_NXZ@AAPAD@Z 10022593 f i libucrt:output.obj
 0001:000215a5       ??$read_va_arg@PAUansi_string@?1??type_case_Z@?$output_processor@DV?$string_output_adapter@D@__crt_stdio_output@@V?$format_validation_base@DV?$string_output_adapter@D@__crt_stdio_output@@@2@@__crt_stdio_output@@AAE_NXZ@@__crt_stdio_output@@YAPAUansi_string@?1??type_case_Z@?$output_processor@DV?$string_output_adapter@D@__crt_stdio_output@@V?$format_validation_base@DV?$string_output_adapter@D@__crt_stdio_output@@@2@@0@AAE_NXZ@AAPAD@Z 100225a5 f i libucrt:output.obj
 0001:000215b7       ??$read_va_arg@PAUansi_string@?1??type_case_Z@?$output_processor@DV?$string_output_adapter@D@__crt_stdio_output@@V?$positional_parameter_base@DV?$string_output_adapter@D@__crt_stdio_output@@@2@@__crt_stdio_output@@AAE_NXZ@@__crt_stdio_output@@YAPAUansi_string@?1??type_case_Z@?$output_processor@DV?$string_output_adapter@D@__crt_stdio_output@@V?$positional_parameter_base@DV?$string_output_adapter@D@__crt_stdio_output@@@2@@0@AAE_NXZ@AAPAD@Z 100225b7 f i libucrt:output.obj
 0001:000215c9       ??$read_va_arg@PAUansi_string@?1??type_case_Z@?$output_processor@DV?$string_output_adapter@D@__crt_stdio_output@@V?$standard_base@DV?$string_output_adapter@D@__crt_stdio_output@@@2@@__crt_stdio_output@@AAE_NXZ@@__crt_stdio_output@@YAPAUansi_string@?1??type_case_Z@?$output_processor@DV?$string_output_adapter@D@__crt_stdio_output@@V?$standard_base@DV?$string_output_adapter@D@__crt_stdio_output@@@2@@0@AAE_NXZ@AAPAD@Z 100225c9 f i libucrt:output.obj
 0001:000215db       ??$read_va_arg@PAUansi_string@?1??type_case_Z@?$output_processor@_WV?$stream_output_adapter@_W@__crt_stdio_output@@V?$format_validation_base@_WV?$stream_output_adapter@_W@__crt_stdio_output@@@2@@__crt_stdio_output@@AAE_NXZ@@__crt_stdio_output@@YAPAUansi_string@?1??type_case_Z@?$output_processor@_WV?$stream_output_adapter@_W@__crt_stdio_output@@V?$format_validation_base@_WV?$stream_output_adapter@_W@__crt_stdio_output@@@2@@0@AAE_NXZ@AAPAD@Z 100225db f i libucrt:output.obj
 0001:000215ed       ??$read_va_arg@PAUansi_string@?1??type_case_Z@?$output_processor@_WV?$stream_output_adapter@_W@__crt_stdio_output@@V?$positional_parameter_base@_WV?$stream_output_adapter@_W@__crt_stdio_output@@@2@@__crt_stdio_output@@AAE_NXZ@@__crt_stdio_output@@YAPAUansi_string@?1??type_case_Z@?$output_processor@_WV?$stream_output_adapter@_W@__crt_stdio_output@@V?$positional_parameter_base@_WV?$stream_output_adapter@_W@__crt_stdio_output@@@2@@0@AAE_NXZ@AAPAD@Z 100225ed f i libucrt:output.obj
 0001:000215ff       ??$read_va_arg@PAUansi_string@?1??type_case_Z@?$output_processor@_WV?$stream_output_adapter@_W@__crt_stdio_output@@V?$standard_base@_WV?$stream_output_adapter@_W@__crt_stdio_output@@@2@@__crt_stdio_output@@AAE_NXZ@@__crt_stdio_output@@YAPAUansi_string@?1??type_case_Z@?$output_processor@_WV?$stream_output_adapter@_W@__crt_stdio_output@@V?$standard_base@_WV?$stream_output_adapter@_W@__crt_stdio_output@@@2@@0@AAE_NXZ@AAPAD@Z 100225ff f i libucrt:output.obj
 0001:00021611       ??$read_va_arg@PAUansi_string@?1??type_case_Z@?$output_processor@_WV?$string_output_adapter@_W@__crt_stdio_output@@V?$format_validation_base@_WV?$string_output_adapter@_W@__crt_stdio_output@@@2@@__crt_stdio_output@@AAE_NXZ@@__crt_stdio_output@@YAPAUansi_string@?1??type_case_Z@?$output_processor@_WV?$string_output_adapter@_W@__crt_stdio_output@@V?$format_validation_base@_WV?$string_output_adapter@_W@__crt_stdio_output@@@2@@0@AAE_NXZ@AAPAD@Z 10022611 f i libucrt:output.obj
 0001:00021623       ??$read_va_arg@PAUansi_string@?1??type_case_Z@?$output_processor@_WV?$string_output_adapter@_W@__crt_stdio_output@@V?$positional_parameter_base@_WV?$string_output_adapter@_W@__crt_stdio_output@@@2@@__crt_stdio_output@@AAE_NXZ@@__crt_stdio_output@@YAPAUansi_string@?1??type_case_Z@?$output_processor@_WV?$string_output_adapter@_W@__crt_stdio_output@@V?$positional_parameter_base@_WV?$string_output_adapter@_W@__crt_stdio_output@@@2@@0@AAE_NXZ@AAPAD@Z 10022623 f i libucrt:output.obj
 0001:00021635       ??$read_va_arg@PAUansi_string@?1??type_case_Z@?$output_processor@_WV?$string_output_adapter@_W@__crt_stdio_output@@V?$standard_base@_WV?$string_output_adapter@_W@__crt_stdio_output@@@2@@__crt_stdio_output@@AAE_NXZ@@__crt_stdio_output@@YAPAUansi_string@?1??type_case_Z@?$output_processor@_WV?$string_output_adapter@_W@__crt_stdio_output@@V?$standard_base@_WV?$string_output_adapter@_W@__crt_stdio_output@@@2@@0@AAE_NXZ@AAPAD@Z 10022635 f i libucrt:output.obj
 0001:00021647       ??$read_va_arg@PAX@__crt_stdio_output@@YAPAXAAPAD@Z 10022647 f i libucrt:output.obj
 0001:00021659       ??$read_va_arg@U_CRT_DOUBLE@@@__crt_stdio_output@@YA?AU_CRT_DOUBLE@@AAPAD@Z 10022659 f i libucrt:output.obj
 0001:0002166f       ??$read_va_arg@_J@__crt_stdio_output@@YA_JAAPAD@Z 1002266f f i libucrt:output.obj
 0001:00021684       ??$read_va_arg@_K@__crt_stdio_output@@YA_KAAPAD@Z 10022684 f i libucrt:output.obj
 0001:00021699       ??$read_va_arg@_W@__crt_stdio_output@@YA_WAAPAD@Z 10022699 f i libucrt:output.obj
 0001:000216ac       ??$scratch_count@D@formatting_buffer@__crt_stdio_output@@QBEIXZ 100226ac f i libucrt:output.obj
 0001:000216b1       ??$scratch_data@D@formatting_buffer@__crt_stdio_output@@QAEPADXZ 100226b1 f i libucrt:output.obj
 0001:000216cf       ??$type_case_integer@$07@?$output_processor@DV?$stream_output_adapter@D@__crt_stdio_output@@V?$format_validation_base@DV?$stream_output_adapter@D@__crt_stdio_output@@@2@@__crt_stdio_output@@AAE_N_N@Z 100226cf f i libucrt:output.obj
 0001:0002184c       ??$type_case_integer@$07@?$output_processor@DV?$stream_output_adapter@D@__crt_stdio_output@@V?$positional_parameter_base@DV?$stream_output_adapter@D@__crt_stdio_output@@@2@@__crt_stdio_output@@AAE_N_N@Z 1002284c f i libucrt:output.obj
 0001:000219dd       ??$type_case_integer@$07@?$output_processor@DV?$stream_output_adapter@D@__crt_stdio_output@@V?$standard_base@DV?$stream_output_adapter@D@__crt_stdio_output@@@2@@__crt_stdio_output@@AAE_N_N@Z 100229dd f i libucrt:output.obj
 0001:00021b5a       ??$type_case_integer@$07@?$output_processor@DV?$string_output_adapter@D@__crt_stdio_output@@V?$format_validation_base@DV?$string_output_adapter@D@__crt_stdio_output@@@2@@__crt_stdio_output@@AAE_N_N@Z 10022b5a f i libucrt:output.obj
 0001:00021cd7       ??$type_case_integer@$07@?$output_processor@DV?$string_output_adapter@D@__crt_stdio_output@@V?$positional_parameter_base@DV?$string_output_adapter@D@__crt_stdio_output@@@2@@__crt_stdio_output@@AAE_N_N@Z 10022cd7 f i libucrt:output.obj
 0001:00021e68       ??$type_case_integer@$07@?$output_processor@DV?$string_output_adapter@D@__crt_stdio_output@@V?$standard_base@DV?$string_output_adapter@D@__crt_stdio_output@@@2@@__crt_stdio_output@@AAE_N_N@Z 10022e68 f i libucrt:output.obj
 0001:00021fe5       ??$type_case_integer@$07@?$output_processor@_WV?$stream_output_adapter@_W@__crt_stdio_output@@V?$format_validation_base@_WV?$stream_output_adapter@_W@__crt_stdio_output@@@2@@__crt_stdio_output@@AAE_N_N@Z 10022fe5 f i libucrt:output.obj
 0001:00022167       ??$type_case_integer@$07@?$output_processor@_WV?$stream_output_adapter@_W@__crt_stdio_output@@V?$positional_parameter_base@_WV?$stream_output_adapter@_W@__crt_stdio_output@@@2@@__crt_stdio_output@@AAE_N_N@Z 10023167 f i libucrt:output.obj
 0001:000222fc       ??$type_case_integer@$07@?$output_processor@_WV?$stream_output_adapter@_W@__crt_stdio_output@@V?$standard_base@_WV?$stream_output_adapter@_W@__crt_stdio_output@@@2@@__crt_stdio_output@@AAE_N_N@Z 100232fc f i libucrt:output.obj
 0001:0002247e       ??$type_case_integer@$07@?$output_processor@_WV?$string_output_adapter@_W@__crt_stdio_output@@V?$format_validation_base@_WV?$string_output_adapter@_W@__crt_stdio_output@@@2@@__crt_stdio_output@@AAE_N_N@Z 1002347e f i libucrt:output.obj
 0001:00022600       ??$type_case_integer@$07@?$output_processor@_WV?$string_output_adapter@_W@__crt_stdio_output@@V?$positional_parameter_base@_WV?$string_output_adapter@_W@__crt_stdio_output@@@2@@__crt_stdio_output@@AAE_N_N@Z 10023600 f i libucrt:output.obj
 0001:00022795       ??$type_case_integer@$07@?$output_processor@_WV?$string_output_adapter@_W@__crt_stdio_output@@V?$standard_base@_WV?$string_output_adapter@_W@__crt_stdio_output@@@2@@__crt_stdio_output@@AAE_N_N@Z 10023795 f i libucrt:output.obj
 0001:00022917       ??$type_case_integer@$09@?$output_processor@DV?$stream_output_adapter@D@__crt_stdio_output@@V?$format_validation_base@DV?$stream_output_adapter@D@__crt_stdio_output@@@2@@__crt_stdio_output@@AAE_N_N@Z 10023917 f i libucrt:output.obj
 0001:00022a94       ??$type_case_integer@$09@?$output_processor@DV?$stream_output_adapter@D@__crt_stdio_output@@V?$positional_parameter_base@DV?$stream_output_adapter@D@__crt_stdio_output@@@2@@__crt_stdio_output@@AAE_N_N@Z 10023a94 f i libucrt:output.obj
 0001:00022c25       ??$type_case_integer@$09@?$output_processor@DV?$stream_output_adapter@D@__crt_stdio_output@@V?$standard_base@DV?$stream_output_adapter@D@__crt_stdio_output@@@2@@__crt_stdio_output@@AAE_N_N@Z 10023c25 f i libucrt:output.obj
 0001:00022da2       ??$type_case_integer@$09@?$output_processor@DV?$string_output_adapter@D@__crt_stdio_output@@V?$format_validation_base@DV?$string_output_adapter@D@__crt_stdio_output@@@2@@__crt_stdio_output@@AAE_N_N@Z 10023da2 f i libucrt:output.obj
 0001:00022f1f       ??$type_case_integer@$09@?$output_processor@DV?$string_output_adapter@D@__crt_stdio_output@@V?$positional_parameter_base@DV?$string_output_adapter@D@__crt_stdio_output@@@2@@__crt_stdio_output@@AAE_N_N@Z 10023f1f f i libucrt:output.obj
 0001:000230b0       ??$type_case_integer@$09@?$output_processor@DV?$string_output_adapter@D@__crt_stdio_output@@V?$standard_base@DV?$string_output_adapter@D@__crt_stdio_output@@@2@@__crt_stdio_output@@AAE_N_N@Z 100240b0 f i libucrt:output.obj
 0001:0002322d       ??$type_case_integer@$09@?$output_processor@_WV?$stream_output_adapter@_W@__crt_stdio_output@@V?$format_validation_base@_WV?$stream_output_adapter@_W@__crt_stdio_output@@@2@@__crt_stdio_output@@AAE_N_N@Z 1002422d f i libucrt:output.obj
 0001:000233af       ??$type_case_integer@$09@?$output_processor@_WV?$stream_output_adapter@_W@__crt_stdio_output@@V?$positional_parameter_base@_WV?$stream_output_adapter@_W@__crt_stdio_output@@@2@@__crt_stdio_output@@AAE_N_N@Z 100243af f i libucrt:output.obj
 0001:00023544       ??$type_case_integer@$09@?$output_processor@_WV?$stream_output_adapter@_W@__crt_stdio_output@@V?$standard_base@_WV?$stream_output_adapter@_W@__crt_stdio_output@@@2@@__crt_stdio_output@@AAE_N_N@Z 10024544 f i libucrt:output.obj
 0001:000236c6       ??$type_case_integer@$09@?$output_processor@_WV?$string_output_adapter@_W@__crt_stdio_output@@V?$format_validation_base@_WV?$string_output_adapter@_W@__crt_stdio_output@@@2@@__crt_stdio_output@@AAE_N_N@Z 100246c6 f i libucrt:output.obj
 0001:00023848       ??$type_case_integer@$09@?$output_processor@_WV?$string_output_adapter@_W@__crt_stdio_output@@V?$positional_parameter_base@_WV?$string_output_adapter@_W@__crt_stdio_output@@@2@@__crt_stdio_output@@AAE_N_N@Z 10024848 f i libucrt:output.obj
 0001:000239dd       ??$type_case_integer@$09@?$output_processor@_WV?$string_output_adapter@_W@__crt_stdio_output@@V?$standard_base@_WV?$string_output_adapter@_W@__crt_stdio_output@@@2@@__crt_stdio_output@@AAE_N_N@Z 100249dd f i libucrt:output.obj
 0001:00023b5f       ??$type_case_integer@$0BA@@?$output_processor@DV?$stream_output_adapter@D@__crt_stdio_output@@V?$format_validation_base@DV?$stream_output_adapter@D@__crt_stdio_output@@@2@@__crt_stdio_output@@AAE_N_N@Z 10024b5f f i libucrt:output.obj
 0001:00023cdc       ??$type_case_integer@$0BA@@?$output_processor@DV?$stream_output_adapter@D@__crt_stdio_output@@V?$positional_parameter_base@DV?$stream_output_adapter@D@__crt_stdio_output@@@2@@__crt_stdio_output@@AAE_N_N@Z 10024cdc f i libucrt:output.obj
 0001:00023e6d       ??$type_case_integer@$0BA@@?$output_processor@DV?$stream_output_adapter@D@__crt_stdio_output@@V?$standard_base@DV?$stream_output_adapter@D@__crt_stdio_output@@@2@@__crt_stdio_output@@AAE_N_N@Z 10024e6d f i libucrt:output.obj
 0001:00023fea       ??$type_case_integer@$0BA@@?$output_processor@DV?$string_output_adapter@D@__crt_stdio_output@@V?$format_validation_base@DV?$string_output_adapter@D@__crt_stdio_output@@@2@@__crt_stdio_output@@AAE_N_N@Z 10024fea f i libucrt:output.obj
 0001:00024167       ??$type_case_integer@$0BA@@?$output_processor@DV?$string_output_adapter@D@__crt_stdio_output@@V?$positional_parameter_base@DV?$string_output_adapter@D@__crt_stdio_output@@@2@@__crt_stdio_output@@AAE_N_N@Z 10025167 f i libucrt:output.obj
 0001:000242f8       ??$type_case_integer@$0BA@@?$output_processor@DV?$string_output_adapter@D@__crt_stdio_output@@V?$standard_base@DV?$string_output_adapter@D@__crt_stdio_output@@@2@@__crt_stdio_output@@AAE_N_N@Z 100252f8 f i libucrt:output.obj
 0001:00024475       ??$type_case_integer@$0BA@@?$output_processor@_WV?$stream_output_adapter@_W@__crt_stdio_output@@V?$format_validation_base@_WV?$stream_output_adapter@_W@__crt_stdio_output@@@2@@__crt_stdio_output@@AAE_N_N@Z 10025475 f i libucrt:output.obj
 0001:000245f7       ??$type_case_integer@$0BA@@?$output_processor@_WV?$stream_output_adapter@_W@__crt_stdio_output@@V?$positional_parameter_base@_WV?$stream_output_adapter@_W@__crt_stdio_output@@@2@@__crt_stdio_output@@AAE_N_N@Z 100255f7 f i libucrt:output.obj
 0001:0002478c       ??$type_case_integer@$0BA@@?$output_processor@_WV?$stream_output_adapter@_W@__crt_stdio_output@@V?$standard_base@_WV?$stream_output_adapter@_W@__crt_stdio_output@@@2@@__crt_stdio_output@@AAE_N_N@Z 1002578c f i libucrt:output.obj
 0001:0002490e       ??$type_case_integer@$0BA@@?$output_processor@_WV?$string_output_adapter@_W@__crt_stdio_output@@V?$format_validation_base@_WV?$string_output_adapter@_W@__crt_stdio_output@@@2@@__crt_stdio_output@@AAE_N_N@Z 1002590e f i libucrt:output.obj
 0001:00024a90       ??$type_case_integer@$0BA@@?$output_processor@_WV?$string_output_adapter@_W@__crt_stdio_output@@V?$positional_parameter_base@_WV?$string_output_adapter@_W@__crt_stdio_output@@@2@@__crt_stdio_output@@AAE_N_N@Z 10025a90 f i libucrt:output.obj
 0001:00024c25       ??$type_case_integer@$0BA@@?$output_processor@_WV?$string_output_adapter@_W@__crt_stdio_output@@V?$standard_base@_WV?$string_output_adapter@_W@__crt_stdio_output@@@2@@__crt_stdio_output@@AAE_N_N@Z 10025c25 f i libucrt:output.obj
 0001:00024da7       ??$type_case_integer_parse_into_buffer@I$07@?$output_processor@DV?$stream_output_adapter@D@__crt_stdio_output@@V?$format_validation_base@DV?$stream_output_adapter@D@__crt_stdio_output@@@2@@__crt_stdio_output@@AAEXI_N@Z 10025da7 f i libucrt:output.obj
 0001:00024e11       ??$type_case_integer_parse_into_buffer@I$07@?$output_processor@DV?$stream_output_adapter@D@__crt_stdio_output@@V?$positional_parameter_base@DV?$stream_output_adapter@D@__crt_stdio_output@@@2@@__crt_stdio_output@@AAEXI_N@Z 10025e11 f i libucrt:output.obj
 0001:00024e7b       ??$type_case_integer_parse_into_buffer@I$07@?$output_processor@DV?$stream_output_adapter@D@__crt_stdio_output@@V?$standard_base@DV?$stream_output_adapter@D@__crt_stdio_output@@@2@@__crt_stdio_output@@AAEXI_N@Z 10025e7b f i libucrt:output.obj
 0001:00024ee5       ??$type_case_integer_parse_into_buffer@I$07@?$output_processor@DV?$string_output_adapter@D@__crt_stdio_output@@V?$format_validation_base@DV?$string_output_adapter@D@__crt_stdio_output@@@2@@__crt_stdio_output@@AAEXI_N@Z 10025ee5 f i libucrt:output.obj
 0001:00024f4f       ??$type_case_integer_parse_into_buffer@I$07@?$output_processor@DV?$string_output_adapter@D@__crt_stdio_output@@V?$positional_parameter_base@DV?$string_output_adapter@D@__crt_stdio_output@@@2@@__crt_stdio_output@@AAEXI_N@Z 10025f4f f i libucrt:output.obj
 0001:00024fb9       ??$type_case_integer_parse_into_buffer@I$07@?$output_processor@DV?$string_output_adapter@D@__crt_stdio_output@@V?$standard_base@DV?$string_output_adapter@D@__crt_stdio_output@@@2@@__crt_stdio_output@@AAEXI_N@Z 10025fb9 f i libucrt:output.obj
 0001:00025023       ??$type_case_integer_parse_into_buffer@I$07@?$output_processor@_WV?$stream_output_adapter@_W@__crt_stdio_output@@V?$format_validation_base@_WV?$stream_output_adapter@_W@__crt_stdio_output@@@2@@__crt_stdio_output@@AAEXI_N@Z 10026023 f i libucrt:output.obj
 0001:00025090       ??$type_case_integer_parse_into_buffer@I$07@?$output_processor@_WV?$stream_output_adapter@_W@__crt_stdio_output@@V?$positional_parameter_base@_WV?$stream_output_adapter@_W@__crt_stdio_output@@@2@@__crt_stdio_output@@AAEXI_N@Z 10026090 f i libucrt:output.obj
 0001:000250fd       ??$type_case_integer_parse_into_buffer@I$07@?$output_processor@_WV?$stream_output_adapter@_W@__crt_stdio_output@@V?$standard_base@_WV?$stream_output_adapter@_W@__crt_stdio_output@@@2@@__crt_stdio_output@@AAEXI_N@Z 100260fd f i libucrt:output.obj
 0001:0002516a       ??$type_case_integer_parse_into_buffer@I$07@?$output_processor@_WV?$string_output_adapter@_W@__crt_stdio_output@@V?$format_validation_base@_WV?$string_output_adapter@_W@__crt_stdio_output@@@2@@__crt_stdio_output@@AAEXI_N@Z 1002616a f i libucrt:output.obj
 0001:000251d7       ??$type_case_integer_parse_into_buffer@I$07@?$output_processor@_WV?$string_output_adapter@_W@__crt_stdio_output@@V?$positional_parameter_base@_WV?$string_output_adapter@_W@__crt_stdio_output@@@2@@__crt_stdio_output@@AAEXI_N@Z 100261d7 f i libucrt:output.obj
 0001:00025244       ??$type_case_integer_parse_into_buffer@I$07@?$output_processor@_WV?$string_output_adapter@_W@__crt_stdio_output@@V?$standard_base@_WV?$string_output_adapter@_W@__crt_stdio_output@@@2@@__crt_stdio_output@@AAEXI_N@Z 10026244 f i libucrt:output.obj
 0001:000252b1       ??$type_case_integer_parse_into_buffer@I$09@?$output_processor@DV?$stream_output_adapter@D@__crt_stdio_output@@V?$format_validation_base@DV?$stream_output_adapter@D@__crt_stdio_output@@@2@@__crt_stdio_output@@AAEXI_N@Z 100262b1 f i libucrt:output.obj
 0001:0002532b       ??$type_case_integer_parse_into_buffer@I$09@?$output_processor@DV?$stream_output_adapter@D@__crt_stdio_output@@V?$positional_parameter_base@DV?$stream_output_adapter@D@__crt_stdio_output@@@2@@__crt_stdio_output@@AAEXI_N@Z 1002632b f i libucrt:output.obj
 0001:000253a5       ??$type_case_integer_parse_into_buffer@I$09@?$output_processor@DV?$stream_output_adapter@D@__crt_stdio_output@@V?$standard_base@DV?$stream_output_adapter@D@__crt_stdio_output@@@2@@__crt_stdio_output@@AAEXI_N@Z 100263a5 f i libucrt:output.obj
 0001:0002541f       ??$type_case_integer_parse_into_buffer@I$09@?$output_processor@DV?$string_output_adapter@D@__crt_stdio_output@@V?$format_validation_base@DV?$string_output_adapter@D@__crt_stdio_output@@@2@@__crt_stdio_output@@AAEXI_N@Z 1002641f f i libucrt:output.obj
 0001:00025499       ??$type_case_integer_parse_into_buffer@I$09@?$output_processor@DV?$string_output_adapter@D@__crt_stdio_output@@V?$positional_parameter_base@DV?$string_output_adapter@D@__crt_stdio_output@@@2@@__crt_stdio_output@@AAEXI_N@Z 10026499 f i libucrt:output.obj
 0001:00025513       ??$type_case_integer_parse_into_buffer@I$09@?$output_processor@DV?$string_output_adapter@D@__crt_stdio_output@@V?$standard_base@DV?$string_output_adapter@D@__crt_stdio_output@@@2@@__crt_stdio_output@@AAEXI_N@Z 10026513 f i libucrt:output.obj
 0001:0002558d       ??$type_case_integer_parse_into_buffer@I$09@?$output_processor@_WV?$stream_output_adapter@_W@__crt_stdio_output@@V?$format_validation_base@_WV?$stream_output_adapter@_W@__crt_stdio_output@@@2@@__crt_stdio_output@@AAEXI_N@Z 1002658d f i libucrt:output.obj
 0001:0002561c       ??$type_case_integer_parse_into_buffer@I$09@?$output_processor@_WV?$stream_output_adapter@_W@__crt_stdio_output@@V?$positional_parameter_base@_WV?$stream_output_adapter@_W@__crt_stdio_output@@@2@@__crt_stdio_output@@AAEXI_N@Z 1002661c f i libucrt:output.obj
 0001:000256ab       ??$type_case_integer_parse_into_buffer@I$09@?$output_processor@_WV?$stream_output_adapter@_W@__crt_stdio_output@@V?$standard_base@_WV?$stream_output_adapter@_W@__crt_stdio_output@@@2@@__crt_stdio_output@@AAEXI_N@Z 100266ab f i libucrt:output.obj
 0001:0002573a       ??$type_case_integer_parse_into_buffer@I$09@?$output_processor@_WV?$string_output_adapter@_W@__crt_stdio_output@@V?$format_validation_base@_WV?$string_output_adapter@_W@__crt_stdio_output@@@2@@__crt_stdio_output@@AAEXI_N@Z 1002673a f i libucrt:output.obj
 0001:000257c9       ??$type_case_integer_parse_into_buffer@I$09@?$output_processor@_WV?$string_output_adapter@_W@__crt_stdio_output@@V?$positional_parameter_base@_WV?$string_output_adapter@_W@__crt_stdio_output@@@2@@__crt_stdio_output@@AAEXI_N@Z 100267c9 f i libucrt:output.obj
 0001:00025858       ??$type_case_integer_parse_into_buffer@I$09@?$output_processor@_WV?$string_output_adapter@_W@__crt_stdio_output@@V?$standard_base@_WV?$string_output_adapter@_W@__crt_stdio_output@@@2@@__crt_stdio_output@@AAEXI_N@Z 10026858 f i libucrt:output.obj
 0001:000258e7       ??$type_case_integer_parse_into_buffer@I$0BA@@?$output_processor@DV?$stream_output_adapter@D@__crt_stdio_output@@V?$format_validation_base@DV?$stream_output_adapter@D@__crt_stdio_output@@@2@@__crt_stdio_output@@AAEXI_N@Z 100268e7 f i libucrt:output.obj
 0001:0002596f       ??$type_case_integer_parse_into_buffer@I$0BA@@?$output_processor@DV?$stream_output_adapter@D@__crt_stdio_output@@V?$positional_parameter_base@DV?$stream_output_adapter@D@__crt_stdio_output@@@2@@__crt_stdio_output@@AAEXI_N@Z 1002696f f i libucrt:output.obj
 0001:000259f7       ??$type_case_integer_parse_into_buffer@I$0BA@@?$output_processor@DV?$stream_output_adapter@D@__crt_stdio_output@@V?$standard_base@DV?$stream_output_adapter@D@__crt_stdio_output@@@2@@__crt_stdio_output@@AAEXI_N@Z 100269f7 f i libucrt:output.obj
 0001:00025a7f       ??$type_case_integer_parse_into_buffer@I$0BA@@?$output_processor@DV?$string_output_adapter@D@__crt_stdio_output@@V?$format_validation_base@DV?$string_output_adapter@D@__crt_stdio_output@@@2@@__crt_stdio_output@@AAEXI_N@Z 10026a7f f i libucrt:output.obj
 0001:00025b07       ??$type_case_integer_parse_into_buffer@I$0BA@@?$output_processor@DV?$string_output_adapter@D@__crt_stdio_output@@V?$positional_parameter_base@DV?$string_output_adapter@D@__crt_stdio_output@@@2@@__crt_stdio_output@@AAEXI_N@Z 10026b07 f i libucrt:output.obj
 0001:00025b8f       ??$type_case_integer_parse_into_buffer@I$0BA@@?$output_processor@DV?$string_output_adapter@D@__crt_stdio_output@@V?$standard_base@DV?$string_output_adapter@D@__crt_stdio_output@@@2@@__crt_stdio_output@@AAEXI_N@Z 10026b8f f i libucrt:output.obj
 0001:00025c17       ??$type_case_integer_parse_into_buffer@I$0BA@@?$output_processor@_WV?$stream_output_adapter@_W@__crt_stdio_output@@V?$format_validation_base@_WV?$stream_output_adapter@_W@__crt_stdio_output@@@2@@__crt_stdio_output@@AAEXI_N@Z 10026c17 f i libucrt:output.obj
 0001:00025ca4       ??$type_case_integer_parse_into_buffer@I$0BA@@?$output_processor@_WV?$stream_output_adapter@_W@__crt_stdio_output@@V?$positional_parameter_base@_WV?$stream_output_adapter@_W@__crt_stdio_output@@@2@@__crt_stdio_output@@AAEXI_N@Z 10026ca4 f i libucrt:output.obj
 0001:00025d31       ??$type_case_integer_parse_into_buffer@I$0BA@@?$output_processor@_WV?$stream_output_adapter@_W@__crt_stdio_output@@V?$standard_base@_WV?$stream_output_adapter@_W@__crt_stdio_output@@@2@@__crt_stdio_output@@AAEXI_N@Z 10026d31 f i libucrt:output.obj
 0001:00025dbe       ??$type_case_integer_parse_into_buffer@I$0BA@@?$output_processor@_WV?$string_output_adapter@_W@__crt_stdio_output@@V?$format_validation_base@_WV?$string_output_adapter@_W@__crt_stdio_output@@@2@@__crt_stdio_output@@AAEXI_N@Z 10026dbe f i libucrt:output.obj
 0001:00025e4b       ??$type_case_integer_parse_into_buffer@I$0BA@@?$output_processor@_WV?$string_output_adapter@_W@__crt_stdio_output@@V?$positional_parameter_base@_WV?$string_output_adapter@_W@__crt_stdio_output@@@2@@__crt_stdio_output@@AAEXI_N@Z 10026e4b f i libucrt:output.obj
 0001:00025ed8       ??$type_case_integer_parse_into_buffer@I$0BA@@?$output_processor@_WV?$string_output_adapter@_W@__crt_stdio_output@@V?$standard_base@_WV?$string_output_adapter@_W@__crt_stdio_output@@@2@@__crt_stdio_output@@AAEXI_N@Z 10026ed8 f i libucrt:output.obj
 0001:00025f65       ??$type_case_integer_parse_into_buffer@_K$07@?$output_processor@DV?$stream_output_adapter@D@__crt_stdio_output@@V?$format_validation_base@DV?$stream_output_adapter@D@__crt_stdio_output@@@2@@__crt_stdio_output@@AAEX_K_N@Z 10026f65 f i libucrt:output.obj
 0001:00025fdd       ??$type_case_integer_parse_into_buffer@_K$07@?$output_processor@DV?$stream_output_adapter@D@__crt_stdio_output@@V?$positional_parameter_base@DV?$stream_output_adapter@D@__crt_stdio_output@@@2@@__crt_stdio_output@@AAEX_K_N@Z 10026fdd f i libucrt:output.obj
 0001:00026055       ??$type_case_integer_parse_into_buffer@_K$07@?$output_processor@DV?$stream_output_adapter@D@__crt_stdio_output@@V?$standard_base@DV?$stream_output_adapter@D@__crt_stdio_output@@@2@@__crt_stdio_output@@AAEX_K_N@Z 10027055 f i libucrt:output.obj
 0001:000260cd       ??$type_case_integer_parse_into_buffer@_K$07@?$output_processor@DV?$string_output_adapter@D@__crt_stdio_output@@V?$format_validation_base@DV?$string_output_adapter@D@__crt_stdio_output@@@2@@__crt_stdio_output@@AAEX_K_N@Z 100270cd f i libucrt:output.obj
 0001:00026145       ??$type_case_integer_parse_into_buffer@_K$07@?$output_processor@DV?$string_output_adapter@D@__crt_stdio_output@@V?$positional_parameter_base@DV?$string_output_adapter@D@__crt_stdio_output@@@2@@__crt_stdio_output@@AAEX_K_N@Z 10027145 f i libucrt:output.obj
 0001:000261bd       ??$type_case_integer_parse_into_buffer@_K$07@?$output_processor@DV?$string_output_adapter@D@__crt_stdio_output@@V?$standard_base@DV?$string_output_adapter@D@__crt_stdio_output@@@2@@__crt_stdio_output@@AAEX_K_N@Z 100271bd f i libucrt:output.obj
 0001:00026235       ??$type_case_integer_parse_into_buffer@_K$07@?$output_processor@_WV?$stream_output_adapter@_W@__crt_stdio_output@@V?$format_validation_base@_WV?$stream_output_adapter@_W@__crt_stdio_output@@@2@@__crt_stdio_output@@AAEX_K_N@Z 10027235 f i libucrt:output.obj
 0001:000262be       ??$type_case_integer_parse_into_buffer@_K$07@?$output_processor@_WV?$stream_output_adapter@_W@__crt_stdio_output@@V?$positional_parameter_base@_WV?$stream_output_adapter@_W@__crt_stdio_output@@@2@@__crt_stdio_output@@AAEX_K_N@Z 100272be f i libucrt:output.obj
 0001:00026347       ??$type_case_integer_parse_into_buffer@_K$07@?$output_processor@_WV?$stream_output_adapter@_W@__crt_stdio_output@@V?$standard_base@_WV?$stream_output_adapter@_W@__crt_stdio_output@@@2@@__crt_stdio_output@@AAEX_K_N@Z 10027347 f i libucrt:output.obj
 0001:000263d0       ??$type_case_integer_parse_into_buffer@_K$07@?$output_processor@_WV?$string_output_adapter@_W@__crt_stdio_output@@V?$format_validation_base@_WV?$string_output_adapter@_W@__crt_stdio_output@@@2@@__crt_stdio_output@@AAEX_K_N@Z 100273d0 f i libucrt:output.obj
 0001:00026459       ??$type_case_integer_parse_into_buffer@_K$07@?$output_processor@_WV?$string_output_adapter@_W@__crt_stdio_output@@V?$positional_parameter_base@_WV?$string_output_adapter@_W@__crt_stdio_output@@@2@@__crt_stdio_output@@AAEX_K_N@Z 10027459 f i libucrt:output.obj
 0001:000264e2       ??$type_case_integer_parse_into_buffer@_K$07@?$output_processor@_WV?$string_output_adapter@_W@__crt_stdio_output@@V?$standard_base@_WV?$string_output_adapter@_W@__crt_stdio_output@@@2@@__crt_stdio_output@@AAEX_K_N@Z 100274e2 f i libucrt:output.obj
 0001:0002656b       ??$type_case_integer_parse_into_buffer@_K$09@?$output_processor@DV?$stream_output_adapter@D@__crt_stdio_output@@V?$format_validation_base@DV?$stream_output_adapter@D@__crt_stdio_output@@@2@@__crt_stdio_output@@AAEX_K_N@Z 1002756b f i libucrt:output.obj
 0001:00026607       ??$type_case_integer_parse_into_buffer@_K$09@?$output_processor@DV?$stream_output_adapter@D@__crt_stdio_output@@V?$positional_parameter_base@DV?$stream_output_adapter@D@__crt_stdio_output@@@2@@__crt_stdio_output@@AAEX_K_N@Z 10027607 f i libucrt:output.obj
 0001:000266a3       ??$type_case_integer_parse_into_buffer@_K$09@?$output_processor@DV?$stream_output_adapter@D@__crt_stdio_output@@V?$standard_base@DV?$stream_output_adapter@D@__crt_stdio_output@@@2@@__crt_stdio_output@@AAEX_K_N@Z 100276a3 f i libucrt:output.obj
 0001:0002673f       ??$type_case_integer_parse_into_buffer@_K$09@?$output_processor@DV?$string_output_adapter@D@__crt_stdio_output@@V?$format_validation_base@DV?$string_output_adapter@D@__crt_stdio_output@@@2@@__crt_stdio_output@@AAEX_K_N@Z 1002773f f i libucrt:output.obj
 0001:000267db       ??$type_case_integer_parse_into_buffer@_K$09@?$output_processor@DV?$string_output_adapter@D@__crt_stdio_output@@V?$positional_parameter_base@DV?$string_output_adapter@D@__crt_stdio_output@@@2@@__crt_stdio_output@@AAEX_K_N@Z 100277db f i libucrt:output.obj
 0001:00026877       ??$type_case_integer_parse_into_buffer@_K$09@?$output_processor@DV?$string_output_adapter@D@__crt_stdio_output@@V?$standard_base@DV?$string_output_adapter@D@__crt_stdio_output@@@2@@__crt_stdio_output@@AAEX_K_N@Z 10027877 f i libucrt:output.obj
 0001:00026913       ??$type_case_integer_parse_into_buffer@_K$09@?$output_processor@_WV?$stream_output_adapter@_W@__crt_stdio_output@@V?$format_validation_base@_WV?$stream_output_adapter@_W@__crt_stdio_output@@@2@@__crt_stdio_output@@AAEX_K_N@Z 10027913 f i libucrt:output.obj
 0001:000269c2       ??$type_case_integer_parse_into_buffer@_K$09@?$output_processor@_WV?$stream_output_adapter@_W@__crt_stdio_output@@V?$positional_parameter_base@_WV?$stream_output_adapter@_W@__crt_stdio_output@@@2@@__crt_stdio_output@@AAEX_K_N@Z 100279c2 f i libucrt:output.obj
 0001:00026a71       ??$type_case_integer_parse_into_buffer@_K$09@?$output_processor@_WV?$stream_output_adapter@_W@__crt_stdio_output@@V?$standard_base@_WV?$stream_output_adapter@_W@__crt_stdio_output@@@2@@__crt_stdio_output@@AAEX_K_N@Z 10027a71 f i libucrt:output.obj
 0001:00026b20       ??$type_case_integer_parse_into_buffer@_K$09@?$output_processor@_WV?$string_output_adapter@_W@__crt_stdio_output@@V?$format_validation_base@_WV?$string_output_adapter@_W@__crt_stdio_output@@@2@@__crt_stdio_output@@AAEX_K_N@Z 10027b20 f i libucrt:output.obj
 0001:00026bcf       ??$type_case_integer_parse_into_buffer@_K$09@?$output_processor@_WV?$string_output_adapter@_W@__crt_stdio_output@@V?$positional_parameter_base@_WV?$string_output_adapter@_W@__crt_stdio_output@@@2@@__crt_stdio_output@@AAEX_K_N@Z 10027bcf f i libucrt:output.obj
 0001:00026c7e       ??$type_case_integer_parse_into_buffer@_K$09@?$output_processor@_WV?$string_output_adapter@_W@__crt_stdio_output@@V?$standard_base@_WV?$string_output_adapter@_W@__crt_stdio_output@@@2@@__crt_stdio_output@@AAEX_K_N@Z 10027c7e f i libucrt:output.obj
 0001:00026d2d       ??$type_case_integer_parse_into_buffer@_K$0BA@@?$output_processor@DV?$stream_output_adapter@D@__crt_stdio_output@@V?$format_validation_base@DV?$stream_output_adapter@D@__crt_stdio_output@@@2@@__crt_stdio_output@@AAEX_K_N@Z 10027d2d f i libucrt:output.obj
 0001:00026dbf       ??$type_case_integer_parse_into_buffer@_K$0BA@@?$output_processor@DV?$stream_output_adapter@D@__crt_stdio_output@@V?$positional_parameter_base@DV?$stream_output_adapter@D@__crt_stdio_output@@@2@@__crt_stdio_output@@AAEX_K_N@Z 10027dbf f i libucrt:output.obj
 0001:00026e51       ??$type_case_integer_parse_into_buffer@_K$0BA@@?$output_processor@DV?$stream_output_adapter@D@__crt_stdio_output@@V?$standard_base@DV?$stream_output_adapter@D@__crt_stdio_output@@@2@@__crt_stdio_output@@AAEX_K_N@Z 10027e51 f i libucrt:output.obj
 0001:00026ee3       ??$type_case_integer_parse_into_buffer@_K$0BA@@?$output_processor@DV?$string_output_adapter@D@__crt_stdio_output@@V?$format_validation_base@DV?$string_output_adapter@D@__crt_stdio_output@@@2@@__crt_stdio_output@@AAEX_K_N@Z 10027ee3 f i libucrt:output.obj
 0001:00026f75       ??$type_case_integer_parse_into_buffer@_K$0BA@@?$output_processor@DV?$string_output_adapter@D@__crt_stdio_output@@V?$positional_parameter_base@DV?$string_output_adapter@D@__crt_stdio_output@@@2@@__crt_stdio_output@@AAEX_K_N@Z 10027f75 f i libucrt:output.obj
 0001:00027007       ??$type_case_integer_parse_into_buffer@_K$0BA@@?$output_processor@DV?$string_output_adapter@D@__crt_stdio_output@@V?$standard_base@DV?$string_output_adapter@D@__crt_stdio_output@@@2@@__crt_stdio_output@@AAEX_K_N@Z 10028007 f i libucrt:output.obj
 0001:00027099       ??$type_case_integer_parse_into_buffer@_K$0BA@@?$output_processor@_WV?$stream_output_adapter@_W@__crt_stdio_output@@V?$format_validation_base@_WV?$stream_output_adapter@_W@__crt_stdio_output@@@2@@__crt_stdio_output@@AAEX_K_N@Z 10028099 f i libucrt:output.obj
 0001:00027134       ??$type_case_integer_parse_into_buffer@_K$0BA@@?$output_processor@_WV?$stream_output_adapter@_W@__crt_stdio_output@@V?$positional_parameter_base@_WV?$stream_output_adapter@_W@__crt_stdio_output@@@2@@__crt_stdio_output@@AAEX_K_N@Z 10028134 f i libucrt:output.obj
 0001:000271cf       ??$type_case_integer_parse_into_buffer@_K$0BA@@?$output_processor@_WV?$stream_output_adapter@_W@__crt_stdio_output@@V?$standard_base@_WV?$stream_output_adapter@_W@__crt_stdio_output@@@2@@__crt_stdio_output@@AAEX_K_N@Z 100281cf f i libucrt:output.obj
 0001:0002726a       ??$type_case_integer_parse_into_buffer@_K$0BA@@?$output_processor@_WV?$string_output_adapter@_W@__crt_stdio_output@@V?$format_validation_base@_WV?$string_output_adapter@_W@__crt_stdio_output@@@2@@__crt_stdio_output@@AAEX_K_N@Z 1002826a f i libucrt:output.obj
 0001:00027305       ??$type_case_integer_parse_into_buffer@_K$0BA@@?$output_processor@_WV?$string_output_adapter@_W@__crt_stdio_output@@V?$positional_parameter_base@_WV?$string_output_adapter@_W@__crt_stdio_output@@@2@@__crt_stdio_output@@AAEX_K_N@Z 10028305 f i libucrt:output.obj
 0001:000273a0       ??$type_case_integer_parse_into_buffer@_K$0BA@@?$output_processor@_WV?$string_output_adapter@_W@__crt_stdio_output@@V?$standard_base@_WV?$string_output_adapter@_W@__crt_stdio_output@@@2@@__crt_stdio_output@@AAEX_K_N@Z 100283a0 f i libucrt:output.obj
 0001:0002743b       ??$write_multiple_characters@V?$stream_output_adapter@D@__crt_stdio_output@@D@__crt_stdio_output@@YAXABV?$stream_output_adapter@D@0@DHQAHAAV__crt_cached_ptd_host@@@Z 1002843b f i libucrt:output.obj
 0001:0002746a       ??$write_multiple_characters@V?$stream_output_adapter@_W@__crt_stdio_output@@D@__crt_stdio_output@@YAXABV?$stream_output_adapter@_W@0@DHQAHAAV__crt_cached_ptd_host@@@Z 1002846a f i libucrt:output.obj
 0001:0002749e       ??$write_multiple_characters@V?$string_output_adapter@D@__crt_stdio_output@@D@__crt_stdio_output@@YAXABV?$string_output_adapter@D@0@DHQAHAAV__crt_cached_ptd_host@@@Z 1002849e f i libucrt:output.obj
 0001:000274ff       ??$write_multiple_characters@V?$string_output_adapter@_W@__crt_stdio_output@@D@__crt_stdio_output@@YAXABV?$string_output_adapter@_W@0@DHQAHAAV__crt_cached_ptd_host@@@Z 100284ff f i libucrt:output.obj
 0001:0002772c       ??0?$c_string_character_source@D@__crt_strtox@@QAE@QBDQAPBD@Z 1002872c f i libucrt:output.obj
 0001:00027748       ??0?$c_string_character_source@_W@__crt_strtox@@QAE@QB_WQAPB_W@Z 10028748 f i libucrt:output.obj
 0001:00027764       ??0?$common_data@D@__crt_stdio_output@@IAE@AAV__crt_cached_ptd_host@@@Z 10028764 f i libucrt:output.obj
 0001:000277ab       ??0?$common_data@_W@__crt_stdio_output@@IAE@AAV__crt_cached_ptd_host@@@Z 100287ab f i libucrt:output.obj
 0001:000277f7       ??0?$output_adapter_data@DV?$stream_output_adapter@D@__crt_stdio_output@@@__crt_stdio_output@@IAE@ABV?$stream_output_adapter@D@1@_KQBDAAV__crt_cached_ptd_host@@QAD@Z 100287f7 f i libucrt:output.obj
 0001:0002785e       ??0?$output_adapter_data@DV?$string_output_adapter@D@__crt_stdio_output@@@__crt_stdio_output@@IAE@ABV?$string_output_adapter@D@1@_KQBDAAV__crt_cached_ptd_host@@QAD@Z 1002885e f i libucrt:output.obj
 0001:000278c5       ??0?$output_adapter_data@_WV?$stream_output_adapter@_W@__crt_stdio_output@@@__crt_stdio_output@@IAE@ABV?$stream_output_adapter@_W@1@_KQB_WAAV__crt_cached_ptd_host@@QAD@Z 100288c5 f i libucrt:output.obj
 0001:00027931       ??0?$output_adapter_data@_WV?$string_output_adapter@_W@__crt_stdio_output@@@__crt_stdio_output@@IAE@ABV?$string_output_adapter@_W@1@_KQB_WAAV__crt_cached_ptd_host@@QAD@Z 10028931 f i libucrt:output.obj
 0001:0002799d       ??0?$output_processor@DV?$stream_output_adapter@D@__crt_stdio_output@@V?$format_validation_base@DV?$stream_output_adapter@D@__crt_stdio_output@@@2@@__crt_stdio_output@@QAE@ABV?$stream_output_adapter@D@1@_KQBDAAV__crt_cached_ptd_host@@QAD@Z 1002899d f i libucrt:output.obj
 0001:000279ca       ??0?$output_processor@DV?$stream_output_adapter@D@__crt_stdio_output@@V?$positional_parameter_base@DV?$stream_output_adapter@D@__crt_stdio_output@@@2@@__crt_stdio_output@@QAE@ABV?$stream_output_adapter@D@1@_KQBDAAV__crt_cached_ptd_host@@QAD@Z 100289ca f i libucrt:output.obj
 0001:000279f0       ??0?$output_processor@DV?$stream_output_adapter@D@__crt_stdio_output@@V?$standard_base@DV?$stream_output_adapter@D@__crt_stdio_output@@@2@@__crt_stdio_output@@QAE@ABV?$stream_output_adapter@D@1@_KQBDAAV__crt_cached_ptd_host@@QAD@Z 100289f0 f i libucrt:output.obj
 0001:00027a1d       ??0?$output_processor@DV?$string_output_adapter@D@__crt_stdio_output@@V?$format_validation_base@DV?$string_output_adapter@D@__crt_stdio_output@@@2@@__crt_stdio_output@@QAE@ABV?$string_output_adapter@D@1@_KQBDAAV__crt_cached_ptd_host@@QAD@Z 10028a1d f i libucrt:output.obj
 0001:00027a4a       ??0?$output_processor@DV?$string_output_adapter@D@__crt_stdio_output@@V?$positional_parameter_base@DV?$string_output_adapter@D@__crt_stdio_output@@@2@@__crt_stdio_output@@QAE@ABV?$string_output_adapter@D@1@_KQBDAAV__crt_cached_ptd_host@@QAD@Z 10028a4a f i libucrt:output.obj
 0001:00027a70       ??0?$output_processor@DV?$string_output_adapter@D@__crt_stdio_output@@V?$standard_base@DV?$string_output_adapter@D@__crt_stdio_output@@@2@@__crt_stdio_output@@QAE@ABV?$string_output_adapter@D@1@_KQBDAAV__crt_cached_ptd_host@@QAD@Z 10028a70 f i libucrt:output.obj
 0001:00027a9d       ??0?$output_processor@_WV?$stream_output_adapter@_W@__crt_stdio_output@@V?$format_validation_base@_WV?$stream_output_adapter@_W@__crt_stdio_output@@@2@@__crt_stdio_output@@QAE@ABV?$stream_output_adapter@_W@1@_KQB_WAAV__crt_cached_ptd_host@@QAD@Z 10028a9d f i libucrt:output.obj
 0001:00027aca       ??0?$output_processor@_WV?$stream_output_adapter@_W@__crt_stdio_output@@V?$positional_parameter_base@_WV?$stream_output_adapter@_W@__crt_stdio_output@@@2@@__crt_stdio_output@@QAE@ABV?$stream_output_adapter@_W@1@_KQB_WAAV__crt_cached_ptd_host@@QAD@Z 10028aca f i libucrt:output.obj
 0001:00027af0       ??0?$output_processor@_WV?$stream_output_adapter@_W@__crt_stdio_output@@V?$standard_base@_WV?$stream_output_adapter@_W@__crt_stdio_output@@@2@@__crt_stdio_output@@QAE@ABV?$stream_output_adapter@_W@1@_KQB_WAAV__crt_cached_ptd_host@@QAD@Z 10028af0 f i libucrt:output.obj
 0001:00027b1d       ??0?$output_processor@_WV?$string_output_adapter@_W@__crt_stdio_output@@V?$format_validation_base@_WV?$string_output_adapter@_W@__crt_stdio_output@@@2@@__crt_stdio_output@@QAE@ABV?$string_output_adapter@_W@1@_KQB_WAAV__crt_cached_ptd_host@@QAD@Z 10028b1d f i libucrt:output.obj
 0001:00027b4a       ??0?$output_processor@_WV?$string_output_adapter@_W@__crt_stdio_output@@V?$positional_parameter_base@_WV?$string_output_adapter@_W@__crt_stdio_output@@@2@@__crt_stdio_output@@QAE@ABV?$string_output_adapter@_W@1@_KQB_WAAV__crt_cached_ptd_host@@QAD@Z 10028b4a f i libucrt:output.obj
 0001:00027b70       ??0?$output_processor@_WV?$string_output_adapter@_W@__crt_stdio_output@@V?$standard_base@_WV?$string_output_adapter@_W@__crt_stdio_output@@@2@@__crt_stdio_output@@QAE@ABV?$string_output_adapter@_W@1@_KQB_WAAV__crt_cached_ptd_host@@QAD@Z 10028b70 f i libucrt:output.obj
 0001:00027b9d       ??0?$stream_output_adapter@D@__crt_stdio_output@@QAE@QAU_iobuf@@@Z 10028b9d f i libucrt:output.obj
 0001:00027bad       ??0?$stream_output_adapter@_W@__crt_stdio_output@@QAE@QAU_iobuf@@@Z 10028bad f i libucrt:output.obj
 0001:00027bbd       ??0?$string_output_adapter@D@__crt_stdio_output@@QAE@QAU?$string_output_adapter_context@D@1@@Z 10028bbd f i libucrt:output.obj
 0001:00027bcd       ??0?$string_output_adapter@_W@__crt_stdio_output@@QAE@QAU?$string_output_adapter_context@_W@1@@Z 10028bcd f i libucrt:output.obj
 0001:00027bdd       ??0__acrt_stdio_temporary_buffering_guard@@QAE@QAU_iobuf@@AAV__crt_cached_ptd_host@@@Z 10028bdd f i libucrt:output.obj
 0001:00027c01       ??0__crt_stdio_stream@@QAE@QAU_iobuf@@@Z 10028c01 f i libucrt:output.obj
 0001:00027c11       ??0formatting_buffer@__crt_stdio_output@@QAE@XZ 10028c11 f i libucrt:output.obj
 0001:00027c22       ??0guard@?$cached@H@__crt_cached_ptd_host@@QAE@AAU12@@Z 10028c22 f i libucrt:output.obj
 0001:00027c41       ??1?$c_string_character_source@D@__crt_strtox@@QAE@XZ 10028c41 f i libucrt:output.obj
 0001:00027c4d       ??1?$c_string_character_source@_W@__crt_strtox@@QAE@XZ 10028c4d f i libucrt:output.obj
 0001:00027c59       ??1?$common_data@D@__crt_stdio_output@@QAE@XZ 10028c59 f i libucrt:output.obj
 0001:00027c61       ??1?$common_data@_W@__crt_stdio_output@@QAE@XZ 10028c61 f i libucrt:output.obj
 0001:00027c69       ??1?$format_validation_base@DV?$stream_output_adapter@D@__crt_stdio_output@@@__crt_stdio_output@@QAE@XZ 10028c69 f i libucrt:output.obj
 0001:00027c71       ??1?$format_validation_base@DV?$string_output_adapter@D@__crt_stdio_output@@@__crt_stdio_output@@QAE@XZ 10028c71 f i libucrt:output.obj
 0001:00027c79       ??1?$format_validation_base@_WV?$stream_output_adapter@_W@__crt_stdio_output@@@__crt_stdio_output@@QAE@XZ 10028c79 f i libucrt:output.obj
 0001:00027c81       ??1?$format_validation_base@_WV?$string_output_adapter@_W@__crt_stdio_output@@@__crt_stdio_output@@QAE@XZ 10028c81 f i libucrt:output.obj
 0001:00027c89       ??1?$output_adapter_data@DV?$stream_output_adapter@D@__crt_stdio_output@@@__crt_stdio_output@@QAE@XZ 10028c89 f i libucrt:output.obj
 0001:00027c91       ??1?$output_adapter_data@DV?$string_output_adapter@D@__crt_stdio_output@@@__crt_stdio_output@@QAE@XZ 10028c91 f i libucrt:output.obj
 0001:00027c99       ??1?$output_adapter_data@_WV?$stream_output_adapter@_W@__crt_stdio_output@@@__crt_stdio_output@@QAE@XZ 10028c99 f i libucrt:output.obj
 0001:00027ca1       ??1?$output_adapter_data@_WV?$string_output_adapter@_W@__crt_stdio_output@@@__crt_stdio_output@@QAE@XZ 10028ca1 f i libucrt:output.obj
 0001:00027ca9       ??1?$output_processor@DV?$stream_output_adapter@D@__crt_stdio_output@@V?$format_validation_base@DV?$stream_output_adapter@D@__crt_stdio_output@@@2@@__crt_stdio_output@@QAE@XZ 10028ca9 f i libucrt:output.obj
 0001:00027cb1       ??1?$output_processor@DV?$stream_output_adapter@D@__crt_stdio_output@@V?$positional_parameter_base@DV?$stream_output_adapter@D@__crt_stdio_output@@@2@@__crt_stdio_output@@QAE@XZ 10028cb1 f i libucrt:output.obj
 0001:00027cb9       ??1?$output_processor@DV?$stream_output_adapter@D@__crt_stdio_output@@V?$standard_base@DV?$stream_output_adapter@D@__crt_stdio_output@@@2@@__crt_stdio_output@@QAE@XZ 10028cb9 f i libucrt:output.obj
 0001:00027cc1       ??1?$output_processor@DV?$string_output_adapter@D@__crt_stdio_output@@V?$format_validation_base@DV?$string_output_adapter@D@__crt_stdio_output@@@2@@__crt_stdio_output@@QAE@XZ 10028cc1 f i libucrt:output.obj
 0001:00027cc9       ??1?$output_processor@DV?$string_output_adapter@D@__crt_stdio_output@@V?$positional_parameter_base@DV?$string_output_adapter@D@__crt_stdio_output@@@2@@__crt_stdio_output@@QAE@XZ 10028cc9 f i libucrt:output.obj
 0001:00027cd1       ??1?$output_processor@DV?$string_output_adapter@D@__crt_stdio_output@@V?$standard_base@DV?$string_output_adapter@D@__crt_stdio_output@@@2@@__crt_stdio_output@@QAE@XZ 10028cd1 f i libucrt:output.obj
 0001:00027cd9       ??1?$output_processor@_WV?$stream_output_adapter@_W@__crt_stdio_output@@V?$format_validation_base@_WV?$stream_output_adapter@_W@__crt_stdio_output@@@2@@__crt_stdio_output@@QAE@XZ 10028cd9 f i libucrt:output.obj
 0001:00027ce1       ??1?$output_processor@_WV?$stream_output_adapter@_W@__crt_stdio_output@@V?$positional_parameter_base@_WV?$stream_output_adapter@_W@__crt_stdio_output@@@2@@__crt_stdio_output@@QAE@XZ 10028ce1 f i libucrt:output.obj
 0001:00027ce9       ??1?$output_processor@_WV?$stream_output_adapter@_W@__crt_stdio_output@@V?$standard_base@_WV?$stream_output_adapter@_W@__crt_stdio_output@@@2@@__crt_stdio_output@@QAE@XZ 10028ce9 f i libucrt:output.obj
 0001:00027cf1       ??1?$output_processor@_WV?$string_output_adapter@_W@__crt_stdio_output@@V?$format_validation_base@_WV?$string_output_adapter@_W@__crt_stdio_output@@@2@@__crt_stdio_output@@QAE@XZ 10028cf1 f i libucrt:output.obj
 0001:00027cf9       ??1?$output_processor@_WV?$string_output_adapter@_W@__crt_stdio_output@@V?$positional_parameter_base@_WV?$string_output_adapter@_W@__crt_stdio_output@@@2@@__crt_stdio_output@@QAE@XZ 10028cf9 f i libucrt:output.obj
 0001:00027d01       ??1?$output_processor@_WV?$string_output_adapter@_W@__crt_stdio_output@@V?$standard_base@_WV?$string_output_adapter@_W@__crt_stdio_output@@@2@@__crt_stdio_output@@QAE@XZ 10028d01 f i libucrt:output.obj
 0001:00027d09       ??1?$positional_parameter_base@DV?$stream_output_adapter@D@__crt_stdio_output@@@__crt_stdio_output@@QAE@XZ 10028d09 f i libucrt:output.obj
 0001:00027d11       ??1?$positional_parameter_base@DV?$string_output_adapter@D@__crt_stdio_output@@@__crt_stdio_output@@QAE@XZ 10028d11 f i libucrt:output.obj
 0001:00027d19       ??1?$positional_parameter_base@_WV?$stream_output_adapter@_W@__crt_stdio_output@@@__crt_stdio_output@@QAE@XZ 10028d19 f i libucrt:output.obj
 0001:00027d21       ??1?$positional_parameter_base@_WV?$string_output_adapter@_W@__crt_stdio_output@@@__crt_stdio_output@@QAE@XZ 10028d21 f i libucrt:output.obj
 0001:00027d29       ??1?$standard_base@DV?$stream_output_adapter@D@__crt_stdio_output@@@__crt_stdio_output@@QAE@XZ 10028d29 f i libucrt:output.obj
 0001:00027d31       ??1?$standard_base@DV?$string_output_adapter@D@__crt_stdio_output@@@__crt_stdio_output@@QAE@XZ 10028d31 f i libucrt:output.obj
 0001:00027d39       ??1?$standard_base@_WV?$stream_output_adapter@_W@__crt_stdio_output@@@__crt_stdio_output@@QAE@XZ 10028d39 f i libucrt:output.obj
 0001:00027d41       ??1?$standard_base@_WV?$string_output_adapter@_W@__crt_stdio_output@@@__crt_stdio_output@@QAE@XZ 10028d41 f i libucrt:output.obj
 0001:00027d49       ??1__acrt_stdio_temporary_buffering_guard@@QAE@XZ 10028d49 f i libucrt:output.obj
 0001:00027d5c       ??1formatting_buffer@__crt_stdio_output@@QAE@XZ 10028d5c f i libucrt:output.obj
 0001:00027d76       ??1guard@?$cached@H@__crt_cached_ptd_host@@QAE@XZ 10028d76 f i libucrt:output.obj
 0001:00027d8c       ??4?$__crt_unique_heap_ptr@DU__crt_internal_free_policy@@@@QAEAAV0@$$QAV0@@Z 10028d8c f i libucrt:output.obj
 0001:00027db0       ??A?$spectre_mitigated_lookup_table@Ustate_transition_pair@__crt_stdio_output@@$0IA@@__crt_stdio_output@@QBEABUstate_transition_pair@1@I@Z 10028db0 f i libucrt:output.obj
 0001:00027dc2       ??C__crt_stdio_stream@@QBEPAU__crt_stdio_stream_data@@XZ 10028dc2 f i libucrt:output.obj
 0001:0002822b       ?adjust_hexit@?$output_processor@DV?$stream_output_adapter@D@__crt_stdio_output@@V?$format_validation_base@DV?$stream_output_adapter@D@__crt_stdio_output@@@2@@__crt_stdio_output@@CADH_N@Z 1002922b f i libucrt:output.obj
 0001:0002823f       ?adjust_hexit@?$output_processor@DV?$stream_output_adapter@D@__crt_stdio_output@@V?$positional_parameter_base@DV?$stream_output_adapter@D@__crt_stdio_output@@@2@@__crt_stdio_output@@CADH_N@Z 1002923f f i libucrt:output.obj
 0001:00028253       ?adjust_hexit@?$output_processor@DV?$stream_output_adapter@D@__crt_stdio_output@@V?$standard_base@DV?$stream_output_adapter@D@__crt_stdio_output@@@2@@__crt_stdio_output@@CADH_N@Z 10029253 f i libucrt:output.obj
 0001:00028267       ?adjust_hexit@?$output_processor@DV?$string_output_adapter@D@__crt_stdio_output@@V?$format_validation_base@DV?$string_output_adapter@D@__crt_stdio_output@@@2@@__crt_stdio_output@@CADH_N@Z 10029267 f i libucrt:output.obj
 0001:0002827b       ?adjust_hexit@?$output_processor@DV?$string_output_adapter@D@__crt_stdio_output@@V?$positional_parameter_base@DV?$string_output_adapter@D@__crt_stdio_output@@@2@@__crt_stdio_output@@CADH_N@Z 1002927b f i libucrt:output.obj
 0001:0002828f       ?adjust_hexit@?$output_processor@DV?$string_output_adapter@D@__crt_stdio_output@@V?$standard_base@DV?$string_output_adapter@D@__crt_stdio_output@@@2@@__crt_stdio_output@@CADH_N@Z 1002928f f i libucrt:output.obj
 0001:000282a3       ?adjust_hexit@?$output_processor@_WV?$stream_output_adapter@_W@__crt_stdio_output@@V?$format_validation_base@_WV?$stream_output_adapter@_W@__crt_stdio_output@@@2@@__crt_stdio_output@@CADH_N@Z 100292a3 f i libucrt:output.obj
 0001:000282b7       ?adjust_hexit@?$output_processor@_WV?$stream_output_adapter@_W@__crt_stdio_output@@V?$positional_parameter_base@_WV?$stream_output_adapter@_W@__crt_stdio_output@@@2@@__crt_stdio_output@@CADH_N@Z 100292b7 f i libucrt:output.obj
 0001:000282cb       ?adjust_hexit@?$output_processor@_WV?$stream_output_adapter@_W@__crt_stdio_output@@V?$standard_base@_WV?$stream_output_adapter@_W@__crt_stdio_output@@@2@@__crt_stdio_output@@CADH_N@Z 100292cb f i libucrt:output.obj
 0001:000282df       ?adjust_hexit@?$output_processor@_WV?$string_output_adapter@_W@__crt_stdio_output@@V?$format_validation_base@_WV?$string_output_adapter@_W@__crt_stdio_output@@@2@@__crt_stdio_output@@CADH_N@Z 100292df f i libucrt:output.obj
 0001:000282f3       ?adjust_hexit@?$output_processor@_WV?$string_output_adapter@_W@__crt_stdio_output@@V?$positional_parameter_base@_WV?$string_output_adapter@_W@__crt_stdio_output@@@2@@__crt_stdio_output@@CADH_N@Z 100292f3 f i libucrt:output.obj
 0001:00028307       ?adjust_hexit@?$output_processor@_WV?$string_output_adapter@_W@__crt_stdio_output@@V?$standard_base@_WV?$string_output_adapter@_W@__crt_stdio_output@@@2@@__crt_stdio_output@@CADH_N@Z 10029307 f i libucrt:output.obj
 0001:0002831b       ?advance_to_next_pass@?$positional_parameter_base@DV?$stream_output_adapter@D@__crt_stdio_output@@@__crt_stdio_output@@IAE_NXZ 1002931b f i libucrt:output.obj
 0001:00028367       ?advance_to_next_pass@?$positional_parameter_base@DV?$string_output_adapter@D@__crt_stdio_output@@@__crt_stdio_output@@IAE_NXZ 10029367 f i libucrt:output.obj
 0001:000283b3       ?advance_to_next_pass@?$positional_parameter_base@_WV?$stream_output_adapter@_W@__crt_stdio_output@@@__crt_stdio_output@@IAE_NXZ 100293b3 f i libucrt:output.obj
 0001:000283ff       ?advance_to_next_pass@?$positional_parameter_base@_WV?$string_output_adapter@_W@__crt_stdio_output@@@__crt_stdio_output@@IAE_NXZ 100293ff f i libucrt:output.obj
 0001:0002844b       ?advance_to_next_pass@?$standard_base@DV?$stream_output_adapter@D@__crt_stdio_output@@@__crt_stdio_output@@IAE_NXZ 1002944b f i libucrt:output.obj
 0001:0002845c       ?advance_to_next_pass@?$standard_base@DV?$string_output_adapter@D@__crt_stdio_output@@@__crt_stdio_output@@IAE_NXZ 1002945c f i libucrt:output.obj
 0001:0002846d       ?advance_to_next_pass@?$standard_base@_WV?$stream_output_adapter@_W@__crt_stdio_output@@@__crt_stdio_output@@IAE_NXZ 1002946d f i libucrt:output.obj
 0001:0002847e       ?advance_to_next_pass@?$standard_base@_WV?$string_output_adapter@_W@__crt_stdio_output@@@__crt_stdio_output@@IAE_NXZ 1002947e f i libucrt:output.obj
 0001:0002848f       ?check@?$cached@H@__crt_cached_ptd_host@@QBE_NH@Z 1002948f f i libucrt:output.obj
 0001:000284ab       ?create_guard@?$cached@H@__crt_cached_ptd_host@@QAE?AVguard@12@XZ 100294ab f i libucrt:output.obj
 0001:000284c8       ?crop_zeroes@__crt_stdio_output@@YAXPADQAU__crt_locale_pointers@@@Z 100294c8 f i libucrt:output.obj
 0001:00028528       ?disable@guard@?$cached@H@__crt_cached_ptd_host@@QAEXXZ 10029528 f i libucrt:output.obj
 0001:0002852d       ?enable@guard@?$cached@H@__crt_cached_ptd_host@@QAEXXZ 1002952d f i libucrt:output.obj
 0001:00028532       ?find_next_state@?$output_processor@DV?$stream_output_adapter@D@__crt_stdio_output@@V?$format_validation_base@DV?$stream_output_adapter@D@__crt_stdio_output@@@2@@__crt_stdio_output@@ABE?AW4state@2@DW432@@Z 10029532 f i libucrt:output.obj
 0001:0002856f       ?find_next_state@?$output_processor@DV?$stream_output_adapter@D@__crt_stdio_output@@V?$positional_parameter_base@DV?$stream_output_adapter@D@__crt_stdio_output@@@2@@__crt_stdio_output@@ABE?AW4state@2@DW432@@Z 1002956f f i libucrt:output.obj
 0001:000285ac       ?find_next_state@?$output_processor@DV?$stream_output_adapter@D@__crt_stdio_output@@V?$standard_base@DV?$stream_output_adapter@D@__crt_stdio_output@@@2@@__crt_stdio_output@@ABE?AW4state@2@DW432@@Z 100295ac f i libucrt:output.obj
 0001:000285e7       ?find_next_state@?$output_processor@DV?$string_output_adapter@D@__crt_stdio_output@@V?$format_validation_base@DV?$string_output_adapter@D@__crt_stdio_output@@@2@@__crt_stdio_output@@ABE?AW4state@2@DW432@@Z 100295e7 f i libucrt:output.obj
 0001:00028624       ?find_next_state@?$output_processor@DV?$string_output_adapter@D@__crt_stdio_output@@V?$positional_parameter_base@DV?$string_output_adapter@D@__crt_stdio_output@@@2@@__crt_stdio_output@@ABE?AW4state@2@DW432@@Z 10029624 f i libucrt:output.obj
 0001:00028661       ?find_next_state@?$output_processor@DV?$string_output_adapter@D@__crt_stdio_output@@V?$standard_base@DV?$string_output_adapter@D@__crt_stdio_output@@@2@@__crt_stdio_output@@ABE?AW4state@2@DW432@@Z 10029661 f i libucrt:output.obj
 0001:0002869c       ?find_next_state@?$output_processor@_WV?$stream_output_adapter@_W@__crt_stdio_output@@V?$format_validation_base@_WV?$stream_output_adapter@_W@__crt_stdio_output@@@2@@__crt_stdio_output@@ABE?AW4state@2@_WW432@@Z 1002969c f i libucrt:output.obj
 0001:000286d8       ?find_next_state@?$output_processor@_WV?$stream_output_adapter@_W@__crt_stdio_output@@V?$positional_parameter_base@_WV?$stream_output_adapter@_W@__crt_stdio_output@@@2@@__crt_stdio_output@@ABE?AW4state@2@_WW432@@Z 100296d8 f i libucrt:output.obj
 0001:00028714       ?find_next_state@?$output_processor@_WV?$stream_output_adapter@_W@__crt_stdio_output@@V?$standard_base@_WV?$stream_output_adapter@_W@__crt_stdio_output@@@2@@__crt_stdio_output@@ABE?AW4state@2@_WW432@@Z 10029714 f i libucrt:output.obj
 0001:0002874e       ?find_next_state@?$output_processor@_WV?$string_output_adapter@_W@__crt_stdio_output@@V?$format_validation_base@_WV?$string_output_adapter@_W@__crt_stdio_output@@@2@@__crt_stdio_output@@ABE?AW4state@2@_WW432@@Z 1002974e f i libucrt:output.obj
 0001:0002878a       ?find_next_state@?$output_processor@_WV?$string_output_adapter@_W@__crt_stdio_output@@V?$positional_parameter_base@_WV?$string_output_adapter@_W@__crt_stdio_output@@@2@@__crt_stdio_output@@ABE?AW4state@2@_WW432@@Z 1002978a f i libucrt:output.obj
 0001:000287c6       ?find_next_state@?$output_processor@_WV?$string_output_adapter@_W@__crt_stdio_output@@V?$standard_base@_WV?$string_output_adapter@_W@__crt_stdio_output@@@2@@__crt_stdio_output@@ABE?AW4state@2@_WW432@@Z 100297c6 f i libucrt:output.obj
 0001:00028800       ?force_decimal_point@__crt_stdio_output@@YAXPADQAU__crt_locale_pointers@@@Z 10029800 f i libucrt:output.obj
 0001:0002885c       ?get@?$c_string_character_source@D@__crt_strtox@@QAEDXZ 1002985c f i libucrt:output.obj
 0001:00028864       ?get@?$c_string_character_source@_W@__crt_strtox@@QAE_WXZ 10029864 f i libucrt:output.obj
 0001:0002886f       ?get_flags@__crt_stdio_stream@@QBEJXZ 1002986f f i libucrt:output.obj
 0001:00028876       ?get_parameter_type@?$positional_parameter_base@DV?$stream_output_adapter@D@__crt_stdio_output@@@__crt_stdio_output@@CA?AW4parameter_type@12@F@Z 10029876 f i libucrt:output.obj
 0001:0002887a       ?get_parameter_type@?$positional_parameter_base@DV?$stream_output_adapter@D@__crt_stdio_output@@@__crt_stdio_output@@CA?AW4parameter_type@12@G@Z 1002987a f i libucrt:output.obj
 0001:0002887e       ?get_parameter_type@?$positional_parameter_base@DV?$stream_output_adapter@D@__crt_stdio_output@@@__crt_stdio_output@@CA?AW4parameter_type@12@H@Z 1002987e f i libucrt:output.obj
 0001:00028882       ?get_parameter_type@?$positional_parameter_base@DV?$stream_output_adapter@D@__crt_stdio_output@@@__crt_stdio_output@@CA?AW4parameter_type@12@I@Z 10029882 f i libucrt:output.obj
 0001:00028886       ?get_parameter_type@?$positional_parameter_base@DV?$stream_output_adapter@D@__crt_stdio_output@@@__crt_stdio_output@@CA?AW4parameter_type@12@U_CRT_DOUBLE@@@Z 10029886 f i libucrt:output.obj
 0001:0002888a       ?get_parameter_type@?$positional_parameter_base@DV?$stream_output_adapter@D@__crt_stdio_output@@@__crt_stdio_output@@CA?AW4parameter_type@12@_J@Z 1002988a f i libucrt:output.obj
 0001:0002888e       ?get_parameter_type@?$positional_parameter_base@DV?$stream_output_adapter@D@__crt_stdio_output@@@__crt_stdio_output@@CA?AW4parameter_type@12@_K@Z 1002988e f i libucrt:output.obj
 0001:00028892       ?get_parameter_type@?$positional_parameter_base@DV?$stream_output_adapter@D@__crt_stdio_output@@@__crt_stdio_output@@CA?AW4parameter_type@12@_W@Z 10029892 f i libucrt:output.obj
 0001:00028896       ?get_parameter_type@?$positional_parameter_base@DV?$string_output_adapter@D@__crt_stdio_output@@@__crt_stdio_output@@CA?AW4parameter_type@12@F@Z 10029896 f i libucrt:output.obj
 0001:0002889a       ?get_parameter_type@?$positional_parameter_base@DV?$string_output_adapter@D@__crt_stdio_output@@@__crt_stdio_output@@CA?AW4parameter_type@12@G@Z 1002989a f i libucrt:output.obj
 0001:0002889e       ?get_parameter_type@?$positional_parameter_base@DV?$string_output_adapter@D@__crt_stdio_output@@@__crt_stdio_output@@CA?AW4parameter_type@12@H@Z 1002989e f i libucrt:output.obj
 0001:000288a2       ?get_parameter_type@?$positional_parameter_base@DV?$string_output_adapter@D@__crt_stdio_output@@@__crt_stdio_output@@CA?AW4parameter_type@12@I@Z 100298a2 f i libucrt:output.obj
 0001:000288a6       ?get_parameter_type@?$positional_parameter_base@DV?$string_output_adapter@D@__crt_stdio_output@@@__crt_stdio_output@@CA?AW4parameter_type@12@U_CRT_DOUBLE@@@Z 100298a6 f i libucrt:output.obj
 0001:000288aa       ?get_parameter_type@?$positional_parameter_base@DV?$string_output_adapter@D@__crt_stdio_output@@@__crt_stdio_output@@CA?AW4parameter_type@12@_J@Z 100298aa f i libucrt:output.obj
 0001:000288ae       ?get_parameter_type@?$positional_parameter_base@DV?$string_output_adapter@D@__crt_stdio_output@@@__crt_stdio_output@@CA?AW4parameter_type@12@_K@Z 100298ae f i libucrt:output.obj
 0001:000288b2       ?get_parameter_type@?$positional_parameter_base@DV?$string_output_adapter@D@__crt_stdio_output@@@__crt_stdio_output@@CA?AW4parameter_type@12@_W@Z 100298b2 f i libucrt:output.obj
 0001:000288b6       ?get_parameter_type@?$positional_parameter_base@_WV?$stream_output_adapter@_W@__crt_stdio_output@@@__crt_stdio_output@@CA?AW4parameter_type@12@F@Z 100298b6 f i libucrt:output.obj
 0001:000288ba       ?get_parameter_type@?$positional_parameter_base@_WV?$stream_output_adapter@_W@__crt_stdio_output@@@__crt_stdio_output@@CA?AW4parameter_type@12@G@Z 100298ba f i libucrt:output.obj
 0001:000288be       ?get_parameter_type@?$positional_parameter_base@_WV?$stream_output_adapter@_W@__crt_stdio_output@@@__crt_stdio_output@@CA?AW4parameter_type@12@H@Z 100298be f i libucrt:output.obj
 0001:000288c2       ?get_parameter_type@?$positional_parameter_base@_WV?$stream_output_adapter@_W@__crt_stdio_output@@@__crt_stdio_output@@CA?AW4parameter_type@12@I@Z 100298c2 f i libucrt:output.obj
 0001:000288c6       ?get_parameter_type@?$positional_parameter_base@_WV?$stream_output_adapter@_W@__crt_stdio_output@@@__crt_stdio_output@@CA?AW4parameter_type@12@U_CRT_DOUBLE@@@Z 100298c6 f i libucrt:output.obj
 0001:000288ca       ?get_parameter_type@?$positional_parameter_base@_WV?$stream_output_adapter@_W@__crt_stdio_output@@@__crt_stdio_output@@CA?AW4parameter_type@12@_J@Z 100298ca f i libucrt:output.obj
 0001:000288ce       ?get_parameter_type@?$positional_parameter_base@_WV?$stream_output_adapter@_W@__crt_stdio_output@@@__crt_stdio_output@@CA?AW4parameter_type@12@_K@Z 100298ce f i libucrt:output.obj
 0001:000288d2       ?get_parameter_type@?$positional_parameter_base@_WV?$stream_output_adapter@_W@__crt_stdio_output@@@__crt_stdio_output@@CA?AW4parameter_type@12@_W@Z 100298d2 f i libucrt:output.obj
 0001:000288d6       ?get_parameter_type@?$positional_parameter_base@_WV?$string_output_adapter@_W@__crt_stdio_output@@@__crt_stdio_output@@CA?AW4parameter_type@12@F@Z 100298d6 f i libucrt:output.obj
 0001:000288da       ?get_parameter_type@?$positional_parameter_base@_WV?$string_output_adapter@_W@__crt_stdio_output@@@__crt_stdio_output@@CA?AW4parameter_type@12@G@Z 100298da f i libucrt:output.obj
 0001:000288de       ?get_parameter_type@?$positional_parameter_base@_WV?$string_output_adapter@_W@__crt_stdio_output@@@__crt_stdio_output@@CA?AW4parameter_type@12@H@Z 100298de f i libucrt:output.obj
 0001:000288e2       ?get_parameter_type@?$positional_parameter_base@_WV?$string_output_adapter@_W@__crt_stdio_output@@@__crt_stdio_output@@CA?AW4parameter_type@12@I@Z 100298e2 f i libucrt:output.obj
 0001:000288e6       ?get_parameter_type@?$positional_parameter_base@_WV?$string_output_adapter@_W@__crt_stdio_output@@@__crt_stdio_output@@CA?AW4parameter_type@12@U_CRT_DOUBLE@@@Z 100298e6 f i libucrt:output.obj
 0001:000288ea       ?get_parameter_type@?$positional_parameter_base@_WV?$string_output_adapter@_W@__crt_stdio_output@@@__crt_stdio_output@@CA?AW4parameter_type@12@_J@Z 100298ea f i libucrt:output.obj
 0001:000288ee       ?get_parameter_type@?$positional_parameter_base@_WV?$string_output_adapter@_W@__crt_stdio_output@@@__crt_stdio_output@@CA?AW4parameter_type@12@_K@Z 100298ee f i libucrt:output.obj
 0001:000288f2       ?get_parameter_type@?$positional_parameter_base@_WV?$string_output_adapter@_W@__crt_stdio_output@@@__crt_stdio_output@@CA?AW4parameter_type@12@_W@Z 100298f2 f i libucrt:output.obj
 0001:000288f6       ?has_flag@?$output_processor@DV?$stream_output_adapter@D@__crt_stdio_output@@V?$format_validation_base@DV?$stream_output_adapter@D@__crt_stdio_output@@@2@@__crt_stdio_output@@ABE_NI@Z 100298f6 f i libucrt:output.obj
 0001:00028908       ?has_flag@?$output_processor@DV?$stream_output_adapter@D@__crt_stdio_output@@V?$positional_parameter_base@DV?$stream_output_adapter@D@__crt_stdio_output@@@2@@__crt_stdio_output@@ABE_NI@Z 10029908 f i libucrt:output.obj
 0001:0002891a       ?has_flag@?$output_processor@DV?$stream_output_adapter@D@__crt_stdio_output@@V?$standard_base@DV?$stream_output_adapter@D@__crt_stdio_output@@@2@@__crt_stdio_output@@ABE_NI@Z 1002991a f i libucrt:output.obj
 0001:0002892c       ?has_flag@?$output_processor@DV?$string_output_adapter@D@__crt_stdio_output@@V?$format_validation_base@DV?$string_output_adapter@D@__crt_stdio_output@@@2@@__crt_stdio_output@@ABE_NI@Z 1002992c f i libucrt:output.obj
 0001:0002893e       ?has_flag@?$output_processor@DV?$string_output_adapter@D@__crt_stdio_output@@V?$positional_parameter_base@DV?$string_output_adapter@D@__crt_stdio_output@@@2@@__crt_stdio_output@@ABE_NI@Z 1002993e f i libucrt:output.obj
 0001:00028950       ?has_flag@?$output_processor@DV?$string_output_adapter@D@__crt_stdio_output@@V?$standard_base@DV?$string_output_adapter@D@__crt_stdio_output@@@2@@__crt_stdio_output@@ABE_NI@Z 10029950 f i libucrt:output.obj
 0001:00028962       ?has_flag@?$output_processor@_WV?$stream_output_adapter@_W@__crt_stdio_output@@V?$format_validation_base@_WV?$stream_output_adapter@_W@__crt_stdio_output@@@2@@__crt_stdio_output@@ABE_NI@Z 10029962 f i libucrt:output.obj
 0001:00028974       ?has_flag@?$output_processor@_WV?$stream_output_adapter@_W@__crt_stdio_output@@V?$positional_parameter_base@_WV?$stream_output_adapter@_W@__crt_stdio_output@@@2@@__crt_stdio_output@@ABE_NI@Z 10029974 f i libucrt:output.obj
 0001:00028986       ?has_flag@?$output_processor@_WV?$stream_output_adapter@_W@__crt_stdio_output@@V?$standard_base@_WV?$stream_output_adapter@_W@__crt_stdio_output@@@2@@__crt_stdio_output@@ABE_NI@Z 10029986 f i libucrt:output.obj
 0001:00028998       ?has_flag@?$output_processor@_WV?$string_output_adapter@_W@__crt_stdio_output@@V?$format_validation_base@_WV?$string_output_adapter@_W@__crt_stdio_output@@@2@@__crt_stdio_output@@ABE_NI@Z 10029998 f i libucrt:output.obj
 0001:000289aa       ?has_flag@?$output_processor@_WV?$string_output_adapter@_W@__crt_stdio_output@@V?$positional_parameter_base@_WV?$string_output_adapter@_W@__crt_stdio_output@@@2@@__crt_stdio_output@@ABE_NI@Z 100299aa f i libucrt:output.obj
 0001:000289bc       ?has_flag@?$output_processor@_WV?$string_output_adapter@_W@__crt_stdio_output@@V?$standard_base@_WV?$string_output_adapter@_W@__crt_stdio_output@@@2@@__crt_stdio_output@@ABE_NI@Z 100299bc f i libucrt:output.obj
 0001:000289ce       ?is_positional_parameter_reappearance_consistent@?$positional_parameter_base@DV?$stream_output_adapter@D@__crt_stdio_output@@@__crt_stdio_output@@AAE_NABUparameter_data@12@W4parameter_type@12@DW4length_modifier@2@@Z 100299ce f i libucrt:output.obj
 0001:00028ae8       ?is_positional_parameter_reappearance_consistent@?$positional_parameter_base@DV?$string_output_adapter@D@__crt_stdio_output@@@__crt_stdio_output@@AAE_NABUparameter_data@12@W4parameter_type@12@DW4length_modifier@2@@Z 10029ae8 f i libucrt:output.obj
 0001:00028c02       ?is_positional_parameter_reappearance_consistent@?$positional_parameter_base@_WV?$stream_output_adapter@_W@__crt_stdio_output@@@__crt_stdio_output@@AAE_NABUparameter_data@12@W4parameter_type@12@_WW4length_modifier@2@@Z 10029c02 f i libucrt:output.obj
 0001:00028d1d       ?is_positional_parameter_reappearance_consistent@?$positional_parameter_base@_WV?$string_output_adapter@_W@__crt_stdio_output@@@__crt_stdio_output@@AAE_NABUparameter_data@12@W4parameter_type@12@_WW4length_modifier@2@@Z 10029d1d f i libucrt:output.obj
 0001:00028e38       ?is_string_backed@__crt_stdio_stream@@QBE_NXZ 10029e38 f i libucrt:output.obj
 0001:00028e44       ?maximum_signed_value@__crt_strtox@@YAJK@Z 10029e44 f i libucrt:output.obj
 0001:00028e4a       ?minimum_signed_value@__crt_strtox@@YAJK@Z 10029e4a f i libucrt:output.obj
 0001:00028e50       ?narrow_null_string@?$output_processor@DV?$stream_output_adapter@D@__crt_stdio_output@@V?$format_validation_base@DV?$stream_output_adapter@D@__crt_stdio_output@@@2@@__crt_stdio_output@@CAPADXZ 10029e50 f i libucrt:output.obj
 0001:00028e56       ?narrow_null_string@?$output_processor@DV?$stream_output_adapter@D@__crt_stdio_output@@V?$positional_parameter_base@DV?$stream_output_adapter@D@__crt_stdio_output@@@2@@__crt_stdio_output@@CAPADXZ 10029e56 f i libucrt:output.obj
 0001:00028e5c       ?narrow_null_string@?$output_processor@DV?$stream_output_adapter@D@__crt_stdio_output@@V?$standard_base@DV?$stream_output_adapter@D@__crt_stdio_output@@@2@@__crt_stdio_output@@CAPADXZ 10029e5c f i libucrt:output.obj
 0001:00028e62       ?narrow_null_string@?$output_processor@DV?$string_output_adapter@D@__crt_stdio_output@@V?$format_validation_base@DV?$string_output_adapter@D@__crt_stdio_output@@@2@@__crt_stdio_output@@CAPADXZ 10029e62 f i libucrt:output.obj
 0001:00028e68       ?narrow_null_string@?$output_processor@DV?$string_output_adapter@D@__crt_stdio_output@@V?$positional_parameter_base@DV?$string_output_adapter@D@__crt_stdio_output@@@2@@__crt_stdio_output@@CAPADXZ 10029e68 f i libucrt:output.obj
 0001:00028e6e       ?narrow_null_string@?$output_processor@DV?$string_output_adapter@D@__crt_stdio_output@@V?$standard_base@DV?$string_output_adapter@D@__crt_stdio_output@@@2@@__crt_stdio_output@@CAPADXZ 10029e6e f i libucrt:output.obj
 0001:00028e74       ?narrow_null_string@?$output_processor@_WV?$stream_output_adapter@_W@__crt_stdio_output@@V?$format_validation_base@_WV?$stream_output_adapter@_W@__crt_stdio_output@@@2@@__crt_stdio_output@@CAPADXZ 10029e74 f i libucrt:output.obj
 0001:00028e7a       ?narrow_null_string@?$output_processor@_WV?$stream_output_adapter@_W@__crt_stdio_output@@V?$positional_parameter_base@_WV?$stream_output_adapter@_W@__crt_stdio_output@@@2@@__crt_stdio_output@@CAPADXZ 10029e7a f i libucrt:output.obj
 0001:00028e80       ?narrow_null_string@?$output_processor@_WV?$stream_output_adapter@_W@__crt_stdio_output@@V?$standard_base@_WV?$stream_output_adapter@_W@__crt_stdio_output@@@2@@__crt_stdio_output@@CAPADXZ 10029e80 f i libucrt:output.obj
 0001:00028e86       ?narrow_null_string@?$output_processor@_WV?$string_output_adapter@_W@__crt_stdio_output@@V?$format_validation_base@_WV?$string_output_adapter@_W@__crt_stdio_output@@@2@@__crt_stdio_output@@CAPADXZ 10029e86 f i libucrt:output.obj
 0001:00028e8c       ?narrow_null_string@?$output_processor@_WV?$string_output_adapter@_W@__crt_stdio_output@@V?$positional_parameter_base@_WV?$string_output_adapter@_W@__crt_stdio_output@@@2@@__crt_stdio_output@@CAPADXZ 10029e8c f i libucrt:output.obj
 0001:00028e92       ?narrow_null_string@?$output_processor@_WV?$string_output_adapter@_W@__crt_stdio_output@@V?$standard_base@_WV?$string_output_adapter@_W@__crt_stdio_output@@@2@@__crt_stdio_output@@CAPADXZ 10029e92 f i libucrt:output.obj
 0001:00028e98       ?parse_digit@__crt_strtox@@YAID@Z 10029e98 f i libucrt:output.obj
 0001:00028ed2       ?parse_digit@__crt_strtox@@YAI_W@Z 10029ed2 f i libucrt:output.obj
 0001:0002909a       ?parse_int_from_format_string@?$output_processor@DV?$stream_output_adapter@D@__crt_stdio_output@@V?$format_validation_base@DV?$stream_output_adapter@D@__crt_stdio_output@@@2@@__crt_stdio_output@@AAE_NQAH@Z 1002a09a f i libucrt:output.obj
 0001:00029112       ?parse_int_from_format_string@?$output_processor@DV?$stream_output_adapter@D@__crt_stdio_output@@V?$positional_parameter_base@DV?$stream_output_adapter@D@__crt_stdio_output@@@2@@__crt_stdio_output@@AAE_NQAH@Z 1002a112 f i libucrt:output.obj
 0001:0002918a       ?parse_int_from_format_string@?$output_processor@DV?$stream_output_adapter@D@__crt_stdio_output@@V?$standard_base@DV?$stream_output_adapter@D@__crt_stdio_output@@@2@@__crt_stdio_output@@AAE_NQAH@Z 1002a18a f i libucrt:output.obj
 0001:00029202       ?parse_int_from_format_string@?$output_processor@DV?$string_output_adapter@D@__crt_stdio_output@@V?$format_validation_base@DV?$string_output_adapter@D@__crt_stdio_output@@@2@@__crt_stdio_output@@AAE_NQAH@Z 1002a202 f i libucrt:output.obj
 0001:0002927a       ?parse_int_from_format_string@?$output_processor@DV?$string_output_adapter@D@__crt_stdio_output@@V?$positional_parameter_base@DV?$string_output_adapter@D@__crt_stdio_output@@@2@@__crt_stdio_output@@AAE_NQAH@Z 1002a27a f i libucrt:output.obj
 0001:000292f2       ?parse_int_from_format_string@?$output_processor@DV?$string_output_adapter@D@__crt_stdio_output@@V?$standard_base@DV?$string_output_adapter@D@__crt_stdio_output@@@2@@__crt_stdio_output@@AAE_NQAH@Z 1002a2f2 f i libucrt:output.obj
 0001:0002936a       ?parse_int_from_format_string@?$output_processor@_WV?$stream_output_adapter@_W@__crt_stdio_output@@V?$format_validation_base@_WV?$stream_output_adapter@_W@__crt_stdio_output@@@2@@__crt_stdio_output@@AAE_NQAH@Z 1002a36a f i libucrt:output.obj
 0001:000293e4       ?parse_int_from_format_string@?$output_processor@_WV?$stream_output_adapter@_W@__crt_stdio_output@@V?$positional_parameter_base@_WV?$stream_output_adapter@_W@__crt_stdio_output@@@2@@__crt_stdio_output@@AAE_NQAH@Z 1002a3e4 f i libucrt:output.obj
 0001:0002945e       ?parse_int_from_format_string@?$output_processor@_WV?$stream_output_adapter@_W@__crt_stdio_output@@V?$standard_base@_WV?$stream_output_adapter@_W@__crt_stdio_output@@@2@@__crt_stdio_output@@AAE_NQAH@Z 1002a45e f i libucrt:output.obj
 0001:000294d8       ?parse_int_from_format_string@?$output_processor@_WV?$string_output_adapter@_W@__crt_stdio_output@@V?$format_validation_base@_WV?$string_output_adapter@_W@__crt_stdio_output@@@2@@__crt_stdio_output@@AAE_NQAH@Z 1002a4d8 f i libucrt:output.obj
 0001:00029552       ?parse_int_from_format_string@?$output_processor@_WV?$string_output_adapter@_W@__crt_stdio_output@@V?$positional_parameter_base@_WV?$string_output_adapter@_W@__crt_stdio_output@@@2@@__crt_stdio_output@@AAE_NQAH@Z 1002a552 f i libucrt:output.obj
 0001:000295cc       ?parse_int_from_format_string@?$output_processor@_WV?$string_output_adapter@_W@__crt_stdio_output@@V?$standard_base@_WV?$string_output_adapter@_W@__crt_stdio_output@@@2@@__crt_stdio_output@@AAE_NQAH@Z 1002a5cc f i libucrt:output.obj
 0001:00029646       ?process@?$output_processor@DV?$stream_output_adapter@D@__crt_stdio_output@@V?$format_validation_base@DV?$stream_output_adapter@D@__crt_stdio_output@@@2@@__crt_stdio_output@@QAEHXZ 1002a646 f i libucrt:output.obj
 0001:000298fe       ?process@?$output_processor@DV?$stream_output_adapter@D@__crt_stdio_output@@V?$positional_parameter_base@DV?$stream_output_adapter@D@__crt_stdio_output@@@2@@__crt_stdio_output@@QAEHXZ 1002a8fe f i libucrt:output.obj
 0001:00029bd2       ?process@?$output_processor@DV?$stream_output_adapter@D@__crt_stdio_output@@V?$standard_base@DV?$stream_output_adapter@D@__crt_stdio_output@@@2@@__crt_stdio_output@@QAEHXZ 1002abd2 f i libucrt:output.obj
 0001:00029e7e       ?process@?$output_processor@DV?$string_output_adapter@D@__crt_stdio_output@@V?$format_validation_base@DV?$string_output_adapter@D@__crt_stdio_output@@@2@@__crt_stdio_output@@QAEHXZ 1002ae7e f i libucrt:output.obj
 0001:0002a15e       ?process@?$output_processor@DV?$string_output_adapter@D@__crt_stdio_output@@V?$positional_parameter_base@DV?$string_output_adapter@D@__crt_stdio_output@@@2@@__crt_stdio_output@@QAEHXZ 1002b15e f i libucrt:output.obj
 0001:0002a45e       ?process@?$output_processor@DV?$string_output_adapter@D@__crt_stdio_output@@V?$standard_base@DV?$string_output_adapter@D@__crt_stdio_output@@@2@@__crt_stdio_output@@QAEHXZ 1002b45e f i libucrt:output.obj
 0001:0002a732       ?process@?$output_processor@_WV?$stream_output_adapter@_W@__crt_stdio_output@@V?$format_validation_base@_WV?$stream_output_adapter@_W@__crt_stdio_output@@@2@@__crt_stdio_output@@QAEHXZ 1002b732 f i libucrt:output.obj
 0001:0002a94e       ?process@?$output_processor@_WV?$stream_output_adapter@_W@__crt_stdio_output@@V?$positional_parameter_base@_WV?$stream_output_adapter@_W@__crt_stdio_output@@@2@@__crt_stdio_output@@QAEHXZ 1002b94e f i libucrt:output.obj
 0001:0002aba2       ?process@?$output_processor@_WV?$stream_output_adapter@_W@__crt_stdio_output@@V?$standard_base@_WV?$stream_output_adapter@_W@__crt_stdio_output@@@2@@__crt_stdio_output@@QAEHXZ 1002bba2 f i libucrt:output.obj
 0001:0002adb2       ?process@?$output_processor@_WV?$string_output_adapter@_W@__crt_stdio_output@@V?$format_validation_base@_WV?$string_output_adapter@_W@__crt_stdio_output@@@2@@__crt_stdio_output@@QAEHXZ 1002bdb2 f i libucrt:output.obj
 0001:0002b002       ?process@?$output_processor@_WV?$string_output_adapter@_W@__crt_stdio_output@@V?$positional_parameter_base@_WV?$string_output_adapter@_W@__crt_stdio_output@@@2@@__crt_stdio_output@@QAEHXZ 1002c002 f i libucrt:output.obj
 0001:0002b26a       ?process@?$output_processor@_WV?$string_output_adapter@_W@__crt_stdio_output@@V?$standard_base@_WV?$string_output_adapter@_W@__crt_stdio_output@@@2@@__crt_stdio_output@@QAEHXZ 1002c26a f i libucrt:output.obj
 0001:0002b4aa       ?public_stream@__crt_stdio_stream@@QBEPAU_iobuf@@XZ 1002c4aa f i libucrt:output.obj
 0001:0002b4ad       ?restore_state@?$c_string_character_source@D@__crt_strtox@@QAE_NQBD@Z 1002c4ad f i libucrt:output.obj
 0001:0002b4bd       ?restore_state@?$c_string_character_source@_W@__crt_strtox@@QAE_NQB_W@Z 1002c4bd f i libucrt:output.obj
 0001:0002b4cd       ?save_state@?$c_string_character_source@D@__crt_strtox@@QBEPBDXZ 1002c4cd f i libucrt:output.obj
 0001:0002b4d0       ?save_state@?$c_string_character_source@_W@__crt_strtox@@QBEPB_WXZ 1002c4d0 f i libucrt:output.obj
 0001:0002b4d3       ?set_flag@?$output_processor@DV?$stream_output_adapter@D@__crt_stdio_output@@V?$format_validation_base@DV?$stream_output_adapter@D@__crt_stdio_output@@@2@@__crt_stdio_output@@AAEXI@Z 1002c4d3 f i libucrt:output.obj
 0001:0002b4e2       ?set_flag@?$output_processor@DV?$stream_output_adapter@D@__crt_stdio_output@@V?$positional_parameter_base@DV?$stream_output_adapter@D@__crt_stdio_output@@@2@@__crt_stdio_output@@AAEXI@Z 1002c4e2 f i libucrt:output.obj
 0001:0002b4f1       ?set_flag@?$output_processor@DV?$stream_output_adapter@D@__crt_stdio_output@@V?$standard_base@DV?$stream_output_adapter@D@__crt_stdio_output@@@2@@__crt_stdio_output@@AAEXI@Z 1002c4f1 f i libucrt:output.obj
 0001:0002b500       ?set_flag@?$output_processor@DV?$string_output_adapter@D@__crt_stdio_output@@V?$format_validation_base@DV?$string_output_adapter@D@__crt_stdio_output@@@2@@__crt_stdio_output@@AAEXI@Z 1002c500 f i libucrt:output.obj
 0001:0002b50f       ?set_flag@?$output_processor@DV?$string_output_adapter@D@__crt_stdio_output@@V?$positional_parameter_base@DV?$string_output_adapter@D@__crt_stdio_output@@@2@@__crt_stdio_output@@AAEXI@Z 1002c50f f i libucrt:output.obj
 0001:0002b51e       ?set_flag@?$output_processor@DV?$string_output_adapter@D@__crt_stdio_output@@V?$standard_base@DV?$string_output_adapter@D@__crt_stdio_output@@@2@@__crt_stdio_output@@AAEXI@Z 1002c51e f i libucrt:output.obj
 0001:0002b52d       ?set_flag@?$output_processor@_WV?$stream_output_adapter@_W@__crt_stdio_output@@V?$format_validation_base@_WV?$stream_output_adapter@_W@__crt_stdio_output@@@2@@__crt_stdio_output@@AAEXI@Z 1002c52d f i libucrt:output.obj
 0001:0002b53c       ?set_flag@?$output_processor@_WV?$stream_output_adapter@_W@__crt_stdio_output@@V?$positional_parameter_base@_WV?$stream_output_adapter@_W@__crt_stdio_output@@@2@@__crt_stdio_output@@AAEXI@Z 1002c53c f i libucrt:output.obj
 0001:0002b54b       ?set_flag@?$output_processor@_WV?$stream_output_adapter@_W@__crt_stdio_output@@V?$standard_base@_WV?$stream_output_adapter@_W@__crt_stdio_output@@@2@@__crt_stdio_output@@AAEXI@Z 1002c54b f i libucrt:output.obj
 0001:0002b55a       ?set_flag@?$output_processor@_WV?$string_output_adapter@_W@__crt_stdio_output@@V?$format_validation_base@_WV?$string_output_adapter@_W@__crt_stdio_output@@@2@@__crt_stdio_output@@AAEXI@Z 1002c55a f i libucrt:output.obj
 0001:0002b569       ?set_flag@?$output_processor@_WV?$string_output_adapter@_W@__crt_stdio_output@@V?$positional_parameter_base@_WV?$string_output_adapter@_W@__crt_stdio_output@@@2@@__crt_stdio_output@@AAEXI@Z 1002c569 f i libucrt:output.obj
 0001:0002b578       ?set_flag@?$output_processor@_WV?$string_output_adapter@_W@__crt_stdio_output@@V?$standard_base@_WV?$string_output_adapter@_W@__crt_stdio_output@@@2@@__crt_stdio_output@@AAEXI@Z 1002c578 f i libucrt:output.obj
 0001:0002b587       ?should_format@?$positional_parameter_base@DV?$stream_output_adapter@D@__crt_stdio_output@@@__crt_stdio_output@@IAE_NXZ 1002c587 f i libucrt:output.obj
 0001:0002b59d       ?should_format@?$positional_parameter_base@DV?$string_output_adapter@D@__crt_stdio_output@@@__crt_stdio_output@@IAE_NXZ 1002c59d f i libucrt:output.obj
 0001:0002b5b3       ?should_format@?$positional_parameter_base@_WV?$stream_output_adapter@_W@__crt_stdio_output@@@__crt_stdio_output@@IAE_NXZ 1002c5b3 f i libucrt:output.obj
 0001:0002b5c9       ?should_format@?$positional_parameter_base@_WV?$string_output_adapter@_W@__crt_stdio_output@@@__crt_stdio_output@@IAE_NXZ 1002c5c9 f i libucrt:output.obj
 0001:0002b5df       ?should_format@?$standard_base@DV?$stream_output_adapter@D@__crt_stdio_output@@@__crt_stdio_output@@IAE_NXZ 1002c5df f i libucrt:output.obj
 0001:0002b5e2       ?should_format@?$standard_base@DV?$string_output_adapter@D@__crt_stdio_output@@@__crt_stdio_output@@IAE_NXZ 1002c5e2 f i libucrt:output.obj
 0001:0002b5e5       ?should_format@?$standard_base@_WV?$stream_output_adapter@_W@__crt_stdio_output@@@__crt_stdio_output@@IAE_NXZ 1002c5e5 f i libucrt:output.obj
 0001:0002b5e8       ?should_format@?$standard_base@_WV?$string_output_adapter@_W@__crt_stdio_output@@@__crt_stdio_output@@IAE_NXZ 1002c5e8 f i libucrt:output.obj
 0001:0002b5eb       ?should_skip_normal_state_processing@?$positional_parameter_base@DV?$stream_output_adapter@D@__crt_stdio_output@@@__crt_stdio_output@@IAE_NXZ 1002c5eb f i libucrt:output.obj
 0001:0002b613       ?should_skip_normal_state_processing@?$positional_parameter_base@DV?$string_output_adapter@D@__crt_stdio_output@@@__crt_stdio_output@@IAE_NXZ 1002c613 f i libucrt:output.obj
 0001:0002b63b       ?should_skip_normal_state_processing@?$positional_parameter_base@_WV?$stream_output_adapter@_W@__crt_stdio_output@@@__crt_stdio_output@@IAE_NXZ 1002c63b f i libucrt:output.obj
 0001:0002b663       ?should_skip_normal_state_processing@?$positional_parameter_base@_WV?$string_output_adapter@_W@__crt_stdio_output@@@__crt_stdio_output@@IAE_NXZ 1002c663 f i libucrt:output.obj
 0001:0002b68b       ?should_skip_normal_state_processing@?$standard_base@DV?$stream_output_adapter@D@__crt_stdio_output@@@__crt_stdio_output@@IAE_NXZ 1002c68b f i libucrt:output.obj
 0001:0002b68e       ?should_skip_normal_state_processing@?$standard_base@DV?$string_output_adapter@D@__crt_stdio_output@@@__crt_stdio_output@@IAE_NXZ 1002c68e f i libucrt:output.obj
 0001:0002b691       ?should_skip_normal_state_processing@?$standard_base@_WV?$stream_output_adapter@_W@__crt_stdio_output@@@__crt_stdio_output@@IAE_NXZ 1002c691 f i libucrt:output.obj
 0001:0002b694       ?should_skip_normal_state_processing@?$standard_base@_WV?$string_output_adapter@_W@__crt_stdio_output@@@__crt_stdio_output@@IAE_NXZ 1002c694 f i libucrt:output.obj
 0001:0002b697       ?should_skip_type_state_output@?$positional_parameter_base@DV?$stream_output_adapter@D@__crt_stdio_output@@@__crt_stdio_output@@IBE_NXZ 1002c697 f i libucrt:output.obj
 0001:0002b6ae       ?should_skip_type_state_output@?$positional_parameter_base@DV?$string_output_adapter@D@__crt_stdio_output@@@__crt_stdio_output@@IBE_NXZ 1002c6ae f i libucrt:output.obj
 0001:0002b6c5       ?should_skip_type_state_output@?$positional_parameter_base@_WV?$stream_output_adapter@_W@__crt_stdio_output@@@__crt_stdio_output@@IBE_NXZ 1002c6c5 f i libucrt:output.obj
 0001:0002b6dc       ?should_skip_type_state_output@?$positional_parameter_base@_WV?$string_output_adapter@_W@__crt_stdio_output@@@__crt_stdio_output@@IBE_NXZ 1002c6dc f i libucrt:output.obj
 0001:0002b6f3       ?should_skip_type_state_output@?$standard_base@DV?$stream_output_adapter@D@__crt_stdio_output@@@__crt_stdio_output@@IBE_NXZ 1002c6f3 f i libucrt:output.obj
 0001:0002b6f6       ?should_skip_type_state_output@?$standard_base@DV?$string_output_adapter@D@__crt_stdio_output@@@__crt_stdio_output@@IBE_NXZ 1002c6f6 f i libucrt:output.obj
 0001:0002b6f9       ?should_skip_type_state_output@?$standard_base@_WV?$stream_output_adapter@_W@__crt_stdio_output@@@__crt_stdio_output@@IBE_NXZ 1002c6f9 f i libucrt:output.obj
 0001:0002b6fc       ?should_skip_type_state_output@?$standard_base@_WV?$string_output_adapter@_W@__crt_stdio_output@@@__crt_stdio_output@@IBE_NXZ 1002c6fc f i libucrt:output.obj
 0001:0002b6ff       ?state_case_dot@?$output_processor@DV?$stream_output_adapter@D@__crt_stdio_output@@V?$format_validation_base@DV?$stream_output_adapter@D@__crt_stdio_output@@@2@@__crt_stdio_output@@AAE_NXZ 1002c6ff f i libucrt:output.obj
 0001:0002b706       ?state_case_dot@?$output_processor@DV?$stream_output_adapter@D@__crt_stdio_output@@V?$positional_parameter_base@DV?$stream_output_adapter@D@__crt_stdio_output@@@2@@__crt_stdio_output@@AAE_NXZ 1002c706 f i libucrt:output.obj
 0001:0002b70d       ?state_case_dot@?$output_processor@DV?$stream_output_adapter@D@__crt_stdio_output@@V?$standard_base@DV?$stream_output_adapter@D@__crt_stdio_output@@@2@@__crt_stdio_output@@AAE_NXZ 1002c70d f i libucrt:output.obj
 0001:0002b714       ?state_case_dot@?$output_processor@DV?$string_output_adapter@D@__crt_stdio_output@@V?$format_validation_base@DV?$string_output_adapter@D@__crt_stdio_output@@@2@@__crt_stdio_output@@AAE_NXZ 1002c714 f i libucrt:output.obj
 0001:0002b71b       ?state_case_dot@?$output_processor@DV?$string_output_adapter@D@__crt_stdio_output@@V?$positional_parameter_base@DV?$string_output_adapter@D@__crt_stdio_output@@@2@@__crt_stdio_output@@AAE_NXZ 1002c71b f i libucrt:output.obj
 0001:0002b722       ?state_case_dot@?$output_processor@DV?$string_output_adapter@D@__crt_stdio_output@@V?$standard_base@DV?$string_output_adapter@D@__crt_stdio_output@@@2@@__crt_stdio_output@@AAE_NXZ 1002c722 f i libucrt:output.obj
 0001:0002b729       ?state_case_dot@?$output_processor@_WV?$stream_output_adapter@_W@__crt_stdio_output@@V?$format_validation_base@_WV?$stream_output_adapter@_W@__crt_stdio_output@@@2@@__crt_stdio_output@@AAE_NXZ 1002c729 f i libucrt:output.obj
 0001:0002b730       ?state_case_dot@?$output_processor@_WV?$stream_output_adapter@_W@__crt_stdio_output@@V?$positional_parameter_base@_WV?$stream_output_adapter@_W@__crt_stdio_output@@@2@@__crt_stdio_output@@AAE_NXZ 1002c730 f i libucrt:output.obj
 0001:0002b737       ?state_case_dot@?$output_processor@_WV?$stream_output_adapter@_W@__crt_stdio_output@@V?$standard_base@_WV?$stream_output_adapter@_W@__crt_stdio_output@@@2@@__crt_stdio_output@@AAE_NXZ 1002c737 f i libucrt:output.obj
 0001:0002b73e       ?state_case_dot@?$output_processor@_WV?$string_output_adapter@_W@__crt_stdio_output@@V?$format_validation_base@_WV?$string_output_adapter@_W@__crt_stdio_output@@@2@@__crt_stdio_output@@AAE_NXZ 1002c73e f i libucrt:output.obj
 0001:0002b745       ?state_case_dot@?$output_processor@_WV?$string_output_adapter@_W@__crt_stdio_output@@V?$positional_parameter_base@_WV?$string_output_adapter@_W@__crt_stdio_output@@@2@@__crt_stdio_output@@AAE_NXZ 1002c745 f i libucrt:output.obj
 0001:0002b74c       ?state_case_dot@?$output_processor@_WV?$string_output_adapter@_W@__crt_stdio_output@@V?$standard_base@_WV?$string_output_adapter@_W@__crt_stdio_output@@@2@@__crt_stdio_output@@AAE_NXZ 1002c74c f i libucrt:output.obj
 0001:0002b753       ?state_case_flag@?$output_processor@DV?$stream_output_adapter@D@__crt_stdio_output@@V?$format_validation_base@DV?$stream_output_adapter@D@__crt_stdio_output@@@2@@__crt_stdio_output@@AAE_NXZ 1002c753 f i libucrt:output.obj
 0001:0002b790       ?state_case_flag@?$output_processor@DV?$stream_output_adapter@D@__crt_stdio_output@@V?$positional_parameter_base@DV?$stream_output_adapter@D@__crt_stdio_output@@@2@@__crt_stdio_output@@AAE_NXZ 1002c790 f i libucrt:output.obj
 0001:0002b7cd       ?state_case_flag@?$output_processor@DV?$stream_output_adapter@D@__crt_stdio_output@@V?$standard_base@DV?$stream_output_adapter@D@__crt_stdio_output@@@2@@__crt_stdio_output@@AAE_NXZ 1002c7cd f i libucrt:output.obj
 0001:0002b80a       ?state_case_flag@?$output_processor@DV?$string_output_adapter@D@__crt_stdio_output@@V?$format_validation_base@DV?$string_output_adapter@D@__crt_stdio_output@@@2@@__crt_stdio_output@@AAE_NXZ 1002c80a f i libucrt:output.obj
 0001:0002b847       ?state_case_flag@?$output_processor@DV?$string_output_adapter@D@__crt_stdio_output@@V?$positional_parameter_base@DV?$string_output_adapter@D@__crt_stdio_output@@@2@@__crt_stdio_output@@AAE_NXZ 1002c847 f i libucrt:output.obj
 0001:0002b884       ?state_case_flag@?$output_processor@DV?$string_output_adapter@D@__crt_stdio_output@@V?$standard_base@DV?$string_output_adapter@D@__crt_stdio_output@@@2@@__crt_stdio_output@@AAE_NXZ 1002c884 f i libucrt:output.obj
 0001:0002b8c1       ?state_case_flag@?$output_processor@_WV?$stream_output_adapter@_W@__crt_stdio_output@@V?$format_validation_base@_WV?$stream_output_adapter@_W@__crt_stdio_output@@@2@@__crt_stdio_output@@AAE_NXZ 1002c8c1 f i libucrt:output.obj
 0001:0002b8fe       ?state_case_flag@?$output_processor@_WV?$stream_output_adapter@_W@__crt_stdio_output@@V?$positional_parameter_base@_WV?$stream_output_adapter@_W@__crt_stdio_output@@@2@@__crt_stdio_output@@AAE_NXZ 1002c8fe f i libucrt:output.obj
 0001:0002b93b       ?state_case_flag@?$output_processor@_WV?$stream_output_adapter@_W@__crt_stdio_output@@V?$standard_base@_WV?$stream_output_adapter@_W@__crt_stdio_output@@@2@@__crt_stdio_output@@AAE_NXZ 1002c93b f i libucrt:output.obj
 0001:0002b978       ?state_case_flag@?$output_processor@_WV?$string_output_adapter@_W@__crt_stdio_output@@V?$format_validation_base@_WV?$string_output_adapter@_W@__crt_stdio_output@@@2@@__crt_stdio_output@@AAE_NXZ 1002c978 f i libucrt:output.obj
 0001:0002b9b5       ?state_case_flag@?$output_processor@_WV?$string_output_adapter@_W@__crt_stdio_output@@V?$positional_parameter_base@_WV?$string_output_adapter@_W@__crt_stdio_output@@@2@@__crt_stdio_output@@AAE_NXZ 1002c9b5 f i libucrt:output.obj
 0001:0002b9f2       ?state_case_flag@?$output_processor@_WV?$string_output_adapter@_W@__crt_stdio_output@@V?$standard_base@_WV?$string_output_adapter@_W@__crt_stdio_output@@@2@@__crt_stdio_output@@AAE_NXZ 1002c9f2 f i libucrt:output.obj
 0001:0002ba2f       ?state_case_normal@?$output_processor@DV?$stream_output_adapter@D@__crt_stdio_output@@V?$format_validation_base@DV?$stream_output_adapter@D@__crt_stdio_output@@@2@@__crt_stdio_output@@AAE_NXZ 1002ca2f f i libucrt:output.obj
 0001:0002baef       ?state_case_normal@?$output_processor@DV?$stream_output_adapter@D@__crt_stdio_output@@V?$positional_parameter_base@DV?$stream_output_adapter@D@__crt_stdio_output@@@2@@__crt_stdio_output@@AAE_NXZ 1002caef f i libucrt:output.obj
 0001:0002bbba       ?state_case_normal@?$output_processor@DV?$stream_output_adapter@D@__crt_stdio_output@@V?$standard_base@DV?$stream_output_adapter@D@__crt_stdio_output@@@2@@__crt_stdio_output@@AAE_NXZ 1002cbba f i libucrt:output.obj
 0001:0002bc7a       ?state_case_normal@?$output_processor@DV?$string_output_adapter@D@__crt_stdio_output@@V?$format_validation_base@DV?$string_output_adapter@D@__crt_stdio_output@@@2@@__crt_stdio_output@@AAE_NXZ 1002cc7a f i libucrt:output.obj
 0001:0002bd76       ?state_case_normal@?$output_processor@DV?$string_output_adapter@D@__crt_stdio_output@@V?$positional_parameter_base@DV?$string_output_adapter@D@__crt_stdio_output@@@2@@__crt_stdio_output@@AAE_NXZ 1002cd76 f i libucrt:output.obj
 0001:0002be7d       ?state_case_normal@?$output_processor@DV?$string_output_adapter@D@__crt_stdio_output@@V?$standard_base@DV?$string_output_adapter@D@__crt_stdio_output@@@2@@__crt_stdio_output@@AAE_NXZ 1002ce7d f i libucrt:output.obj
 0001:0002bf79       ?state_case_normal@?$output_processor@_WV?$stream_output_adapter@_W@__crt_stdio_output@@V?$format_validation_base@_WV?$stream_output_adapter@_W@__crt_stdio_output@@@2@@__crt_stdio_output@@AAE_NXZ 1002cf79 f i libucrt:output.obj
 0001:0002bf97       ?state_case_normal@?$output_processor@_WV?$stream_output_adapter@_W@__crt_stdio_output@@V?$positional_parameter_base@_WV?$stream_output_adapter@_W@__crt_stdio_output@@@2@@__crt_stdio_output@@AAE_NXZ 1002cf97 f i libucrt:output.obj
 0001:0002bfc4       ?state_case_normal@?$output_processor@_WV?$stream_output_adapter@_W@__crt_stdio_output@@V?$standard_base@_WV?$stream_output_adapter@_W@__crt_stdio_output@@@2@@__crt_stdio_output@@AAE_NXZ 1002cfc4 f i libucrt:output.obj
 0001:0002bfe2       ?state_case_normal@?$output_processor@_WV?$string_output_adapter@_W@__crt_stdio_output@@V?$format_validation_base@_WV?$string_output_adapter@_W@__crt_stdio_output@@@2@@__crt_stdio_output@@AAE_NXZ 1002cfe2 f i libucrt:output.obj
 0001:0002c02a       ?state_case_normal@?$output_processor@_WV?$string_output_adapter@_W@__crt_stdio_output@@V?$positional_parameter_base@_WV?$string_output_adapter@_W@__crt_stdio_output@@@2@@__crt_stdio_output@@AAE_NXZ 1002d02a f i libucrt:output.obj
 0001:0002c07d       ?state_case_normal@?$output_processor@_WV?$string_output_adapter@_W@__crt_stdio_output@@V?$standard_base@_WV?$string_output_adapter@_W@__crt_stdio_output@@@2@@__crt_stdio_output@@AAE_NXZ 1002d07d f i libucrt:output.obj
 0001:0002c0c5       ?state_case_normal_common@?$output_processor@DV?$stream_output_adapter@D@__crt_stdio_output@@V?$format_validation_base@DV?$stream_output_adapter@D@__crt_stdio_output@@@2@@__crt_stdio_output@@AAE_NXZ 1002d0c5 f i libucrt:output.obj
 0001:0002c15c       ?state_case_normal_common@?$output_processor@DV?$stream_output_adapter@D@__crt_stdio_output@@V?$positional_parameter_base@DV?$stream_output_adapter@D@__crt_stdio_output@@@2@@__crt_stdio_output@@AAE_NXZ 1002d15c f i libucrt:output.obj
 0001:0002c1f3       ?state_case_normal_common@?$output_processor@DV?$stream_output_adapter@D@__crt_stdio_output@@V?$standard_base@DV?$stream_output_adapter@D@__crt_stdio_output@@@2@@__crt_stdio_output@@AAE_NXZ 1002d1f3 f i libucrt:output.obj
 0001:0002c28a       ?state_case_normal_common@?$output_processor@DV?$string_output_adapter@D@__crt_stdio_output@@V?$format_validation_base@DV?$string_output_adapter@D@__crt_stdio_output@@@2@@__crt_stdio_output@@AAE_NXZ 1002d28a f i libucrt:output.obj
 0001:0002c36a       ?state_case_normal_common@?$output_processor@DV?$string_output_adapter@D@__crt_stdio_output@@V?$positional_parameter_base@DV?$string_output_adapter@D@__crt_stdio_output@@@2@@__crt_stdio_output@@AAE_NXZ 1002d36a f i libucrt:output.obj
 0001:0002c44a       ?state_case_normal_common@?$output_processor@DV?$string_output_adapter@D@__crt_stdio_output@@V?$standard_base@DV?$string_output_adapter@D@__crt_stdio_output@@@2@@__crt_stdio_output@@AAE_NXZ 1002d44a f i libucrt:output.obj
 0001:0002c52a       ?state_case_normal_common@?$output_processor@_WV?$stream_output_adapter@_W@__crt_stdio_output@@V?$format_validation_base@_WV?$stream_output_adapter@_W@__crt_stdio_output@@@2@@__crt_stdio_output@@AAE_NXZ 1002d52a f i libucrt:output.obj
 0001:0002c548       ?state_case_normal_common@?$output_processor@_WV?$stream_output_adapter@_W@__crt_stdio_output@@V?$positional_parameter_base@_WV?$stream_output_adapter@_W@__crt_stdio_output@@@2@@__crt_stdio_output@@AAE_NXZ 1002d548 f i libucrt:output.obj
 0001:0002c566       ?state_case_normal_common@?$output_processor@_WV?$stream_output_adapter@_W@__crt_stdio_output@@V?$standard_base@_WV?$stream_output_adapter@_W@__crt_stdio_output@@@2@@__crt_stdio_output@@AAE_NXZ 1002d566 f i libucrt:output.obj
 0001:0002c584       ?state_case_normal_common@?$output_processor@_WV?$string_output_adapter@_W@__crt_stdio_output@@V?$format_validation_base@_WV?$string_output_adapter@_W@__crt_stdio_output@@@2@@__crt_stdio_output@@AAE_NXZ 1002d584 f i libucrt:output.obj
 0001:0002c5cc       ?state_case_normal_common@?$output_processor@_WV?$string_output_adapter@_W@__crt_stdio_output@@V?$positional_parameter_base@_WV?$string_output_adapter@_W@__crt_stdio_output@@@2@@__crt_stdio_output@@AAE_NXZ 1002d5cc f i libucrt:output.obj
 0001:0002c614       ?state_case_normal_common@?$output_processor@_WV?$string_output_adapter@_W@__crt_stdio_output@@V?$standard_base@_WV?$string_output_adapter@_W@__crt_stdio_output@@@2@@__crt_stdio_output@@AAE_NXZ 1002d614 f i libucrt:output.obj
 0001:0002c65c       ?state_case_normal_tchar@?$output_processor@DV?$stream_output_adapter@D@__crt_stdio_output@@V?$format_validation_base@DV?$stream_output_adapter@D@__crt_stdio_output@@@2@@__crt_stdio_output@@AAE_ND@Z 1002d65c f i libucrt:output.obj
 0001:0002c6e3       ?state_case_normal_tchar@?$output_processor@DV?$stream_output_adapter@D@__crt_stdio_output@@V?$positional_parameter_base@DV?$stream_output_adapter@D@__crt_stdio_output@@@2@@__crt_stdio_output@@AAE_ND@Z 1002d6e3 f i libucrt:output.obj
 0001:0002c76a       ?state_case_normal_tchar@?$output_processor@DV?$stream_output_adapter@D@__crt_stdio_output@@V?$standard_base@DV?$stream_output_adapter@D@__crt_stdio_output@@@2@@__crt_stdio_output@@AAE_ND@Z 1002d76a f i libucrt:output.obj
 0001:0002c7f1       ?state_case_normal_tchar@?$output_processor@DV?$string_output_adapter@D@__crt_stdio_output@@V?$format_validation_base@DV?$string_output_adapter@D@__crt_stdio_output@@@2@@__crt_stdio_output@@AAE_ND@Z 1002d7f1 f i libucrt:output.obj
 0001:0002c89c       ?state_case_normal_tchar@?$output_processor@DV?$string_output_adapter@D@__crt_stdio_output@@V?$positional_parameter_base@DV?$string_output_adapter@D@__crt_stdio_output@@@2@@__crt_stdio_output@@AAE_ND@Z 1002d89c f i libucrt:output.obj
 0001:0002c947       ?state_case_normal_tchar@?$output_processor@DV?$string_output_adapter@D@__crt_stdio_output@@V?$standard_base@DV?$string_output_adapter@D@__crt_stdio_output@@@2@@__crt_stdio_output@@AAE_ND@Z 1002d947 f i libucrt:output.obj
 0001:0002c9f2       ?state_case_normal_tchar@?$output_processor@_WV?$stream_output_adapter@_W@__crt_stdio_output@@V?$format_validation_base@_WV?$stream_output_adapter@_W@__crt_stdio_output@@@2@@__crt_stdio_output@@AAE_N_W@Z 1002d9f2 f i libucrt:output.obj
 0001:0002c9fb       ?state_case_normal_tchar@?$output_processor@_WV?$stream_output_adapter@_W@__crt_stdio_output@@V?$positional_parameter_base@_WV?$stream_output_adapter@_W@__crt_stdio_output@@@2@@__crt_stdio_output@@AAE_N_W@Z 1002d9fb f i libucrt:output.obj
 0001:0002ca04       ?state_case_normal_tchar@?$output_processor@_WV?$stream_output_adapter@_W@__crt_stdio_output@@V?$standard_base@_WV?$stream_output_adapter@_W@__crt_stdio_output@@@2@@__crt_stdio_output@@AAE_N_W@Z 1002da04 f i libucrt:output.obj
 0001:0002ca0d       ?state_case_normal_tchar@?$output_processor@_WV?$string_output_adapter@_W@__crt_stdio_output@@V?$format_validation_base@_WV?$string_output_adapter@_W@__crt_stdio_output@@@2@@__crt_stdio_output@@AAE_N_W@Z 1002da0d f i libucrt:output.obj
 0001:0002ca16       ?state_case_normal_tchar@?$output_processor@_WV?$string_output_adapter@_W@__crt_stdio_output@@V?$positional_parameter_base@_WV?$string_output_adapter@_W@__crt_stdio_output@@@2@@__crt_stdio_output@@AAE_N_W@Z 1002da16 f i libucrt:output.obj
 0001:0002ca1f       ?state_case_normal_tchar@?$output_processor@_WV?$string_output_adapter@_W@__crt_stdio_output@@V?$standard_base@_WV?$string_output_adapter@_W@__crt_stdio_output@@@2@@__crt_stdio_output@@AAE_N_W@Z 1002da1f f i libucrt:output.obj
 0001:0002ca28       ?state_case_percent@?$output_processor@DV?$stream_output_adapter@D@__crt_stdio_output@@V?$format_validation_base@DV?$stream_output_adapter@D@__crt_stdio_output@@@2@@__crt_stdio_output@@AAE_NXZ 1002da28 f i libucrt:output.obj
 0001:0002ca40       ?state_case_percent@?$output_processor@DV?$stream_output_adapter@D@__crt_stdio_output@@V?$positional_parameter_base@DV?$stream_output_adapter@D@__crt_stdio_output@@@2@@__crt_stdio_output@@AAE_NXZ 1002da40 f i libucrt:output.obj
 0001:0002ca58       ?state_case_percent@?$output_processor@DV?$stream_output_adapter@D@__crt_stdio_output@@V?$standard_base@DV?$stream_output_adapter@D@__crt_stdio_output@@@2@@__crt_stdio_output@@AAE_NXZ 1002da58 f i libucrt:output.obj
 0001:0002ca70       ?state_case_percent@?$output_processor@DV?$string_output_adapter@D@__crt_stdio_output@@V?$format_validation_base@DV?$string_output_adapter@D@__crt_stdio_output@@@2@@__crt_stdio_output@@AAE_NXZ 1002da70 f i libucrt:output.obj
 0001:0002ca88       ?state_case_percent@?$output_processor@DV?$string_output_adapter@D@__crt_stdio_output@@V?$positional_parameter_base@DV?$string_output_adapter@D@__crt_stdio_output@@@2@@__crt_stdio_output@@AAE_NXZ 1002da88 f i libucrt:output.obj
 0001:0002caa0       ?state_case_percent@?$output_processor@DV?$string_output_adapter@D@__crt_stdio_output@@V?$standard_base@DV?$string_output_adapter@D@__crt_stdio_output@@@2@@__crt_stdio_output@@AAE_NXZ 1002daa0 f i libucrt:output.obj
 0001:0002cab8       ?state_case_percent@?$output_processor@_WV?$stream_output_adapter@_W@__crt_stdio_output@@V?$format_validation_base@_WV?$stream_output_adapter@_W@__crt_stdio_output@@@2@@__crt_stdio_output@@AAE_NXZ 1002dab8 f i libucrt:output.obj
 0001:0002cad0       ?state_case_percent@?$output_processor@_WV?$stream_output_adapter@_W@__crt_stdio_output@@V?$positional_parameter_base@_WV?$stream_output_adapter@_W@__crt_stdio_output@@@2@@__crt_stdio_output@@AAE_NXZ 1002dad0 f i libucrt:output.obj
 0001:0002cae8       ?state_case_percent@?$output_processor@_WV?$stream_output_adapter@_W@__crt_stdio_output@@V?$standard_base@_WV?$stream_output_adapter@_W@__crt_stdio_output@@@2@@__crt_stdio_output@@AAE_NXZ 1002dae8 f i libucrt:output.obj
 0001:0002cb00       ?state_case_percent@?$output_processor@_WV?$string_output_adapter@_W@__crt_stdio_output@@V?$format_validation_base@_WV?$string_output_adapter@_W@__crt_stdio_output@@@2@@__crt_stdio_output@@AAE_NXZ 1002db00 f i libucrt:output.obj
 0001:0002cb18       ?state_case_percent@?$output_processor@_WV?$string_output_adapter@_W@__crt_stdio_output@@V?$positional_parameter_base@_WV?$string_output_adapter@_W@__crt_stdio_output@@@2@@__crt_stdio_output@@AAE_NXZ 1002db18 f i libucrt:output.obj
 0001:0002cb30       ?state_case_percent@?$output_processor@_WV?$string_output_adapter@_W@__crt_stdio_output@@V?$standard_base@_WV?$string_output_adapter@_W@__crt_stdio_output@@@2@@__crt_stdio_output@@AAE_NXZ 1002db30 f i libucrt:output.obj
 0001:0002cb48       ?state_case_precision@?$output_processor@DV?$stream_output_adapter@D@__crt_stdio_output@@V?$format_validation_base@DV?$stream_output_adapter@D@__crt_stdio_output@@@2@@__crt_stdio_output@@AAE_NXZ 1002db48 f i libucrt:output.obj
 0001:0002cb6e       ?state_case_precision@?$output_processor@DV?$stream_output_adapter@D@__crt_stdio_output@@V?$positional_parameter_base@DV?$stream_output_adapter@D@__crt_stdio_output@@@2@@__crt_stdio_output@@AAE_NXZ 1002db6e f i libucrt:output.obj
 0001:0002cba8       ?state_case_precision@?$output_processor@DV?$stream_output_adapter@D@__crt_stdio_output@@V?$standard_base@DV?$stream_output_adapter@D@__crt_stdio_output@@@2@@__crt_stdio_output@@AAE_NXZ 1002dba8 f i libucrt:output.obj
 0001:0002cbce       ?state_case_precision@?$output_processor@DV?$string_output_adapter@D@__crt_stdio_output@@V?$format_validation_base@DV?$string_output_adapter@D@__crt_stdio_output@@@2@@__crt_stdio_output@@AAE_NXZ 1002dbce f i libucrt:output.obj
 0001:0002cbf4       ?state_case_precision@?$output_processor@DV?$string_output_adapter@D@__crt_stdio_output@@V?$positional_parameter_base@DV?$string_output_adapter@D@__crt_stdio_output@@@2@@__crt_stdio_output@@AAE_NXZ 1002dbf4 f i libucrt:output.obj
 0001:0002cc2e       ?state_case_precision@?$output_processor@DV?$string_output_adapter@D@__crt_stdio_output@@V?$standard_base@DV?$string_output_adapter@D@__crt_stdio_output@@@2@@__crt_stdio_output@@AAE_NXZ 1002dc2e f i libucrt:output.obj
 0001:0002cc54       ?state_case_precision@?$output_processor@_WV?$stream_output_adapter@_W@__crt_stdio_output@@V?$format_validation_base@_WV?$stream_output_adapter@_W@__crt_stdio_output@@@2@@__crt_stdio_output@@AAE_NXZ 1002dc54 f i libucrt:output.obj
 0001:0002cc7b       ?state_case_precision@?$output_processor@_WV?$stream_output_adapter@_W@__crt_stdio_output@@V?$positional_parameter_base@_WV?$stream_output_adapter@_W@__crt_stdio_output@@@2@@__crt_stdio_output@@AAE_NXZ 1002dc7b f i libucrt:output.obj
 0001:0002ccb6       ?state_case_precision@?$output_processor@_WV?$stream_output_adapter@_W@__crt_stdio_output@@V?$standard_base@_WV?$stream_output_adapter@_W@__crt_stdio_output@@@2@@__crt_stdio_output@@AAE_NXZ 1002dcb6 f i libucrt:output.obj
 0001:0002ccdd       ?state_case_precision@?$output_processor@_WV?$string_output_adapter@_W@__crt_stdio_output@@V?$format_validation_base@_WV?$string_output_adapter@_W@__crt_stdio_output@@@2@@__crt_stdio_output@@AAE_NXZ 1002dcdd f i libucrt:output.obj
 0001:0002cd04       ?state_case_precision@?$output_processor@_WV?$string_output_adapter@_W@__crt_stdio_output@@V?$positional_parameter_base@_WV?$string_output_adapter@_W@__crt_stdio_output@@@2@@__crt_stdio_output@@AAE_NXZ 1002dd04 f i libucrt:output.obj
 0001:0002cd3f       ?state_case_precision@?$output_processor@_WV?$string_output_adapter@_W@__crt_stdio_output@@V?$standard_base@_WV?$string_output_adapter@_W@__crt_stdio_output@@@2@@__crt_stdio_output@@AAE_NXZ 1002dd3f f i libucrt:output.obj
 0001:0002cd66       ?state_case_size@?$output_processor@DV?$stream_output_adapter@D@__crt_stdio_output@@V?$format_validation_base@DV?$stream_output_adapter@D@__crt_stdio_output@@@2@@__crt_stdio_output@@AAE_NXZ 1002dd66 f i libucrt:output.obj
 0001:0002cec4       ?state_case_size@?$output_processor@DV?$stream_output_adapter@D@__crt_stdio_output@@V?$positional_parameter_base@DV?$stream_output_adapter@D@__crt_stdio_output@@@2@@__crt_stdio_output@@AAE_NXZ 1002dec4 f i libucrt:output.obj
 0001:0002d022       ?state_case_size@?$output_processor@DV?$stream_output_adapter@D@__crt_stdio_output@@V?$standard_base@DV?$stream_output_adapter@D@__crt_stdio_output@@@2@@__crt_stdio_output@@AAE_NXZ 1002e022 f i libucrt:output.obj
 0001:0002d180       ?state_case_size@?$output_processor@DV?$string_output_adapter@D@__crt_stdio_output@@V?$format_validation_base@DV?$string_output_adapter@D@__crt_stdio_output@@@2@@__crt_stdio_output@@AAE_NXZ 1002e180 f i libucrt:output.obj
 0001:0002d2de       ?state_case_size@?$output_processor@DV?$string_output_adapter@D@__crt_stdio_output@@V?$positional_parameter_base@DV?$string_output_adapter@D@__crt_stdio_output@@@2@@__crt_stdio_output@@AAE_NXZ 1002e2de f i libucrt:output.obj
 0001:0002d43c       ?state_case_size@?$output_processor@DV?$string_output_adapter@D@__crt_stdio_output@@V?$standard_base@DV?$string_output_adapter@D@__crt_stdio_output@@@2@@__crt_stdio_output@@AAE_NXZ 1002e43c f i libucrt:output.obj
 0001:0002d59a       ?state_case_size@?$output_processor@_WV?$stream_output_adapter@_W@__crt_stdio_output@@V?$format_validation_base@_WV?$stream_output_adapter@_W@__crt_stdio_output@@@2@@__crt_stdio_output@@AAE_NXZ 1002e59a f i libucrt:output.obj
 0001:0002d728       ?state_case_size@?$output_processor@_WV?$stream_output_adapter@_W@__crt_stdio_output@@V?$positional_parameter_base@_WV?$stream_output_adapter@_W@__crt_stdio_output@@@2@@__crt_stdio_output@@AAE_NXZ 1002e728 f i libucrt:output.obj
 0001:0002d8b6       ?state_case_size@?$output_processor@_WV?$stream_output_adapter@_W@__crt_stdio_output@@V?$standard_base@_WV?$stream_output_adapter@_W@__crt_stdio_output@@@2@@__crt_stdio_output@@AAE_NXZ 1002e8b6 f i libucrt:output.obj
 0001:0002da44       ?state_case_size@?$output_processor@_WV?$string_output_adapter@_W@__crt_stdio_output@@V?$format_validation_base@_WV?$string_output_adapter@_W@__crt_stdio_output@@@2@@__crt_stdio_output@@AAE_NXZ 1002ea44 f i libucrt:output.obj
 0001:0002dbd2       ?state_case_size@?$output_processor@_WV?$string_output_adapter@_W@__crt_stdio_output@@V?$positional_parameter_base@_WV?$string_output_adapter@_W@__crt_stdio_output@@@2@@__crt_stdio_output@@AAE_NXZ 1002ebd2 f i libucrt:output.obj
 0001:0002dd60       ?state_case_size@?$output_processor@_WV?$string_output_adapter@_W@__crt_stdio_output@@V?$standard_base@_WV?$string_output_adapter@_W@__crt_stdio_output@@@2@@__crt_stdio_output@@AAE_NXZ 1002ed60 f i libucrt:output.obj
 0001:0002deee       ?state_case_type@?$output_processor@DV?$stream_output_adapter@D@__crt_stdio_output@@V?$format_validation_base@DV?$stream_output_adapter@D@__crt_stdio_output@@@2@@__crt_stdio_output@@AAE_NXZ 1002eeee f i libucrt:output.obj
 0001:0002e236       ?state_case_type@?$output_processor@DV?$stream_output_adapter@D@__crt_stdio_output@@V?$positional_parameter_base@DV?$stream_output_adapter@D@__crt_stdio_output@@@2@@__crt_stdio_output@@AAE_NXZ 1002f236 f i libucrt:output.obj
 0001:0002e58d       ?state_case_type@?$output_processor@DV?$stream_output_adapter@D@__crt_stdio_output@@V?$standard_base@DV?$stream_output_adapter@D@__crt_stdio_output@@@2@@__crt_stdio_output@@AAE_NXZ 1002f58d f i libucrt:output.obj
 0001:0002e8d5       ?state_case_type@?$output_processor@DV?$string_output_adapter@D@__crt_stdio_output@@V?$format_validation_base@DV?$string_output_adapter@D@__crt_stdio_output@@@2@@__crt_stdio_output@@AAE_NXZ 1002f8d5 f i libucrt:output.obj
 0001:0002ec63       ?state_case_type@?$output_processor@DV?$string_output_adapter@D@__crt_stdio_output@@V?$positional_parameter_base@DV?$string_output_adapter@D@__crt_stdio_output@@@2@@__crt_stdio_output@@AAE_NXZ 1002fc63 f i libucrt:output.obj
 0001:0002f000       ?state_case_type@?$output_processor@DV?$string_output_adapter@D@__crt_stdio_output@@V?$standard_base@DV?$string_output_adapter@D@__crt_stdio_output@@@2@@__crt_stdio_output@@AAE_NXZ 10030000 f i libucrt:output.obj
 0001:0002f38e       ?state_case_type@?$output_processor@_WV?$stream_output_adapter@_W@__crt_stdio_output@@V?$format_validation_base@_WV?$stream_output_adapter@_W@__crt_stdio_output@@@2@@__crt_stdio_output@@AAE_NXZ 1003038e f i libucrt:output.obj
 0001:0002f6f3       ?state_case_type@?$output_processor@_WV?$stream_output_adapter@_W@__crt_stdio_output@@V?$positional_parameter_base@_WV?$stream_output_adapter@_W@__crt_stdio_output@@@2@@__crt_stdio_output@@AAE_NXZ 100306f3 f i libucrt:output.obj
 0001:0002fa67       ?state_case_type@?$output_processor@_WV?$stream_output_adapter@_W@__crt_stdio_output@@V?$standard_base@_WV?$stream_output_adapter@_W@__crt_stdio_output@@@2@@__crt_stdio_output@@AAE_NXZ 10030a67 f i libucrt:output.obj
 0001:0002fdcc       ?state_case_type@?$output_processor@_WV?$string_output_adapter@_W@__crt_stdio_output@@V?$format_validation_base@_WV?$string_output_adapter@_W@__crt_stdio_output@@@2@@__crt_stdio_output@@AAE_NXZ 10030dcc f i libucrt:output.obj
 0001:000301ed       ?state_case_type@?$output_processor@_WV?$string_output_adapter@_W@__crt_stdio_output@@V?$positional_parameter_base@_WV?$string_output_adapter@_W@__crt_stdio_output@@@2@@__crt_stdio_output@@AAE_NXZ 100311ed f i libucrt:output.obj
 0001:0003061d       ?state_case_type@?$output_processor@_WV?$string_output_adapter@_W@__crt_stdio_output@@V?$standard_base@_WV?$string_output_adapter@_W@__crt_stdio_output@@@2@@__crt_stdio_output@@AAE_NXZ 1003161d f i libucrt:output.obj
 0001:00030a3e       ?state_case_width@?$output_processor@DV?$stream_output_adapter@D@__crt_stdio_output@@V?$format_validation_base@DV?$stream_output_adapter@D@__crt_stdio_output@@@2@@__crt_stdio_output@@AAE_NXZ 10031a3e f i libucrt:output.obj
 0001:00030a69       ?state_case_width@?$output_processor@DV?$stream_output_adapter@D@__crt_stdio_output@@V?$positional_parameter_base@DV?$stream_output_adapter@D@__crt_stdio_output@@@2@@__crt_stdio_output@@AAE_NXZ 10031a69 f i libucrt:output.obj
 0001:00030aa9       ?state_case_width@?$output_processor@DV?$stream_output_adapter@D@__crt_stdio_output@@V?$standard_base@DV?$stream_output_adapter@D@__crt_stdio_output@@@2@@__crt_stdio_output@@AAE_NXZ 10031aa9 f i libucrt:output.obj
 0001:00030ad4       ?state_case_width@?$output_processor@DV?$string_output_adapter@D@__crt_stdio_output@@V?$format_validation_base@DV?$string_output_adapter@D@__crt_stdio_output@@@2@@__crt_stdio_output@@AAE_NXZ 10031ad4 f i libucrt:output.obj
 0001:00030aff       ?state_case_width@?$output_processor@DV?$string_output_adapter@D@__crt_stdio_output@@V?$positional_parameter_base@DV?$string_output_adapter@D@__crt_stdio_output@@@2@@__crt_stdio_output@@AAE_NXZ 10031aff f i libucrt:output.obj
 0001:00030b3f       ?state_case_width@?$output_processor@DV?$string_output_adapter@D@__crt_stdio_output@@V?$standard_base@DV?$string_output_adapter@D@__crt_stdio_output@@@2@@__crt_stdio_output@@AAE_NXZ 10031b3f f i libucrt:output.obj
 0001:00030b6a       ?state_case_width@?$output_processor@_WV?$stream_output_adapter@_W@__crt_stdio_output@@V?$format_validation_base@_WV?$stream_output_adapter@_W@__crt_stdio_output@@@2@@__crt_stdio_output@@AAE_NXZ 10031b6a f i libucrt:output.obj
 0001:00030b96       ?state_case_width@?$output_processor@_WV?$stream_output_adapter@_W@__crt_stdio_output@@V?$positional_parameter_base@_WV?$stream_output_adapter@_W@__crt_stdio_output@@@2@@__crt_stdio_output@@AAE_NXZ 10031b96 f i libucrt:output.obj
 0001:00030bd7       ?state_case_width@?$output_processor@_WV?$stream_output_adapter@_W@__crt_stdio_output@@V?$standard_base@_WV?$stream_output_adapter@_W@__crt_stdio_output@@@2@@__crt_stdio_output@@AAE_NXZ 10031bd7 f i libucrt:output.obj
 0001:00030c03       ?state_case_width@?$output_processor@_WV?$string_output_adapter@_W@__crt_stdio_output@@V?$format_validation_base@_WV?$string_output_adapter@_W@__crt_stdio_output@@@2@@__crt_stdio_output@@AAE_NXZ 10031c03 f i libucrt:output.obj
 0001:00030c2f       ?state_case_width@?$output_processor@_WV?$string_output_adapter@_W@__crt_stdio_output@@V?$positional_parameter_base@_WV?$string_output_adapter@_W@__crt_stdio_output@@@2@@__crt_stdio_output@@AAE_NXZ 10031c2f f i libucrt:output.obj
 0001:00030c70       ?state_case_width@?$output_processor@_WV?$string_output_adapter@_W@__crt_stdio_output@@V?$standard_base@_WV?$string_output_adapter@_W@__crt_stdio_output@@@2@@__crt_stdio_output@@AAE_NXZ 10031c70 f i libucrt:output.obj
 0001:00030c9c       ?state_count@?$format_validation_base@DV?$stream_output_adapter@D@__crt_stdio_output@@@__crt_stdio_output@@KAIXZ 10031c9c f i libucrt:output.obj
 0001:00030ca0       ?state_count@?$format_validation_base@DV?$string_output_adapter@D@__crt_stdio_output@@@__crt_stdio_output@@KAIXZ 10031ca0 f i libucrt:output.obj
 0001:00030ca4       ?state_count@?$format_validation_base@_WV?$stream_output_adapter@_W@__crt_stdio_output@@@__crt_stdio_output@@KAIXZ 10031ca4 f i libucrt:output.obj
 0001:00030ca8       ?state_count@?$format_validation_base@_WV?$string_output_adapter@_W@__crt_stdio_output@@@__crt_stdio_output@@KAIXZ 10031ca8 f i libucrt:output.obj
 0001:00030cac       ?state_count@?$standard_base@DV?$stream_output_adapter@D@__crt_stdio_output@@@__crt_stdio_output@@KAIXZ 10031cac f i libucrt:output.obj
 0001:00030cb0       ?state_count@?$standard_base@DV?$string_output_adapter@D@__crt_stdio_output@@@__crt_stdio_output@@KAIXZ 10031cb0 f i libucrt:output.obj
 0001:00030cb4       ?state_count@?$standard_base@_WV?$stream_output_adapter@_W@__crt_stdio_output@@@__crt_stdio_output@@KAIXZ 10031cb4 f i libucrt:output.obj
 0001:00030cb8       ?state_count@?$standard_base@_WV?$string_output_adapter@_W@__crt_stdio_output@@@__crt_stdio_output@@KAIXZ 10031cb8 f i libucrt:output.obj
 0001:00030cbc       ?state_transition_table@?$format_validation_base@DV?$stream_output_adapter@D@__crt_stdio_output@@@__crt_stdio_output@@KAABV?$spectre_mitigated_lookup_table@Ustate_transition_pair@__crt_stdio_output@@$0IA@@2@XZ 10031cbc f i libucrt:output.obj
 0001:00030cc2       ?state_transition_table@?$format_validation_base@DV?$string_output_adapter@D@__crt_stdio_output@@@__crt_stdio_output@@KAABV?$spectre_mitigated_lookup_table@Ustate_transition_pair@__crt_stdio_output@@$0IA@@2@XZ 10031cc2 f i libucrt:output.obj
 0001:00030cc8       ?state_transition_table@?$format_validation_base@_WV?$stream_output_adapter@_W@__crt_stdio_output@@@__crt_stdio_output@@KAABV?$spectre_mitigated_lookup_table@Ustate_transition_pair@__crt_stdio_output@@$0IA@@2@XZ 10031cc8 f i libucrt:output.obj
 0001:00030cce       ?state_transition_table@?$format_validation_base@_WV?$string_output_adapter@_W@__crt_stdio_output@@@__crt_stdio_output@@KAABV?$spectre_mitigated_lookup_table@Ustate_transition_pair@__crt_stdio_output@@$0IA@@2@XZ 10031cce f i libucrt:output.obj
 0001:00030cd4       ?state_transition_table@?$standard_base@DV?$stream_output_adapter@D@__crt_stdio_output@@@__crt_stdio_output@@KAABV?$spectre_mitigated_lookup_table@Ustate_transition_pair@__crt_stdio_output@@$0IA@@2@XZ 10031cd4 f i libucrt:output.obj
 0001:00030cda       ?state_transition_table@?$standard_base@DV?$string_output_adapter@D@__crt_stdio_output@@@__crt_stdio_output@@KAABV?$spectre_mitigated_lookup_table@Ustate_transition_pair@__crt_stdio_output@@$0IA@@2@XZ 10031cda f i libucrt:output.obj
 0001:00030ce0       ?state_transition_table@?$standard_base@_WV?$stream_output_adapter@_W@__crt_stdio_output@@@__crt_stdio_output@@KAABV?$spectre_mitigated_lookup_table@Ustate_transition_pair@__crt_stdio_output@@$0IA@@2@XZ 10031ce0 f i libucrt:output.obj
 0001:00030ce6       ?state_transition_table@?$standard_base@_WV?$string_output_adapter@_W@__crt_stdio_output@@@__crt_stdio_output@@KAABV?$spectre_mitigated_lookup_table@Ustate_transition_pair@__crt_stdio_output@@$0IA@@2@XZ 10031ce6 f i libucrt:output.obj
 0001:00030cec       ?tchar_string@?$common_data@D@__crt_stdio_output@@IAEAAPADD@Z 10031cec f i libucrt:output.obj
 0001:00030cf2       ?tchar_string@?$common_data@D@__crt_stdio_output@@IAEAAPADXZ 10031cf2 f i libucrt:output.obj
 0001:00030cf6       ?tchar_string@?$common_data@_W@__crt_stdio_output@@IAEAAPA_WXZ 10031cf6 f i libucrt:output.obj
 0001:00030cfa       ?tchar_string@?$common_data@_W@__crt_stdio_output@@IAEAAPA_W_W@Z 10031cfa f i libucrt:output.obj
 0001:00030d00       ?to_integer_size@__crt_stdio_output@@YAIW4length_modifier@1@@Z 10031d00 f i libucrt:output.obj
 0001:00030d54       ?type_case_X@?$output_processor@DV?$stream_output_adapter@D@__crt_stdio_output@@V?$format_validation_base@DV?$stream_output_adapter@D@__crt_stdio_output@@@2@@__crt_stdio_output@@AAE_NXZ 10031d54 f i libucrt:output.obj
 0001:00030d5c       ?type_case_X@?$output_processor@DV?$stream_output_adapter@D@__crt_stdio_output@@V?$positional_parameter_base@DV?$stream_output_adapter@D@__crt_stdio_output@@@2@@__crt_stdio_output@@AAE_NXZ 10031d5c f i libucrt:output.obj
 0001:00030d64       ?type_case_X@?$output_processor@DV?$stream_output_adapter@D@__crt_stdio_output@@V?$standard_base@DV?$stream_output_adapter@D@__crt_stdio_output@@@2@@__crt_stdio_output@@AAE_NXZ 10031d64 f i libucrt:output.obj
 0001:00030d6c       ?type_case_X@?$output_processor@DV?$string_output_adapter@D@__crt_stdio_output@@V?$format_validation_base@DV?$string_output_adapter@D@__crt_stdio_output@@@2@@__crt_stdio_output@@AAE_NXZ 10031d6c f i libucrt:output.obj
 0001:00030d74       ?type_case_X@?$output_processor@DV?$string_output_adapter@D@__crt_stdio_output@@V?$positional_parameter_base@DV?$string_output_adapter@D@__crt_stdio_output@@@2@@__crt_stdio_output@@AAE_NXZ 10031d74 f i libucrt:output.obj
 0001:00030d7c       ?type_case_X@?$output_processor@DV?$string_output_adapter@D@__crt_stdio_output@@V?$standard_base@DV?$string_output_adapter@D@__crt_stdio_output@@@2@@__crt_stdio_output@@AAE_NXZ 10031d7c f i libucrt:output.obj
 0001:00030d84       ?type_case_X@?$output_processor@_WV?$stream_output_adapter@_W@__crt_stdio_output@@V?$format_validation_base@_WV?$stream_output_adapter@_W@__crt_stdio_output@@@2@@__crt_stdio_output@@AAE_NXZ 10031d84 f i libucrt:output.obj
 0001:00030d8c       ?type_case_X@?$output_processor@_WV?$stream_output_adapter@_W@__crt_stdio_output@@V?$positional_parameter_base@_WV?$stream_output_adapter@_W@__crt_stdio_output@@@2@@__crt_stdio_output@@AAE_NXZ 10031d8c f i libucrt:output.obj
 0001:00030d94       ?type_case_X@?$output_processor@_WV?$stream_output_adapter@_W@__crt_stdio_output@@V?$standard_base@_WV?$stream_output_adapter@_W@__crt_stdio_output@@@2@@__crt_stdio_output@@AAE_NXZ 10031d94 f i libucrt:output.obj
 0001:00030d9c       ?type_case_X@?$output_processor@_WV?$string_output_adapter@_W@__crt_stdio_output@@V?$format_validation_base@_WV?$string_output_adapter@_W@__crt_stdio_output@@@2@@__crt_stdio_output@@AAE_NXZ 10031d9c f i libucrt:output.obj
 0001:00030da4       ?type_case_X@?$output_processor@_WV?$string_output_adapter@_W@__crt_stdio_output@@V?$positional_parameter_base@_WV?$string_output_adapter@_W@__crt_stdio_output@@@2@@__crt_stdio_output@@AAE_NXZ 10031da4 f i libucrt:output.obj
 0001:00030dac       ?type_case_X@?$output_processor@_WV?$string_output_adapter@_W@__crt_stdio_output@@V?$standard_base@_WV?$string_output_adapter@_W@__crt_stdio_output@@@2@@__crt_stdio_output@@AAE_NXZ 10031dac f i libucrt:output.obj
 0001:00030db4       ?type_case_Z@?$output_processor@DV?$stream_output_adapter@D@__crt_stdio_output@@V?$format_validation_base@DV?$stream_output_adapter@D@__crt_stdio_output@@@2@@__crt_stdio_output@@AAE_NXZ 10031db4 f i libucrt:output.obj
 0001:00030e0e       ?type_case_Z@?$output_processor@DV?$stream_output_adapter@D@__crt_stdio_output@@V?$positional_parameter_base@DV?$stream_output_adapter@D@__crt_stdio_output@@@2@@__crt_stdio_output@@AAE_NXZ 10031e0e f i libucrt:output.obj
 0001:00030e82       ?type_case_Z@?$output_processor@DV?$stream_output_adapter@D@__crt_stdio_output@@V?$standard_base@DV?$stream_output_adapter@D@__crt_stdio_output@@@2@@__crt_stdio_output@@AAE_NXZ 10031e82 f i libucrt:output.obj
 0001:00030edc       ?type_case_Z@?$output_processor@DV?$string_output_adapter@D@__crt_stdio_output@@V?$format_validation_base@DV?$string_output_adapter@D@__crt_stdio_output@@@2@@__crt_stdio_output@@AAE_NXZ 10031edc f i libucrt:output.obj
 0001:00030f36       ?type_case_Z@?$output_processor@DV?$string_output_adapter@D@__crt_stdio_output@@V?$positional_parameter_base@DV?$string_output_adapter@D@__crt_stdio_output@@@2@@__crt_stdio_output@@AAE_NXZ 10031f36 f i libucrt:output.obj
 0001:00030faa       ?type_case_Z@?$output_processor@DV?$string_output_adapter@D@__crt_stdio_output@@V?$standard_base@DV?$string_output_adapter@D@__crt_stdio_output@@@2@@__crt_stdio_output@@AAE_NXZ 10031faa f i libucrt:output.obj
 0001:00031004       ?type_case_Z@?$output_processor@_WV?$stream_output_adapter@_W@__crt_stdio_output@@V?$format_validation_base@_WV?$stream_output_adapter@_W@__crt_stdio_output@@@2@@__crt_stdio_output@@AAE_NXZ 10032004 f i libucrt:output.obj
 0001:0003105e       ?type_case_Z@?$output_processor@_WV?$stream_output_adapter@_W@__crt_stdio_output@@V?$positional_parameter_base@_WV?$stream_output_adapter@_W@__crt_stdio_output@@@2@@__crt_stdio_output@@AAE_NXZ 1003205e f i libucrt:output.obj
 0001:000310d2       ?type_case_Z@?$output_processor@_WV?$stream_output_adapter@_W@__crt_stdio_output@@V?$standard_base@_WV?$stream_output_adapter@_W@__crt_stdio_output@@@2@@__crt_stdio_output@@AAE_NXZ 100320d2 f i libucrt:output.obj
 0001:0003112c       ?type_case_Z@?$output_processor@_WV?$string_output_adapter@_W@__crt_stdio_output@@V?$format_validation_base@_WV?$string_output_adapter@_W@__crt_stdio_output@@@2@@__crt_stdio_output@@AAE_NXZ 1003212c f i libucrt:output.obj
 0001:00031186       ?type_case_Z@?$output_processor@_WV?$string_output_adapter@_W@__crt_stdio_output@@V?$positional_parameter_base@_WV?$string_output_adapter@_W@__crt_stdio_output@@@2@@__crt_stdio_output@@AAE_NXZ 10032186 f i libucrt:output.obj
 0001:000311fa       ?type_case_Z@?$output_processor@_WV?$string_output_adapter@_W@__crt_stdio_output@@V?$standard_base@_WV?$string_output_adapter@_W@__crt_stdio_output@@@2@@__crt_stdio_output@@AAE_NXZ 100321fa f i libucrt:output.obj
 0001:00031254       ?type_case_a@?$output_processor@DV?$stream_output_adapter@D@__crt_stdio_output@@V?$format_validation_base@DV?$stream_output_adapter@D@__crt_stdio_output@@@2@@__crt_stdio_output@@AAE_NXZ 10032254 f i libucrt:output.obj
 0001:000313de       ?type_case_a@?$output_processor@DV?$stream_output_adapter@D@__crt_stdio_output@@V?$positional_parameter_base@DV?$stream_output_adapter@D@__crt_stdio_output@@@2@@__crt_stdio_output@@AAE_NXZ 100323de f i libucrt:output.obj
 0001:00031589       ?type_case_a@?$output_processor@DV?$stream_output_adapter@D@__crt_stdio_output@@V?$standard_base@DV?$stream_output_adapter@D@__crt_stdio_output@@@2@@__crt_stdio_output@@AAE_NXZ 10032589 f i libucrt:output.obj
 0001:00031713       ?type_case_a@?$output_processor@DV?$string_output_adapter@D@__crt_stdio_output@@V?$format_validation_base@DV?$string_output_adapter@D@__crt_stdio_output@@@2@@__crt_stdio_output@@AAE_NXZ 10032713 f i libucrt:output.obj
 0001:0003189d       ?type_case_a@?$output_processor@DV?$string_output_adapter@D@__crt_stdio_output@@V?$positional_parameter_base@DV?$string_output_adapter@D@__crt_stdio_output@@@2@@__crt_stdio_output@@AAE_NXZ 1003289d f i libucrt:output.obj
 0001:00031a48       ?type_case_a@?$output_processor@DV?$string_output_adapter@D@__crt_stdio_output@@V?$standard_base@DV?$string_output_adapter@D@__crt_stdio_output@@@2@@__crt_stdio_output@@AAE_NXZ 10032a48 f i libucrt:output.obj
 0001:00031bd2       ?type_case_a@?$output_processor@_WV?$stream_output_adapter@_W@__crt_stdio_output@@V?$format_validation_base@_WV?$stream_output_adapter@_W@__crt_stdio_output@@@2@@__crt_stdio_output@@AAE_NXZ 10032bd2 f i libucrt:output.obj
 0001:00031d72       ?type_case_a@?$output_processor@_WV?$stream_output_adapter@_W@__crt_stdio_output@@V?$positional_parameter_base@_WV?$stream_output_adapter@_W@__crt_stdio_output@@@2@@__crt_stdio_output@@AAE_NXZ 10032d72 f i libucrt:output.obj
 0001:00031f33       ?type_case_a@?$output_processor@_WV?$stream_output_adapter@_W@__crt_stdio_output@@V?$standard_base@_WV?$stream_output_adapter@_W@__crt_stdio_output@@@2@@__crt_stdio_output@@AAE_NXZ 10032f33 f i libucrt:output.obj
 0001:000320d3       ?type_case_a@?$output_processor@_WV?$string_output_adapter@_W@__crt_stdio_output@@V?$format_validation_base@_WV?$string_output_adapter@_W@__crt_stdio_output@@@2@@__crt_stdio_output@@AAE_NXZ 100330d3 f i libucrt:output.obj
 0001:00032273       ?type_case_a@?$output_processor@_WV?$string_output_adapter@_W@__crt_stdio_output@@V?$positional_parameter_base@_WV?$string_output_adapter@_W@__crt_stdio_output@@@2@@__crt_stdio_output@@AAE_NXZ 10033273 f i libucrt:output.obj
 0001:00032434       ?type_case_a@?$output_processor@_WV?$string_output_adapter@_W@__crt_stdio_output@@V?$standard_base@_WV?$string_output_adapter@_W@__crt_stdio_output@@@2@@__crt_stdio_output@@AAE_NXZ 10033434 f i libucrt:output.obj
 0001:000325d4       ?type_case_c@?$output_processor@DV?$stream_output_adapter@D@__crt_stdio_output@@V?$format_validation_base@DV?$stream_output_adapter@D@__crt_stdio_output@@@2@@__crt_stdio_output@@AAE_NXZ 100335d4 f i libucrt:output.obj
 0001:000325dc       ?type_case_c@?$output_processor@DV?$stream_output_adapter@D@__crt_stdio_output@@V?$positional_parameter_base@DV?$stream_output_adapter@D@__crt_stdio_output@@@2@@__crt_stdio_output@@AAE_NXZ 100335dc f i libucrt:output.obj
 0001:000325e4       ?type_case_c@?$output_processor@DV?$stream_output_adapter@D@__crt_stdio_output@@V?$standard_base@DV?$stream_output_adapter@D@__crt_stdio_output@@@2@@__crt_stdio_output@@AAE_NXZ 100335e4 f i libucrt:output.obj
 0001:000325ec       ?type_case_c@?$output_processor@DV?$string_output_adapter@D@__crt_stdio_output@@V?$format_validation_base@DV?$string_output_adapter@D@__crt_stdio_output@@@2@@__crt_stdio_output@@AAE_NXZ 100335ec f i libucrt:output.obj
 0001:000325f4       ?type_case_c@?$output_processor@DV?$string_output_adapter@D@__crt_stdio_output@@V?$positional_parameter_base@DV?$string_output_adapter@D@__crt_stdio_output@@@2@@__crt_stdio_output@@AAE_NXZ 100335f4 f i libucrt:output.obj
 0001:000325fc       ?type_case_c@?$output_processor@DV?$string_output_adapter@D@__crt_stdio_output@@V?$standard_base@DV?$string_output_adapter@D@__crt_stdio_output@@@2@@__crt_stdio_output@@AAE_NXZ 100335fc f i libucrt:output.obj
 0001:00032604       ?type_case_c@?$output_processor@_WV?$stream_output_adapter@_W@__crt_stdio_output@@V?$format_validation_base@_WV?$stream_output_adapter@_W@__crt_stdio_output@@@2@@__crt_stdio_output@@AAE_NXZ 10033604 f i libucrt:output.obj
 0001:0003260c       ?type_case_c@?$output_processor@_WV?$stream_output_adapter@_W@__crt_stdio_output@@V?$positional_parameter_base@_WV?$stream_output_adapter@_W@__crt_stdio_output@@@2@@__crt_stdio_output@@AAE_NXZ 1003360c f i libucrt:output.obj
 0001:00032614       ?type_case_c@?$output_processor@_WV?$stream_output_adapter@_W@__crt_stdio_output@@V?$standard_base@_WV?$stream_output_adapter@_W@__crt_stdio_output@@@2@@__crt_stdio_output@@AAE_NXZ 10033614 f i libucrt:output.obj
 0001:0003261c       ?type_case_c@?$output_processor@_WV?$string_output_adapter@_W@__crt_stdio_output@@V?$format_validation_base@_WV?$string_output_adapter@_W@__crt_stdio_output@@@2@@__crt_stdio_output@@AAE_NXZ 1003361c f i libucrt:output.obj
 0001:00032624       ?type_case_c@?$output_processor@_WV?$string_output_adapter@_W@__crt_stdio_output@@V?$positional_parameter_base@_WV?$string_output_adapter@_W@__crt_stdio_output@@@2@@__crt_stdio_output@@AAE_NXZ 10033624 f i libucrt:output.obj
 0001:0003262c       ?type_case_c@?$output_processor@_WV?$string_output_adapter@_W@__crt_stdio_output@@V?$standard_base@_WV?$string_output_adapter@_W@__crt_stdio_output@@@2@@__crt_stdio_output@@AAE_NXZ 1003362c f i libucrt:output.obj
 0001:00032634       ?type_case_c_tchar@?$output_processor@DV?$stream_output_adapter@D@__crt_stdio_output@@V?$format_validation_base@DV?$stream_output_adapter@D@__crt_stdio_output@@@2@@__crt_stdio_output@@AAE_ND@Z 10033634 f i libucrt:output.obj
 0001:000326c9       ?type_case_c_tchar@?$output_processor@DV?$stream_output_adapter@D@__crt_stdio_output@@V?$positional_parameter_base@DV?$stream_output_adapter@D@__crt_stdio_output@@@2@@__crt_stdio_output@@AAE_ND@Z 100336c9 f i libucrt:output.obj
 0001:0003278a       ?type_case_c_tchar@?$output_processor@DV?$stream_output_adapter@D@__crt_stdio_output@@V?$standard_base@DV?$stream_output_adapter@D@__crt_stdio_output@@@2@@__crt_stdio_output@@AAE_ND@Z 1003378a f i libucrt:output.obj
 0001:0003281f       ?type_case_c_tchar@?$output_processor@DV?$string_output_adapter@D@__crt_stdio_output@@V?$format_validation_base@DV?$string_output_adapter@D@__crt_stdio_output@@@2@@__crt_stdio_output@@AAE_ND@Z 1003381f f i libucrt:output.obj
 0001:000328b4       ?type_case_c_tchar@?$output_processor@DV?$string_output_adapter@D@__crt_stdio_output@@V?$positional_parameter_base@DV?$string_output_adapter@D@__crt_stdio_output@@@2@@__crt_stdio_output@@AAE_ND@Z 100338b4 f i libucrt:output.obj
 0001:00032975       ?type_case_c_tchar@?$output_processor@DV?$string_output_adapter@D@__crt_stdio_output@@V?$standard_base@DV?$string_output_adapter@D@__crt_stdio_output@@@2@@__crt_stdio_output@@AAE_ND@Z 10033975 f i libucrt:output.obj
 0001:00032a0a       ?type_case_c_tchar@?$output_processor@_WV?$stream_output_adapter@_W@__crt_stdio_output@@V?$format_validation_base@_WV?$stream_output_adapter@_W@__crt_stdio_output@@@2@@__crt_stdio_output@@AAE_N_W@Z 10033a0a f i libucrt:output.obj
 0001:00032ab1       ?type_case_c_tchar@?$output_processor@_WV?$stream_output_adapter@_W@__crt_stdio_output@@V?$positional_parameter_base@_WV?$stream_output_adapter@_W@__crt_stdio_output@@@2@@__crt_stdio_output@@AAE_N_W@Z 10033ab1 f i libucrt:output.obj
 0001:00032b7c       ?type_case_c_tchar@?$output_processor@_WV?$stream_output_adapter@_W@__crt_stdio_output@@V?$standard_base@_WV?$stream_output_adapter@_W@__crt_stdio_output@@@2@@__crt_stdio_output@@AAE_N_W@Z 10033b7c f i libucrt:output.obj
 0001:00032c23       ?type_case_c_tchar@?$output_processor@_WV?$string_output_adapter@_W@__crt_stdio_output@@V?$format_validation_base@_WV?$string_output_adapter@_W@__crt_stdio_output@@@2@@__crt_stdio_output@@AAE_N_W@Z 10033c23 f i libucrt:output.obj
 0001:00032cca       ?type_case_c_tchar@?$output_processor@_WV?$string_output_adapter@_W@__crt_stdio_output@@V?$positional_parameter_base@_WV?$string_output_adapter@_W@__crt_stdio_output@@@2@@__crt_stdio_output@@AAE_N_W@Z 10033cca f i libucrt:output.obj
 0001:00032d95       ?type_case_c_tchar@?$output_processor@_WV?$string_output_adapter@_W@__crt_stdio_output@@V?$standard_base@_WV?$string_output_adapter@_W@__crt_stdio_output@@@2@@__crt_stdio_output@@AAE_N_W@Z 10033d95 f i libucrt:output.obj
 0001:00032e3c       ?type_case_d@?$output_processor@DV?$stream_output_adapter@D@__crt_stdio_output@@V?$format_validation_base@DV?$stream_output_adapter@D@__crt_stdio_output@@@2@@__crt_stdio_output@@AAE_NXZ 10033e3c f i libucrt:output.obj
 0001:00032e48       ?type_case_d@?$output_processor@DV?$stream_output_adapter@D@__crt_stdio_output@@V?$positional_parameter_base@DV?$stream_output_adapter@D@__crt_stdio_output@@@2@@__crt_stdio_output@@AAE_NXZ 10033e48 f i libucrt:output.obj
 0001:00032e54       ?type_case_d@?$output_processor@DV?$stream_output_adapter@D@__crt_stdio_output@@V?$standard_base@DV?$stream_output_adapter@D@__crt_stdio_output@@@2@@__crt_stdio_output@@AAE_NXZ 10033e54 f i libucrt:output.obj
 0001:00032e60       ?type_case_d@?$output_processor@DV?$string_output_adapter@D@__crt_stdio_output@@V?$format_validation_base@DV?$string_output_adapter@D@__crt_stdio_output@@@2@@__crt_stdio_output@@AAE_NXZ 10033e60 f i libucrt:output.obj
 0001:00032e6c       ?type_case_d@?$output_processor@DV?$string_output_adapter@D@__crt_stdio_output@@V?$positional_parameter_base@DV?$string_output_adapter@D@__crt_stdio_output@@@2@@__crt_stdio_output@@AAE_NXZ 10033e6c f i libucrt:output.obj
 0001:00032e78       ?type_case_d@?$output_processor@DV?$string_output_adapter@D@__crt_stdio_output@@V?$standard_base@DV?$string_output_adapter@D@__crt_stdio_output@@@2@@__crt_stdio_output@@AAE_NXZ 10033e78 f i libucrt:output.obj
 0001:00032e84       ?type_case_d@?$output_processor@_WV?$stream_output_adapter@_W@__crt_stdio_output@@V?$format_validation_base@_WV?$stream_output_adapter@_W@__crt_stdio_output@@@2@@__crt_stdio_output@@AAE_NXZ 10033e84 f i libucrt:output.obj
 0001:00032e90       ?type_case_d@?$output_processor@_WV?$stream_output_adapter@_W@__crt_stdio_output@@V?$positional_parameter_base@_WV?$stream_output_adapter@_W@__crt_stdio_output@@@2@@__crt_stdio_output@@AAE_NXZ 10033e90 f i libucrt:output.obj
 0001:00032e9c       ?type_case_d@?$output_processor@_WV?$stream_output_adapter@_W@__crt_stdio_output@@V?$standard_base@_WV?$stream_output_adapter@_W@__crt_stdio_output@@@2@@__crt_stdio_output@@AAE_NXZ 10033e9c f i libucrt:output.obj
 0001:00032ea8       ?type_case_d@?$output_processor@_WV?$string_output_adapter@_W@__crt_stdio_output@@V?$format_validation_base@_WV?$string_output_adapter@_W@__crt_stdio_output@@@2@@__crt_stdio_output@@AAE_NXZ 10033ea8 f i libucrt:output.obj
 0001:00032eb4       ?type_case_d@?$output_processor@_WV?$string_output_adapter@_W@__crt_stdio_output@@V?$positional_parameter_base@_WV?$string_output_adapter@_W@__crt_stdio_output@@@2@@__crt_stdio_output@@AAE_NXZ 10033eb4 f i libucrt:output.obj
 0001:00032ec0       ?type_case_d@?$output_processor@_WV?$string_output_adapter@_W@__crt_stdio_output@@V?$standard_base@_WV?$string_output_adapter@_W@__crt_stdio_output@@@2@@__crt_stdio_output@@AAE_NXZ 10033ec0 f i libucrt:output.obj
 0001:00032ecc       ?type_case_n@?$output_processor@DV?$stream_output_adapter@D@__crt_stdio_output@@V?$format_validation_base@DV?$stream_output_adapter@D@__crt_stdio_output@@@2@@__crt_stdio_output@@AAE_NXZ 10033ecc f i libucrt:output.obj
 0001:00032f50       ?type_case_n@?$output_processor@DV?$stream_output_adapter@D@__crt_stdio_output@@V?$positional_parameter_base@DV?$stream_output_adapter@D@__crt_stdio_output@@@2@@__crt_stdio_output@@AAE_NXZ 10033f50 f i libucrt:output.obj
 0001:00032ffd       ?type_case_n@?$output_processor@DV?$stream_output_adapter@D@__crt_stdio_output@@V?$standard_base@DV?$stream_output_adapter@D@__crt_stdio_output@@@2@@__crt_stdio_output@@AAE_NXZ 10033ffd f i libucrt:output.obj
 0001:00033081       ?type_case_n@?$output_processor@DV?$string_output_adapter@D@__crt_stdio_output@@V?$format_validation_base@DV?$string_output_adapter@D@__crt_stdio_output@@@2@@__crt_stdio_output@@AAE_NXZ 10034081 f i libucrt:output.obj
 0001:00033105       ?type_case_n@?$output_processor@DV?$string_output_adapter@D@__crt_stdio_output@@V?$positional_parameter_base@DV?$string_output_adapter@D@__crt_stdio_output@@@2@@__crt_stdio_output@@AAE_NXZ 10034105 f i libucrt:output.obj
 0001:000331b2       ?type_case_n@?$output_processor@DV?$string_output_adapter@D@__crt_stdio_output@@V?$standard_base@DV?$string_output_adapter@D@__crt_stdio_output@@@2@@__crt_stdio_output@@AAE_NXZ 100341b2 f i libucrt:output.obj
 0001:00033236       ?type_case_n@?$output_processor@_WV?$stream_output_adapter@_W@__crt_stdio_output@@V?$format_validation_base@_WV?$stream_output_adapter@_W@__crt_stdio_output@@@2@@__crt_stdio_output@@AAE_NXZ 10034236 f i libucrt:output.obj
 0001:000332ba       ?type_case_n@?$output_processor@_WV?$stream_output_adapter@_W@__crt_stdio_output@@V?$positional_parameter_base@_WV?$stream_output_adapter@_W@__crt_stdio_output@@@2@@__crt_stdio_output@@AAE_NXZ 100342ba f i libucrt:output.obj
 0001:00033367       ?type_case_n@?$output_processor@_WV?$stream_output_adapter@_W@__crt_stdio_output@@V?$standard_base@_WV?$stream_output_adapter@_W@__crt_stdio_output@@@2@@__crt_stdio_output@@AAE_NXZ 10034367 f i libucrt:output.obj
 0001:000333eb       ?type_case_n@?$output_processor@_WV?$string_output_adapter@_W@__crt_stdio_output@@V?$format_validation_base@_WV?$string_output_adapter@_W@__crt_stdio_output@@@2@@__crt_stdio_output@@AAE_NXZ 100343eb f i libucrt:output.obj
 0001:0003346f       ?type_case_n@?$output_processor@_WV?$string_output_adapter@_W@__crt_stdio_output@@V?$positional_parameter_base@_WV?$string_output_adapter@_W@__crt_stdio_output@@@2@@__crt_stdio_output@@AAE_NXZ 1003446f f i libucrt:output.obj
 0001:0003351c       ?type_case_n@?$output_processor@_WV?$string_output_adapter@_W@__crt_stdio_output@@V?$standard_base@_WV?$string_output_adapter@_W@__crt_stdio_output@@@2@@__crt_stdio_output@@AAE_NXZ 1003451c f i libucrt:output.obj
 0001:000335a0       ?type_case_o@?$output_processor@DV?$stream_output_adapter@D@__crt_stdio_output@@V?$format_validation_base@DV?$stream_output_adapter@D@__crt_stdio_output@@@2@@__crt_stdio_output@@AAE_NXZ 100345a0 f i libucrt:output.obj
 0001:000335bd       ?type_case_o@?$output_processor@DV?$stream_output_adapter@D@__crt_stdio_output@@V?$positional_parameter_base@DV?$stream_output_adapter@D@__crt_stdio_output@@@2@@__crt_stdio_output@@AAE_NXZ 100345bd f i libucrt:output.obj
 0001:000335da       ?type_case_o@?$output_processor@DV?$stream_output_adapter@D@__crt_stdio_output@@V?$standard_base@DV?$stream_output_adapter@D@__crt_stdio_output@@@2@@__crt_stdio_output@@AAE_NXZ 100345da f i libucrt:output.obj
 0001:000335f7       ?type_case_o@?$output_processor@DV?$string_output_adapter@D@__crt_stdio_output@@V?$format_validation_base@DV?$string_output_adapter@D@__crt_stdio_output@@@2@@__crt_stdio_output@@AAE_NXZ 100345f7 f i libucrt:output.obj
 0001:00033614       ?type_case_o@?$output_processor@DV?$string_output_adapter@D@__crt_stdio_output@@V?$positional_parameter_base@DV?$string_output_adapter@D@__crt_stdio_output@@@2@@__crt_stdio_output@@AAE_NXZ 10034614 f i libucrt:output.obj
 0001:00033631       ?type_case_o@?$output_processor@DV?$string_output_adapter@D@__crt_stdio_output@@V?$standard_base@DV?$string_output_adapter@D@__crt_stdio_output@@@2@@__crt_stdio_output@@AAE_NXZ 10034631 f i libucrt:output.obj
 0001:0003364e       ?type_case_o@?$output_processor@_WV?$stream_output_adapter@_W@__crt_stdio_output@@V?$format_validation_base@_WV?$stream_output_adapter@_W@__crt_stdio_output@@@2@@__crt_stdio_output@@AAE_NXZ 1003464e f i libucrt:output.obj
 0001:0003366b       ?type_case_o@?$output_processor@_WV?$stream_output_adapter@_W@__crt_stdio_output@@V?$positional_parameter_base@_WV?$stream_output_adapter@_W@__crt_stdio_output@@@2@@__crt_stdio_output@@AAE_NXZ 1003466b f i libucrt:output.obj
 0001:00033688       ?type_case_o@?$output_processor@_WV?$stream_output_adapter@_W@__crt_stdio_output@@V?$standard_base@_WV?$stream_output_adapter@_W@__crt_stdio_output@@@2@@__crt_stdio_output@@AAE_NXZ 10034688 f i libucrt:output.obj
 0001:000336a5       ?type_case_o@?$output_processor@_WV?$string_output_adapter@_W@__crt_stdio_output@@V?$format_validation_base@_WV?$string_output_adapter@_W@__crt_stdio_output@@@2@@__crt_stdio_output@@AAE_NXZ 100346a5 f i libucrt:output.obj
 0001:000336c2       ?type_case_o@?$output_processor@_WV?$string_output_adapter@_W@__crt_stdio_output@@V?$positional_parameter_base@_WV?$string_output_adapter@_W@__crt_stdio_output@@@2@@__crt_stdio_output@@AAE_NXZ 100346c2 f i libucrt:output.obj
 0001:000336df       ?type_case_o@?$output_processor@_WV?$string_output_adapter@_W@__crt_stdio_output@@V?$standard_base@_WV?$string_output_adapter@_W@__crt_stdio_output@@@2@@__crt_stdio_output@@AAE_NXZ 100346df f i libucrt:output.obj
 0001:000336fc       ?type_case_p@?$output_processor@DV?$stream_output_adapter@D@__crt_stdio_output@@V?$format_validation_base@DV?$stream_output_adapter@D@__crt_stdio_output@@@2@@__crt_stdio_output@@AAE_NXZ 100346fc f i libucrt:output.obj
 0001:00033712       ?type_case_p@?$output_processor@DV?$stream_output_adapter@D@__crt_stdio_output@@V?$positional_parameter_base@DV?$stream_output_adapter@D@__crt_stdio_output@@@2@@__crt_stdio_output@@AAE_NXZ 10034712 f i libucrt:output.obj
 0001:00033728       ?type_case_p@?$output_processor@DV?$stream_output_adapter@D@__crt_stdio_output@@V?$standard_base@DV?$stream_output_adapter@D@__crt_stdio_output@@@2@@__crt_stdio_output@@AAE_NXZ 10034728 f i libucrt:output.obj
 0001:0003373e       ?type_case_p@?$output_processor@DV?$string_output_adapter@D@__crt_stdio_output@@V?$format_validation_base@DV?$string_output_adapter@D@__crt_stdio_output@@@2@@__crt_stdio_output@@AAE_NXZ 1003473e f i libucrt:output.obj
 0001:00033754       ?type_case_p@?$output_processor@DV?$string_output_adapter@D@__crt_stdio_output@@V?$positional_parameter_base@DV?$string_output_adapter@D@__crt_stdio_output@@@2@@__crt_stdio_output@@AAE_NXZ 10034754 f i libucrt:output.obj
 0001:0003376a       ?type_case_p@?$output_processor@DV?$string_output_adapter@D@__crt_stdio_output@@V?$standard_base@DV?$string_output_adapter@D@__crt_stdio_output@@@2@@__crt_stdio_output@@AAE_NXZ 1003476a f i libucrt:output.obj
 0001:00033780       ?type_case_p@?$output_processor@_WV?$stream_output_adapter@_W@__crt_stdio_output@@V?$format_validation_base@_WV?$stream_output_adapter@_W@__crt_stdio_output@@@2@@__crt_stdio_output@@AAE_NXZ 10034780 f i libucrt:output.obj
 0001:00033796       ?type_case_p@?$output_processor@_WV?$stream_output_adapter@_W@__crt_stdio_output@@V?$positional_parameter_base@_WV?$stream_output_adapter@_W@__crt_stdio_output@@@2@@__crt_stdio_output@@AAE_NXZ 10034796 f i libucrt:output.obj
 0001:000337ac       ?type_case_p@?$output_processor@_WV?$stream_output_adapter@_W@__crt_stdio_output@@V?$standard_base@_WV?$stream_output_adapter@_W@__crt_stdio_output@@@2@@__crt_stdio_output@@AAE_NXZ 100347ac f i libucrt:output.obj
 0001:000337c2       ?type_case_p@?$output_processor@_WV?$string_output_adapter@_W@__crt_stdio_output@@V?$format_validation_base@_WV?$string_output_adapter@_W@__crt_stdio_output@@@2@@__crt_stdio_output@@AAE_NXZ 100347c2 f i libucrt:output.obj
 0001:000337d8       ?type_case_p@?$output_processor@_WV?$string_output_adapter@_W@__crt_stdio_output@@V?$positional_parameter_base@_WV?$string_output_adapter@_W@__crt_stdio_output@@@2@@__crt_stdio_output@@AAE_NXZ 100347d8 f i libucrt:output.obj
 0001:000337ee       ?type_case_p@?$output_processor@_WV?$string_output_adapter@_W@__crt_stdio_output@@V?$standard_base@_WV?$string_output_adapter@_W@__crt_stdio_output@@@2@@__crt_stdio_output@@AAE_NXZ 100347ee f i libucrt:output.obj
 0001:00033804       ?type_case_s@?$output_processor@DV?$stream_output_adapter@D@__crt_stdio_output@@V?$format_validation_base@DV?$stream_output_adapter@D@__crt_stdio_output@@@2@@__crt_stdio_output@@AAE_NXZ 10034804 f i libucrt:output.obj
 0001:00033875       ?type_case_s@?$output_processor@DV?$stream_output_adapter@D@__crt_stdio_output@@V?$positional_parameter_base@DV?$stream_output_adapter@D@__crt_stdio_output@@@2@@__crt_stdio_output@@AAE_NXZ 10034875 f i libucrt:output.obj
 0001:000338f3       ?type_case_s@?$output_processor@DV?$stream_output_adapter@D@__crt_stdio_output@@V?$standard_base@DV?$stream_output_adapter@D@__crt_stdio_output@@@2@@__crt_stdio_output@@AAE_NXZ 100348f3 f i libucrt:output.obj
 0001:00033964       ?type_case_s@?$output_processor@DV?$string_output_adapter@D@__crt_stdio_output@@V?$format_validation_base@DV?$string_output_adapter@D@__crt_stdio_output@@@2@@__crt_stdio_output@@AAE_NXZ 10034964 f i libucrt:output.obj
 0001:000339d5       ?type_case_s@?$output_processor@DV?$string_output_adapter@D@__crt_stdio_output@@V?$positional_parameter_base@DV?$string_output_adapter@D@__crt_stdio_output@@@2@@__crt_stdio_output@@AAE_NXZ 100349d5 f i libucrt:output.obj
 0001:00033a53       ?type_case_s@?$output_processor@DV?$string_output_adapter@D@__crt_stdio_output@@V?$standard_base@DV?$string_output_adapter@D@__crt_stdio_output@@@2@@__crt_stdio_output@@AAE_NXZ 10034a53 f i libucrt:output.obj
 0001:00033ac4       ?type_case_s@?$output_processor@_WV?$stream_output_adapter@_W@__crt_stdio_output@@V?$format_validation_base@_WV?$stream_output_adapter@_W@__crt_stdio_output@@@2@@__crt_stdio_output@@AAE_NXZ 10034ac4 f i libucrt:output.obj
 0001:00033b37       ?type_case_s@?$output_processor@_WV?$stream_output_adapter@_W@__crt_stdio_output@@V?$positional_parameter_base@_WV?$stream_output_adapter@_W@__crt_stdio_output@@@2@@__crt_stdio_output@@AAE_NXZ 10034b37 f i libucrt:output.obj
 0001:00033bb7       ?type_case_s@?$output_processor@_WV?$stream_output_adapter@_W@__crt_stdio_output@@V?$standard_base@_WV?$stream_output_adapter@_W@__crt_stdio_output@@@2@@__crt_stdio_output@@AAE_NXZ 10034bb7 f i libucrt:output.obj
 0001:00033c2a       ?type_case_s@?$output_processor@_WV?$string_output_adapter@_W@__crt_stdio_output@@V?$format_validation_base@_WV?$string_output_adapter@_W@__crt_stdio_output@@@2@@__crt_stdio_output@@AAE_NXZ 10034c2a f i libucrt:output.obj
 0001:00033c9d       ?type_case_s@?$output_processor@_WV?$string_output_adapter@_W@__crt_stdio_output@@V?$positional_parameter_base@_WV?$string_output_adapter@_W@__crt_stdio_output@@@2@@__crt_stdio_output@@AAE_NXZ 10034c9d f i libucrt:output.obj
 0001:00033d1d       ?type_case_s@?$output_processor@_WV?$string_output_adapter@_W@__crt_stdio_output@@V?$standard_base@_WV?$string_output_adapter@_W@__crt_stdio_output@@@2@@__crt_stdio_output@@AAE_NXZ 10034d1d f i libucrt:output.obj
 0001:00033d90       ?type_case_s_compute_narrow_string_length@?$output_processor@DV?$stream_output_adapter@D@__crt_stdio_output@@V?$format_validation_base@DV?$stream_output_adapter@D@__crt_stdio_output@@@2@@__crt_stdio_output@@AAEHHD@Z 10034d90 f i libucrt:output.obj
 0001:00033da6       ?type_case_s_compute_narrow_string_length@?$output_processor@DV?$stream_output_adapter@D@__crt_stdio_output@@V?$positional_parameter_base@DV?$stream_output_adapter@D@__crt_stdio_output@@@2@@__crt_stdio_output@@AAEHHD@Z 10034da6 f i libucrt:output.obj
 0001:00033dbc       ?type_case_s_compute_narrow_string_length@?$output_processor@DV?$stream_output_adapter@D@__crt_stdio_output@@V?$standard_base@DV?$stream_output_adapter@D@__crt_stdio_output@@@2@@__crt_stdio_output@@AAEHHD@Z 10034dbc f i libucrt:output.obj
 0001:00033dd2       ?type_case_s_compute_narrow_string_length@?$output_processor@DV?$string_output_adapter@D@__crt_stdio_output@@V?$format_validation_base@DV?$string_output_adapter@D@__crt_stdio_output@@@2@@__crt_stdio_output@@AAEHHD@Z 10034dd2 f i libucrt:output.obj
 0001:00033de8       ?type_case_s_compute_narrow_string_length@?$output_processor@DV?$string_output_adapter@D@__crt_stdio_output@@V?$positional_parameter_base@DV?$string_output_adapter@D@__crt_stdio_output@@@2@@__crt_stdio_output@@AAEHHD@Z 10034de8 f i libucrt:output.obj
 0001:00033dfe       ?type_case_s_compute_narrow_string_length@?$output_processor@DV?$string_output_adapter@D@__crt_stdio_output@@V?$standard_base@DV?$string_output_adapter@D@__crt_stdio_output@@@2@@__crt_stdio_output@@AAEHHD@Z 10034dfe f i libucrt:output.obj
 0001:00033e14       ?type_case_s_compute_narrow_string_length@?$output_processor@_WV?$stream_output_adapter@_W@__crt_stdio_output@@V?$format_validation_base@_WV?$stream_output_adapter@_W@__crt_stdio_output@@@2@@__crt_stdio_output@@AAEHH_W@Z 10034e14 f i libucrt:output.obj
 0001:00033e69       ?type_case_s_compute_narrow_string_length@?$output_processor@_WV?$stream_output_adapter@_W@__crt_stdio_output@@V?$positional_parameter_base@_WV?$stream_output_adapter@_W@__crt_stdio_output@@@2@@__crt_stdio_output@@AAEHH_W@Z 10034e69 f i libucrt:output.obj
 0001:00033ebe       ?type_case_s_compute_narrow_string_length@?$output_processor@_WV?$stream_output_adapter@_W@__crt_stdio_output@@V?$standard_base@_WV?$stream_output_adapter@_W@__crt_stdio_output@@@2@@__crt_stdio_output@@AAEHH_W@Z 10034ebe f i libucrt:output.obj
 0001:00033f13       ?type_case_s_compute_narrow_string_length@?$output_processor@_WV?$string_output_adapter@_W@__crt_stdio_output@@V?$format_validation_base@_WV?$string_output_adapter@_W@__crt_stdio_output@@@2@@__crt_stdio_output@@AAEHH_W@Z 10034f13 f i libucrt:output.obj
 0001:00033f68       ?type_case_s_compute_narrow_string_length@?$output_processor@_WV?$string_output_adapter@_W@__crt_stdio_output@@V?$positional_parameter_base@_WV?$string_output_adapter@_W@__crt_stdio_output@@@2@@__crt_stdio_output@@AAEHH_W@Z 10034f68 f i libucrt:output.obj
 0001:00033fbd       ?type_case_s_compute_narrow_string_length@?$output_processor@_WV?$string_output_adapter@_W@__crt_stdio_output@@V?$standard_base@_WV?$string_output_adapter@_W@__crt_stdio_output@@@2@@__crt_stdio_output@@AAEHH_W@Z 10034fbd f i libucrt:output.obj
 0001:00034012       ?type_case_u@?$output_processor@DV?$stream_output_adapter@D@__crt_stdio_output@@V?$format_validation_base@DV?$stream_output_adapter@D@__crt_stdio_output@@@2@@__crt_stdio_output@@AAE_NXZ 10035012 f i libucrt:output.obj
 0001:0003401a       ?type_case_u@?$output_processor@DV?$stream_output_adapter@D@__crt_stdio_output@@V?$positional_parameter_base@DV?$stream_output_adapter@D@__crt_stdio_output@@@2@@__crt_stdio_output@@AAE_NXZ 1003501a f i libucrt:output.obj
 0001:00034022       ?type_case_u@?$output_processor@DV?$stream_output_adapter@D@__crt_stdio_output@@V?$standard_base@DV?$stream_output_adapter@D@__crt_stdio_output@@@2@@__crt_stdio_output@@AAE_NXZ 10035022 f i libucrt:output.obj
 0001:0003402a       ?type_case_u@?$output_processor@DV?$string_output_adapter@D@__crt_stdio_output@@V?$format_validation_base@DV?$string_output_adapter@D@__crt_stdio_output@@@2@@__crt_stdio_output@@AAE_NXZ 1003502a f i libucrt:output.obj
 0001:00034032       ?type_case_u@?$output_processor@DV?$string_output_adapter@D@__crt_stdio_output@@V?$positional_parameter_base@DV?$string_output_adapter@D@__crt_stdio_output@@@2@@__crt_stdio_output@@AAE_NXZ 10035032 f i libucrt:output.obj
 0001:0003403a       ?type_case_u@?$output_processor@DV?$string_output_adapter@D@__crt_stdio_output@@V?$standard_base@DV?$string_output_adapter@D@__crt_stdio_output@@@2@@__crt_stdio_output@@AAE_NXZ 1003503a f i libucrt:output.obj
 0001:00034042       ?type_case_u@?$output_processor@_WV?$stream_output_adapter@_W@__crt_stdio_output@@V?$format_validation_base@_WV?$stream_output_adapter@_W@__crt_stdio_output@@@2@@__crt_stdio_output@@AAE_NXZ 10035042 f i libucrt:output.obj
 0001:0003404a       ?type_case_u@?$output_processor@_WV?$stream_output_adapter@_W@__crt_stdio_output@@V?$positional_parameter_base@_WV?$stream_output_adapter@_W@__crt_stdio_output@@@2@@__crt_stdio_output@@AAE_NXZ 1003504a f i libucrt:output.obj
 0001:00034052       ?type_case_u@?$output_processor@_WV?$stream_output_adapter@_W@__crt_stdio_output@@V?$standard_base@_WV?$stream_output_adapter@_W@__crt_stdio_output@@@2@@__crt_stdio_output@@AAE_NXZ 10035052 f i libucrt:output.obj
 0001:0003405a       ?type_case_u@?$output_processor@_WV?$string_output_adapter@_W@__crt_stdio_output@@V?$format_validation_base@_WV?$string_output_adapter@_W@__crt_stdio_output@@@2@@__crt_stdio_output@@AAE_NXZ 1003505a f i libucrt:output.obj
 0001:00034062       ?type_case_u@?$output_processor@_WV?$string_output_adapter@_W@__crt_stdio_output@@V?$positional_parameter_base@_WV?$string_output_adapter@_W@__crt_stdio_output@@@2@@__crt_stdio_output@@AAE_NXZ 10035062 f i libucrt:output.obj
 0001:0003406a       ?type_case_u@?$output_processor@_WV?$string_output_adapter@_W@__crt_stdio_output@@V?$standard_base@_WV?$string_output_adapter@_W@__crt_stdio_output@@@2@@__crt_stdio_output@@AAE_NXZ 1003506a f i libucrt:output.obj
 0001:00034072       ?type_case_x@?$output_processor@DV?$stream_output_adapter@D@__crt_stdio_output@@V?$format_validation_base@DV?$stream_output_adapter@D@__crt_stdio_output@@@2@@__crt_stdio_output@@AAE_NXZ 10035072 f i libucrt:output.obj
 0001:0003407a       ?type_case_x@?$output_processor@DV?$stream_output_adapter@D@__crt_stdio_output@@V?$positional_parameter_base@DV?$stream_output_adapter@D@__crt_stdio_output@@@2@@__crt_stdio_output@@AAE_NXZ 1003507a f i libucrt:output.obj
 0001:00034082       ?type_case_x@?$output_processor@DV?$stream_output_adapter@D@__crt_stdio_output@@V?$standard_base@DV?$stream_output_adapter@D@__crt_stdio_output@@@2@@__crt_stdio_output@@AAE_NXZ 10035082 f i libucrt:output.obj
 0001:0003408a       ?type_case_x@?$output_processor@DV?$string_output_adapter@D@__crt_stdio_output@@V?$format_validation_base@DV?$string_output_adapter@D@__crt_stdio_output@@@2@@__crt_stdio_output@@AAE_NXZ 1003508a f i libucrt:output.obj
 0001:00034092       ?type_case_x@?$output_processor@DV?$string_output_adapter@D@__crt_stdio_output@@V?$positional_parameter_base@DV?$string_output_adapter@D@__crt_stdio_output@@@2@@__crt_stdio_output@@AAE_NXZ 10035092 f i libucrt:output.obj
 0001:0003409a       ?type_case_x@?$output_processor@DV?$string_output_adapter@D@__crt_stdio_output@@V?$standard_base@DV?$string_output_adapter@D@__crt_stdio_output@@@2@@__crt_stdio_output@@AAE_NXZ 1003509a f i libucrt:output.obj
 0001:000340a2       ?type_case_x@?$output_processor@_WV?$stream_output_adapter@_W@__crt_stdio_output@@V?$format_validation_base@_WV?$stream_output_adapter@_W@__crt_stdio_output@@@2@@__crt_stdio_output@@AAE_NXZ 100350a2 f i libucrt:output.obj
 0001:000340aa       ?type_case_x@?$output_processor@_WV?$stream_output_adapter@_W@__crt_stdio_output@@V?$positional_parameter_base@_WV?$stream_output_adapter@_W@__crt_stdio_output@@@2@@__crt_stdio_output@@AAE_NXZ 100350aa f i libucrt:output.obj
 0001:000340b2       ?type_case_x@?$output_processor@_WV?$stream_output_adapter@_W@__crt_stdio_output@@V?$standard_base@_WV?$stream_output_adapter@_W@__crt_stdio_output@@@2@@__crt_stdio_output@@AAE_NXZ 100350b2 f i libucrt:output.obj
 0001:000340ba       ?type_case_x@?$output_processor@_WV?$string_output_adapter@_W@__crt_stdio_output@@V?$format_validation_base@_WV?$string_output_adapter@_W@__crt_stdio_output@@@2@@__crt_stdio_output@@AAE_NXZ 100350ba f i libucrt:output.obj
 0001:000340c2       ?type_case_x@?$output_processor@_WV?$string_output_adapter@_W@__crt_stdio_output@@V?$positional_parameter_base@_WV?$string_output_adapter@_W@__crt_stdio_output@@@2@@__crt_stdio_output@@AAE_NXZ 100350c2 f i libucrt:output.obj
 0001:000340ca       ?type_case_x@?$output_processor@_WV?$string_output_adapter@_W@__crt_stdio_output@@V?$standard_base@_WV?$string_output_adapter@_W@__crt_stdio_output@@@2@@__crt_stdio_output@@AAE_NXZ 100350ca f i libucrt:output.obj
 0001:000340d2       ?unget@?$c_string_character_source@D@__crt_strtox@@QAEXD@Z 100350d2 f i libucrt:output.obj
 0001:000340fb       ?unget@?$c_string_character_source@_W@__crt_strtox@@QAEX_W@Z 100350fb f i libucrt:output.obj
 0001:00034129       ?unset_flag@?$output_processor@DV?$stream_output_adapter@D@__crt_stdio_output@@V?$format_validation_base@DV?$stream_output_adapter@D@__crt_stdio_output@@@2@@__crt_stdio_output@@AAEXI@Z 10035129 f i libucrt:output.obj
 0001:0003413a       ?unset_flag@?$output_processor@DV?$stream_output_adapter@D@__crt_stdio_output@@V?$positional_parameter_base@DV?$stream_output_adapter@D@__crt_stdio_output@@@2@@__crt_stdio_output@@AAEXI@Z 1003513a f i libucrt:output.obj
 0001:0003414b       ?unset_flag@?$output_processor@DV?$stream_output_adapter@D@__crt_stdio_output@@V?$standard_base@DV?$stream_output_adapter@D@__crt_stdio_output@@@2@@__crt_stdio_output@@AAEXI@Z 1003514b f i libucrt:output.obj
 0001:0003415c       ?unset_flag@?$output_processor@DV?$string_output_adapter@D@__crt_stdio_output@@V?$format_validation_base@DV?$string_output_adapter@D@__crt_stdio_output@@@2@@__crt_stdio_output@@AAEXI@Z 1003515c f i libucrt:output.obj
 0001:0003416d       ?unset_flag@?$output_processor@DV?$string_output_adapter@D@__crt_stdio_output@@V?$positional_parameter_base@DV?$string_output_adapter@D@__crt_stdio_output@@@2@@__crt_stdio_output@@AAEXI@Z 1003516d f i libucrt:output.obj
 0001:0003417e       ?unset_flag@?$output_processor@DV?$string_output_adapter@D@__crt_stdio_output@@V?$standard_base@DV?$string_output_adapter@D@__crt_stdio_output@@@2@@__crt_stdio_output@@AAEXI@Z 1003517e f i libucrt:output.obj
 0001:0003418f       ?unset_flag@?$output_processor@_WV?$stream_output_adapter@_W@__crt_stdio_output@@V?$format_validation_base@_WV?$stream_output_adapter@_W@__crt_stdio_output@@@2@@__crt_stdio_output@@AAEXI@Z 1003518f f i libucrt:output.obj
 0001:000341a0       ?unset_flag@?$output_processor@_WV?$stream_output_adapter@_W@__crt_stdio_output@@V?$positional_parameter_base@_WV?$stream_output_adapter@_W@__crt_stdio_output@@@2@@__crt_stdio_output@@AAEXI@Z 100351a0 f i libucrt:output.obj
 0001:000341b1       ?unset_flag@?$output_processor@_WV?$stream_output_adapter@_W@__crt_stdio_output@@V?$standard_base@_WV?$stream_output_adapter@_W@__crt_stdio_output@@@2@@__crt_stdio_output@@AAEXI@Z 100351b1 f i libucrt:output.obj
 0001:000341c2       ?unset_flag@?$output_processor@_WV?$string_output_adapter@_W@__crt_stdio_output@@V?$format_validation_base@_WV?$string_output_adapter@_W@__crt_stdio_output@@@2@@__crt_stdio_output@@AAEXI@Z 100351c2 f i libucrt:output.obj
 0001:000341d3       ?unset_flag@?$output_processor@_WV?$string_output_adapter@_W@__crt_stdio_output@@V?$positional_parameter_base@_WV?$string_output_adapter@_W@__crt_stdio_output@@@2@@__crt_stdio_output@@AAEXI@Z 100351d3 f i libucrt:output.obj
 0001:000341e4       ?unset_flag@?$output_processor@_WV?$string_output_adapter@_W@__crt_stdio_output@@V?$standard_base@_WV?$string_output_adapter@_W@__crt_stdio_output@@@2@@__crt_stdio_output@@AAEXI@Z 100351e4 f i libucrt:output.obj
 0001:000341f5       ?update_field_width@?$positional_parameter_base@DV?$stream_output_adapter@D@__crt_stdio_output@@@__crt_stdio_output@@IAE_NXZ 100351f5 f i libucrt:output.obj
 0001:000342c9       ?update_field_width@?$positional_parameter_base@DV?$string_output_adapter@D@__crt_stdio_output@@@__crt_stdio_output@@IAE_NXZ 100352c9 f i libucrt:output.obj
 0001:0003439d       ?update_field_width@?$positional_parameter_base@_WV?$stream_output_adapter@_W@__crt_stdio_output@@@__crt_stdio_output@@IAE_NXZ 1003539d f i libucrt:output.obj
 0001:00034472       ?update_field_width@?$positional_parameter_base@_WV?$string_output_adapter@_W@__crt_stdio_output@@@__crt_stdio_output@@IAE_NXZ 10035472 f i libucrt:output.obj
 0001:00034547       ?update_field_width@?$standard_base@DV?$stream_output_adapter@D@__crt_stdio_output@@@__crt_stdio_output@@IAE_NXZ 10035547 f i libucrt:output.obj
 0001:00034557       ?update_field_width@?$standard_base@DV?$string_output_adapter@D@__crt_stdio_output@@@__crt_stdio_output@@IAE_NXZ 10035557 f i libucrt:output.obj
 0001:00034567       ?update_field_width@?$standard_base@_WV?$stream_output_adapter@_W@__crt_stdio_output@@@__crt_stdio_output@@IAE_NXZ 10035567 f i libucrt:output.obj
 0001:00034577       ?update_field_width@?$standard_base@_WV?$string_output_adapter@_W@__crt_stdio_output@@@__crt_stdio_output@@IAE_NXZ 10035577 f i libucrt:output.obj
 0001:00034587       ?update_precision@?$positional_parameter_base@DV?$stream_output_adapter@D@__crt_stdio_output@@@__crt_stdio_output@@IAE_NXZ 10035587 f i libucrt:output.obj
 0001:0003465b       ?update_precision@?$positional_parameter_base@DV?$string_output_adapter@D@__crt_stdio_output@@@__crt_stdio_output@@IAE_NXZ 1003565b f i libucrt:output.obj
 0001:0003472f       ?update_precision@?$positional_parameter_base@_WV?$stream_output_adapter@_W@__crt_stdio_output@@@__crt_stdio_output@@IAE_NXZ 1003572f f i libucrt:output.obj
 0001:00034804       ?update_precision@?$positional_parameter_base@_WV?$string_output_adapter@_W@__crt_stdio_output@@@__crt_stdio_output@@IAE_NXZ 10035804 f i libucrt:output.obj
 0001:000348d9       ?update_precision@?$standard_base@DV?$stream_output_adapter@D@__crt_stdio_output@@@__crt_stdio_output@@IAE_NXZ 100358d9 f i libucrt:output.obj
 0001:000348e9       ?update_precision@?$standard_base@DV?$string_output_adapter@D@__crt_stdio_output@@@__crt_stdio_output@@IAE_NXZ 100358e9 f i libucrt:output.obj
 0001:000348f9       ?update_precision@?$standard_base@_WV?$stream_output_adapter@_W@__crt_stdio_output@@@__crt_stdio_output@@IAE_NXZ 100358f9 f i libucrt:output.obj
 0001:00034909       ?update_precision@?$standard_base@_WV?$string_output_adapter@_W@__crt_stdio_output@@@__crt_stdio_output@@IAE_NXZ 10035909 f i libucrt:output.obj
 0001:00034919       ?valid@__crt_stdio_stream@@QBE_NXZ 10035919 f i libucrt:output.obj
 0001:00034920       ?validate@?$c_string_character_source@D@__crt_strtox@@QBE_NXZ 10035920 f i libucrt:output.obj
 0001:0003493b       ?validate@?$c_string_character_source@_W@__crt_strtox@@QBE_NXZ 1003593b f i libucrt:output.obj
 0001:00034956       ?validate@?$stream_output_adapter@D@__crt_stdio_output@@QBE_NAAV__crt_cached_ptd_host@@@Z 10035956 f i libucrt:output.obj
 0001:0003498e       ?validate@?$stream_output_adapter@_W@__crt_stdio_output@@QBE_NAAV__crt_cached_ptd_host@@@Z 1003598e f i libucrt:output.obj
 0001:000349bf       ?validate@?$string_output_adapter@D@__crt_stdio_output@@QBE_NAAV__crt_cached_ptd_host@@@Z 100359bf f i libucrt:output.obj
 0001:000349f0       ?validate@?$string_output_adapter@_W@__crt_stdio_output@@QBE_NAAV__crt_cached_ptd_host@@@Z 100359f0 f i libucrt:output.obj
 0001:00034a21       ?validate_and_store_parameter_data@?$positional_parameter_base@DV?$stream_output_adapter@D@__crt_stdio_output@@@__crt_stdio_output@@AAE_NAAUparameter_data@12@W4parameter_type@12@DW4length_modifier@2@@Z 10035a21 f i libucrt:output.obj
 0001:00034a83       ?validate_and_store_parameter_data@?$positional_parameter_base@DV?$string_output_adapter@D@__crt_stdio_output@@@__crt_stdio_output@@AAE_NAAUparameter_data@12@W4parameter_type@12@DW4length_modifier@2@@Z 10035a83 f i libucrt:output.obj
 0001:00034ae5       ?validate_and_store_parameter_data@?$positional_parameter_base@_WV?$stream_output_adapter@_W@__crt_stdio_output@@@__crt_stdio_output@@AAE_NAAUparameter_data@12@W4parameter_type@12@_WW4length_modifier@2@@Z 10035ae5 f i libucrt:output.obj
 0001:00034b49       ?validate_and_store_parameter_data@?$positional_parameter_base@_WV?$string_output_adapter@_W@__crt_stdio_output@@@__crt_stdio_output@@AAE_NAAUparameter_data@12@W4parameter_type@12@_WW4length_modifier@2@@Z 10035b49 f i libucrt:output.obj
 0001:00034bad       ?validate_and_update_state_at_beginning_of_format_character@?$positional_parameter_base@DV?$stream_output_adapter@D@__crt_stdio_output@@@__crt_stdio_output@@IAE_NXZ 10035bad f i libucrt:output.obj
 0001:00034cc6       ?validate_and_update_state_at_beginning_of_format_character@?$positional_parameter_base@DV?$string_output_adapter@D@__crt_stdio_output@@@__crt_stdio_output@@IAE_NXZ 10035cc6 f i libucrt:output.obj
 0001:00034ddf       ?validate_and_update_state_at_beginning_of_format_character@?$positional_parameter_base@_WV?$stream_output_adapter@_W@__crt_stdio_output@@@__crt_stdio_output@@IAE_NXZ 10035ddf f i libucrt:output.obj
 0001:00034f02       ?validate_and_update_state_at_beginning_of_format_character@?$positional_parameter_base@_WV?$string_output_adapter@_W@__crt_stdio_output@@@__crt_stdio_output@@IAE_NXZ 10035f02 f i libucrt:output.obj
 0001:00035025       ?validate_and_update_state_at_beginning_of_format_character@?$standard_base@DV?$stream_output_adapter@D@__crt_stdio_output@@@__crt_stdio_output@@IAE_NXZ 10036025 f i libucrt:output.obj
 0001:00035028       ?validate_and_update_state_at_beginning_of_format_character@?$standard_base@DV?$string_output_adapter@D@__crt_stdio_output@@@__crt_stdio_output@@IAE_NXZ 10036028 f i libucrt:output.obj
 0001:0003502b       ?validate_and_update_state_at_beginning_of_format_character@?$standard_base@_WV?$stream_output_adapter@_W@__crt_stdio_output@@@__crt_stdio_output@@IAE_NXZ 1003602b f i libucrt:output.obj
 0001:0003502e       ?validate_and_update_state_at_beginning_of_format_character@?$standard_base@_WV?$string_output_adapter@_W@__crt_stdio_output@@@__crt_stdio_output@@IAE_NXZ 1003602e f i libucrt:output.obj
 0001:00035031       ?validate_and_update_state_at_end_of_format_string@?$format_validation_base@DV?$stream_output_adapter@D@__crt_stdio_output@@@__crt_stdio_output@@IAE_NXZ 10036031 f i libucrt:output.obj
 0001:00035062       ?validate_and_update_state_at_end_of_format_string@?$format_validation_base@DV?$string_output_adapter@D@__crt_stdio_output@@@__crt_stdio_output@@IAE_NXZ 10036062 f i libucrt:output.obj
 0001:00035093       ?validate_and_update_state_at_end_of_format_string@?$format_validation_base@_WV?$stream_output_adapter@_W@__crt_stdio_output@@@__crt_stdio_output@@IAE_NXZ 10036093 f i libucrt:output.obj
 0001:000350c4       ?validate_and_update_state_at_end_of_format_string@?$format_validation_base@_WV?$string_output_adapter@_W@__crt_stdio_output@@@__crt_stdio_output@@IAE_NXZ 100360c4 f i libucrt:output.obj
 0001:000350f5       ?validate_and_update_state_at_end_of_format_string@?$positional_parameter_base@DV?$stream_output_adapter@D@__crt_stdio_output@@@__crt_stdio_output@@IAE_NXZ 100360f5 f i libucrt:output.obj
 0001:000351b4       ?validate_and_update_state_at_end_of_format_string@?$positional_parameter_base@DV?$string_output_adapter@D@__crt_stdio_output@@@__crt_stdio_output@@IAE_NXZ 100361b4 f i libucrt:output.obj
 0001:00035273       ?validate_and_update_state_at_end_of_format_string@?$positional_parameter_base@_WV?$stream_output_adapter@_W@__crt_stdio_output@@@__crt_stdio_output@@IAE_NXZ 10036273 f i libucrt:output.obj
 0001:00035332       ?validate_and_update_state_at_end_of_format_string@?$positional_parameter_base@_WV?$string_output_adapter@_W@__crt_stdio_output@@@__crt_stdio_output@@IAE_NXZ 10036332 f i libucrt:output.obj
 0001:000353f1       ?validate_and_update_state_at_end_of_format_string@?$standard_base@DV?$stream_output_adapter@D@__crt_stdio_output@@@__crt_stdio_output@@IBE_NXZ 100363f1 f i libucrt:output.obj
 0001:000353f4       ?validate_and_update_state_at_end_of_format_string@?$standard_base@DV?$string_output_adapter@D@__crt_stdio_output@@@__crt_stdio_output@@IBE_NXZ 100363f4 f i libucrt:output.obj
 0001:000353f7       ?validate_and_update_state_at_end_of_format_string@?$standard_base@_WV?$stream_output_adapter@_W@__crt_stdio_output@@@__crt_stdio_output@@IBE_NXZ 100363f7 f i libucrt:output.obj
 0001:000353fa       ?validate_and_update_state_at_end_of_format_string@?$standard_base@_WV?$string_output_adapter@_W@__crt_stdio_output@@@__crt_stdio_output@@IBE_NXZ 100363fa f i libucrt:output.obj
 0001:000353fd       ?validate_state_for_type_case_a@?$positional_parameter_base@DV?$stream_output_adapter@D@__crt_stdio_output@@@__crt_stdio_output@@IAE_NXZ 100363fd f i libucrt:output.obj
 0001:0003545c       ?validate_state_for_type_case_a@?$positional_parameter_base@DV?$string_output_adapter@D@__crt_stdio_output@@@__crt_stdio_output@@IAE_NXZ 1003645c f i libucrt:output.obj
 0001:000354bb       ?validate_state_for_type_case_a@?$positional_parameter_base@_WV?$stream_output_adapter@_W@__crt_stdio_output@@@__crt_stdio_output@@IAE_NXZ 100364bb f i libucrt:output.obj
 0001:0003551a       ?validate_state_for_type_case_a@?$positional_parameter_base@_WV?$string_output_adapter@_W@__crt_stdio_output@@@__crt_stdio_output@@IAE_NXZ 1003651a f i libucrt:output.obj
 0001:00035579       ?validate_state_for_type_case_a@?$standard_base@DV?$stream_output_adapter@D@__crt_stdio_output@@@__crt_stdio_output@@IBE_NXZ 10036579 f i libucrt:output.obj
 0001:0003557c       ?validate_state_for_type_case_a@?$standard_base@DV?$string_output_adapter@D@__crt_stdio_output@@@__crt_stdio_output@@IBE_NXZ 1003657c f i libucrt:output.obj
 0001:0003557f       ?validate_state_for_type_case_a@?$standard_base@_WV?$stream_output_adapter@_W@__crt_stdio_output@@@__crt_stdio_output@@IBE_NXZ 1003657f f i libucrt:output.obj
 0001:00035582       ?validate_state_for_type_case_a@?$standard_base@_WV?$string_output_adapter@_W@__crt_stdio_output@@@__crt_stdio_output@@IBE_NXZ 10036582 f i libucrt:output.obj
 0001:00035585       ?validate_stream_is_ansi_if_required@?$__acrt_stdio_char_traits@D@@SA_NQAU_iobuf@@@Z 10036585 f i libucrt:output.obj
 0001:0003560c       ?validate_stream_is_ansi_if_required@?$__acrt_stdio_char_traits@_W@@SA_NQAU_iobuf@@@Z 1003660c f i libucrt:output.obj
 0001:0003560f       ?wide_character_to_digit@__crt_strtox@@YAH_W@Z 1003660f f i libucrt:output.obj
 0001:000357b0       ?wide_null_string@?$output_processor@DV?$stream_output_adapter@D@__crt_stdio_output@@V?$format_validation_base@DV?$stream_output_adapter@D@__crt_stdio_output@@@2@@__crt_stdio_output@@CAPA_WXZ 100367b0 f i libucrt:output.obj
 0001:000357b6       ?wide_null_string@?$output_processor@DV?$stream_output_adapter@D@__crt_stdio_output@@V?$positional_parameter_base@DV?$stream_output_adapter@D@__crt_stdio_output@@@2@@__crt_stdio_output@@CAPA_WXZ 100367b6 f i libucrt:output.obj
 0001:000357bc       ?wide_null_string@?$output_processor@DV?$stream_output_adapter@D@__crt_stdio_output@@V?$standard_base@DV?$stream_output_adapter@D@__crt_stdio_output@@@2@@__crt_stdio_output@@CAPA_WXZ 100367bc f i libucrt:output.obj
 0001:000357c2       ?wide_null_string@?$output_processor@DV?$string_output_adapter@D@__crt_stdio_output@@V?$format_validation_base@DV?$string_output_adapter@D@__crt_stdio_output@@@2@@__crt_stdio_output@@CAPA_WXZ 100367c2 f i libucrt:output.obj
 0001:000357c8       ?wide_null_string@?$output_processor@DV?$string_output_adapter@D@__crt_stdio_output@@V?$positional_parameter_base@DV?$string_output_adapter@D@__crt_stdio_output@@@2@@__crt_stdio_output@@CAPA_WXZ 100367c8 f i libucrt:output.obj
 0001:000357ce       ?wide_null_string@?$output_processor@DV?$string_output_adapter@D@__crt_stdio_output@@V?$standard_base@DV?$string_output_adapter@D@__crt_stdio_output@@@2@@__crt_stdio_output@@CAPA_WXZ 100367ce f i libucrt:output.obj
 0001:000357d4       ?wide_null_string@?$output_processor@_WV?$stream_output_adapter@_W@__crt_stdio_output@@V?$format_validation_base@_WV?$stream_output_adapter@_W@__crt_stdio_output@@@2@@__crt_stdio_output@@CAPA_WXZ 100367d4 f i libucrt:output.obj
 0001:000357da       ?wide_null_string@?$output_processor@_WV?$stream_output_adapter@_W@__crt_stdio_output@@V?$positional_parameter_base@_WV?$stream_output_adapter@_W@__crt_stdio_output@@@2@@__crt_stdio_output@@CAPA_WXZ 100367da f i libucrt:output.obj
 0001:000357e0       ?wide_null_string@?$output_processor@_WV?$stream_output_adapter@_W@__crt_stdio_output@@V?$standard_base@_WV?$stream_output_adapter@_W@__crt_stdio_output@@@2@@__crt_stdio_output@@CAPA_WXZ 100367e0 f i libucrt:output.obj
 0001:000357e6       ?wide_null_string@?$output_processor@_WV?$string_output_adapter@_W@__crt_stdio_output@@V?$format_validation_base@_WV?$string_output_adapter@_W@__crt_stdio_output@@@2@@__crt_stdio_output@@CAPA_WXZ 100367e6 f i libucrt:output.obj
 0001:000357ec       ?wide_null_string@?$output_processor@_WV?$string_output_adapter@_W@__crt_stdio_output@@V?$positional_parameter_base@_WV?$string_output_adapter@_W@__crt_stdio_output@@@2@@__crt_stdio_output@@CAPA_WXZ 100367ec f i libucrt:output.obj
 0001:000357f2       ?wide_null_string@?$output_processor@_WV?$string_output_adapter@_W@__crt_stdio_output@@V?$standard_base@_WV?$string_output_adapter@_W@__crt_stdio_output@@@2@@__crt_stdio_output@@CAPA_WXZ 100367f2 f i libucrt:output.obj
 0001:000357f8       ?write_character@?$output_adapter_common@DV?$stream_output_adapter@D@__crt_stdio_output@@@__crt_stdio_output@@QBEXDQAHAAV__crt_cached_ptd_host@@@Z 100367f8 f i libucrt:output.obj
 0001:0003581a       ?write_character@?$output_adapter_common@_WV?$stream_output_adapter@_W@__crt_stdio_output@@@__crt_stdio_output@@QBEX_WQAHAAV__crt_cached_ptd_host@@@Z 1003681a f i libucrt:output.obj
 0001:0003583c       ?write_character@?$string_output_adapter@D@__crt_stdio_output@@QBE_NDQAHAAV__crt_cached_ptd_host@@@Z 1003683c f i libucrt:output.obj
 0001:0003587e       ?write_character@?$string_output_adapter@_W@__crt_stdio_output@@QBE_N_WQAHAAV__crt_cached_ptd_host@@@Z 1003687e f i libucrt:output.obj
 0001:000358c3       ?write_character_without_count_update@?$stream_output_adapter@D@__crt_stdio_output@@QBE_NDAAV__crt_cached_ptd_host@@@Z 100368c3 f i libucrt:output.obj
 0001:000358fd       ?write_character_without_count_update@?$stream_output_adapter@_W@__crt_stdio_output@@QBE_N_WAAV__crt_cached_ptd_host@@@Z 100368fd f i libucrt:output.obj
 0001:0003593a       ?write_stored_string_tchar@?$output_processor@DV?$stream_output_adapter@D@__crt_stdio_output@@V?$format_validation_base@DV?$stream_output_adapter@D@__crt_stdio_output@@@2@@__crt_stdio_output@@AAE_ND@Z 1003693a f i libucrt:output.obj
 0001:000359dd       ?write_stored_string_tchar@?$output_processor@DV?$stream_output_adapter@D@__crt_stdio_output@@V?$positional_parameter_base@DV?$stream_output_adapter@D@__crt_stdio_output@@@2@@__crt_stdio_output@@AAE_ND@Z 100369dd f i libucrt:output.obj
 0001:00035a80       ?write_stored_string_tchar@?$output_processor@DV?$stream_output_adapter@D@__crt_stdio_output@@V?$standard_base@DV?$stream_output_adapter@D@__crt_stdio_output@@@2@@__crt_stdio_output@@AAE_ND@Z 10036a80 f i libucrt:output.obj
 0001:00035b23       ?write_stored_string_tchar@?$output_processor@DV?$string_output_adapter@D@__crt_stdio_output@@V?$format_validation_base@DV?$string_output_adapter@D@__crt_stdio_output@@@2@@__crt_stdio_output@@AAE_ND@Z 10036b23 f i libucrt:output.obj
 0001:00035bc6       ?write_stored_string_tchar@?$output_processor@DV?$string_output_adapter@D@__crt_stdio_output@@V?$positional_parameter_base@DV?$string_output_adapter@D@__crt_stdio_output@@@2@@__crt_stdio_output@@AAE_ND@Z 10036bc6 f i libucrt:output.obj
 0001:00035c69       ?write_stored_string_tchar@?$output_processor@DV?$string_output_adapter@D@__crt_stdio_output@@V?$standard_base@DV?$string_output_adapter@D@__crt_stdio_output@@@2@@__crt_stdio_output@@AAE_ND@Z 10036c69 f i libucrt:output.obj
 0001:00035d0c       ?write_stored_string_tchar@?$output_processor@_WV?$stream_output_adapter@_W@__crt_stdio_output@@V?$format_validation_base@_WV?$stream_output_adapter@_W@__crt_stdio_output@@@2@@__crt_stdio_output@@AAE_N_W@Z 10036d0c f i libucrt:output.obj
 0001:00035dbc       ?write_stored_string_tchar@?$output_processor@_WV?$stream_output_adapter@_W@__crt_stdio_output@@V?$positional_parameter_base@_WV?$stream_output_adapter@_W@__crt_stdio_output@@@2@@__crt_stdio_output@@AAE_N_W@Z 10036dbc f i libucrt:output.obj
 0001:00035e6c       ?write_stored_string_tchar@?$output_processor@_WV?$stream_output_adapter@_W@__crt_stdio_output@@V?$standard_base@_WV?$stream_output_adapter@_W@__crt_stdio_output@@@2@@__crt_stdio_output@@AAE_N_W@Z 10036e6c f i libucrt:output.obj
 0001:00035f1c       ?write_stored_string_tchar@?$output_processor@_WV?$string_output_adapter@_W@__crt_stdio_output@@V?$format_validation_base@_WV?$string_output_adapter@_W@__crt_stdio_output@@@2@@__crt_stdio_output@@AAE_N_W@Z 10036f1c f i libucrt:output.obj
 0001:00035ff6       ?write_stored_string_tchar@?$output_processor@_WV?$string_output_adapter@_W@__crt_stdio_output@@V?$positional_parameter_base@_WV?$string_output_adapter@_W@__crt_stdio_output@@@2@@__crt_stdio_output@@AAE_N_W@Z 10036ff6 f i libucrt:output.obj
 0001:000360d0       ?write_stored_string_tchar@?$output_processor@_WV?$string_output_adapter@_W@__crt_stdio_output@@V?$standard_base@_WV?$string_output_adapter@_W@__crt_stdio_output@@@2@@__crt_stdio_output@@AAE_N_W@Z 100370d0 f i libucrt:output.obj
 0001:000361aa       ?write_string@?$stream_output_adapter@D@__crt_stdio_output@@QBEXQBDHQAHAAV__crt_cached_ptd_host@@@Z 100371aa f i libucrt:output.obj
 0001:000361d6       ?write_string@?$stream_output_adapter@_W@__crt_stdio_output@@QBEXQB_WHQAHAAV__crt_cached_ptd_host@@@Z 100371d6 f i libucrt:output.obj
 0001:00036202       ?write_string@?$string_output_adapter@D@__crt_stdio_output@@QBEXQBDHQAHAAV__crt_cached_ptd_host@@@Z 10037202 f i libucrt:output.obj
 0001:00036269       ?write_string@?$string_output_adapter@_W@__crt_stdio_output@@QBEXQB_WHQAHAAV__crt_cached_ptd_host@@@Z 10037269 f i libucrt:output.obj
 0001:000362da       ?write_string_impl@?$output_adapter_common@DV?$stream_output_adapter@D@__crt_stdio_output@@@__crt_stdio_output@@IBEXQBDHQAHAAV__crt_cached_ptd_host@@@Z 100372da f i libucrt:output.obj
 0001:00036359       ?write_string_impl@?$output_adapter_common@_WV?$stream_output_adapter@_W@__crt_stdio_output@@@__crt_stdio_output@@IBEXQB_WHQAHAAV__crt_cached_ptd_host@@@Z 10037359 f i libucrt:output.obj
 0001:000363db       ___acrt_isleadbyte_l_noupdate 100373db f i libucrt:output.obj
 0001:000363f9       ___acrt_locale_get_ctype_array_value 100373f9 f i libucrt:output.obj
 0001:0003641b       ___ascii_iswalpha          1003741b f i libucrt:output.obj
 0001:0003643e       ___ascii_toupper           1003743e f i libucrt:output.obj
 0001:00036455       ___ascii_towupper          10037455 f i libucrt:output.obj
 0001:0003646c       ___stdio_common_vfprintf   1003746c f   libucrt:output.obj
 0001:00036510       ___stdio_common_vfprintf_p 10037510 f   libucrt:output.obj
 0001:000365b4       ___stdio_common_vfprintf_s 100375b4 f   libucrt:output.obj
 0001:00036658       ___stdio_common_vfwprintf  10037658 f   libucrt:output.obj
 0001:000366fc       ___stdio_common_vfwprintf_p 100376fc f   libucrt:output.obj
 0001:000367a0       ___stdio_common_vfwprintf_s 100377a0 f   libucrt:output.obj
 0001:00036844       ___stdio_common_vsnprintf_s 10037844 f   libucrt:output.obj
 0001:00036888       ___stdio_common_vsnwprintf_s 10037888 f   libucrt:output.obj
 0001:000368cc       ___stdio_common_vsprintf   100378cc f   libucrt:output.obj
 0001:0003690d       ___stdio_common_vsprintf_p 1003790d f   libucrt:output.obj
 0001:0003694e       ___stdio_common_vsprintf_s 1003794e f   libucrt:output.obj
 0001:0003698f       ___stdio_common_vswprintf  1003798f f   libucrt:output.obj
 0001:000369d0       ___stdio_common_vswprintf_p 100379d0 f   libucrt:output.obj
 0001:00036a11       ___stdio_common_vswprintf_s 10037a11 f   libucrt:output.obj
 0001:00036a52       __ctype_fast_check_internal 10037a52 f i libucrt:output.obj
 0001:00036a6c       __isdigit_fast_internal    10037a6c f i libucrt:output.obj
 0001:00036a86       __tolower_fast_internal    10037a86 f i libucrt:output.obj
 0001:00036a9f       _free                      10037a9f f   libucrt:free.obj
 0001:00036aba       _malloc                    10037aba f   libucrt:malloc.obj
 0001:00036fed       __read                     10037fed f   libucrt:read.obj
 0001:00037101       __read_nolock              10038101 f   libucrt:read.obj
 0001:000374a0       __utf8_no_of_trailbytes    100384a0 f i libucrt:read.obj
 0001:0003765e       __close                    1003865e f   libucrt:close.obj
 0001:0003768e       __close_internal           1003868e f   libucrt:close.obj
 0001:00037731       __close_nolock             10038731 f   libucrt:close.obj
 0001:00037761       __close_nolock_internal    10038761 f   libucrt:close.obj
 0001:00037801       ___acrt_errno_from_os_error 10038801 f   libucrt:errno.obj
 0001:00037844       ___acrt_errno_map_os_error 10038844 f   libucrt:errno.obj
 0001:00037867       ___acrt_errno_map_os_error_ptd 10038867 f   libucrt:errno.obj
 0001:0003788b       ___doserrno                1003888b f   libucrt:errno.obj
 0001:0003789e       __errno                    1003889e f   libucrt:errno.obj
 0001:000378b1       __get_doserrno             100388b1 f   libucrt:errno.obj
 0001:000378d6       __get_errno                100388d6 f   libucrt:errno.obj
 0001:000378fb       __set_doserrno             100388fb f   libucrt:errno.obj
 0001:0003791c       __set_errno                1003891c f   libucrt:errno.obj
 0001:0003793d       ??$?R_W@__crt_internal_free_policy@@QBEXQB_W@Z 1003893d f i libucrt:strerror.obj
 0001:00037b09       ??0?$__crt_unique_heap_ptr@_WU__crt_internal_free_policy@@@@QAE@QA_W@Z 10038b09 f i libucrt:strerror.obj
 0001:00037b19       ??1?$__crt_unique_heap_ptr@_WU__crt_internal_free_policy@@@@QAE@XZ 10038b19 f i libucrt:strerror.obj
 0001:00037b63       ?detach@?$__crt_unique_heap_ptr@DU__crt_internal_free_policy@@@@QAEPADXZ 10038b63 f i libucrt:strerror.obj
 0001:00037b69       ?detach@?$__crt_unique_heap_ptr@_WU__crt_internal_free_policy@@@@QAEPA_WXZ 10038b69 f i libucrt:strerror.obj
 0001:00037b95       ?release@?$__crt_unique_heap_ptr@_WU__crt_internal_free_policy@@@@QAEXXZ 10038b95 f i libucrt:strerror.obj
 0001:00037ba7       __get_sys_err_msg          10038ba7 f i libucrt:strerror.obj
 0001:00037bff       __invoke_watson_if_oneof   10038bff f i libucrt:strerror.obj
 0001:00037c2c       __wcserror                 10038c2c f   libucrt:strerror.obj
 0001:00037c37       __wcserror_s               10038c37 f   libucrt:strerror.obj
 0001:00037c9d       _strerror                  10038c9d f   libucrt:strerror.obj
 0001:00037ca8       _strerror_s                10038ca8 f   libucrt:strerror.obj
 0001:0003850a       __isleadbyte_fast_internal 1003950a f i libucrt:write.obj
 0001:00038528       __write                    10039528 f   libucrt:write.obj
 0001:0003855f       __write_internal           1003955f f   libucrt:write.obj
 0001:00038667       __write_nolock             10039667 f   libucrt:write.obj
 0001:00038f7b       ?ctrl_z@__crt_stdio_stream@@QBE_NXZ 10039f7b f i libucrt:ftell.obj
 0001:00038f87       ?has_all_of@__crt_stdio_stream@@QBE_NJ@Z 10039f87 f i libucrt:ftell.obj
 0001:00038f9f       ?has_any_of@__crt_stdio_stream@@QBE_NJ@Z 10039f9f f i libucrt:ftell.obj
 0001:00038fb4       ?has_big_buffer@__crt_stdio_stream@@QBE_NXZ 10039fb4 f i libucrt:ftell.obj
 0001:00038fc0       ?has_crt_buffer@__crt_stdio_stream@@QBE_NXZ 10039fc0 f i libucrt:ftell.obj
 0001:00038fcc       ?has_setvbuf_buffer@__crt_stdio_stream@@QBE_NXZ 10039fcc f i libucrt:ftell.obj
 0001:00038fd8       __ftell_nolock             10039fd8 f   libucrt:ftell.obj
 0001:00039008       __ftelli64                 1003a008 f   libucrt:ftell.obj
 0001:0003903e       __ftelli64_nolock          1003a03e f   libucrt:ftell.obj
 0001:00039074       __ftelli64_nolock_internal 1003a074 f   libucrt:ftell.obj
 0001:0003907f       _ftell                     1003a07f f   libucrt:ftell.obj
 0001:000390af       ?eof@__crt_stdio_stream@@QBE_NXZ 1003a0af f i libucrt:feoferr.obj
 0001:000390bb       ?error@__crt_stdio_stream@@QBE_NXZ 1003a0bb f i libucrt:feoferr.obj
 0001:000390c7       _feof                      1003a0c7 f   libucrt:feoferr.obj
 0001:000390f3       _ferror                    1003a0f3 f   libucrt:feoferr.obj
 0001:0003931a       ??$open_file@ABQBDABQBDABHPAU_iobuf@@@?$__crt_char_traits@D@@SAPAU_iobuf@@ABQBD0ABH$$QAPAU1@@Z 1003a31a f i libucrt:fopen.obj
 0001:0003933d       ??$open_file@ABQB_WABQB_WABHPAU_iobuf@@@?$__crt_char_traits@_W@@SAPAU_iobuf@@ABQB_W0ABH$$QAPAU1@@Z 1003a33d f i libucrt:fopen.obj
 0001:00039360       ?unlock@__crt_stdio_stream@@QBEXXZ 1003a360 f i libucrt:fopen.obj
 0001:00039369       __fsopen                   1003a369 f   libucrt:fopen.obj
 0001:00039374       __wfopen                   1003a374 f   libucrt:fopen.obj
 0001:0003938b       __wfopen_s                 1003a38b f   libucrt:fopen.obj
 0001:000393d2       __wfsopen                  1003a3d2 f   libucrt:fopen.obj
 0001:000393dd       _fopen                     1003a3dd f   libucrt:fopen.obj
 0001:000393f4       _fopen_s                   1003a3f4 f   libucrt:fopen.obj
 0001:00039560       ?is_in_use@__crt_stdio_stream@@QBE_NXZ 1003a560 f i libucrt:fclose.obj
 0001:0003956c       __fclose_nolock            1003a56c f   libucrt:fclose.obj
 0001:0003959c       _fclose                    1003a59c f   libucrt:fclose.obj
 0001:000395cc       ?LongLongSub@@YAJ_J0PA_J@Z 1003a5cc f i libucrt:fseek.obj
 0001:00039646       ?__acrt_stdio_reset_buffer@@YAXV__crt_stdio_stream@@@Z 1003a646 f i libucrt:fseek.obj
 0001:000398bd       ?has_any_buffer@__crt_stdio_stream@@QBE_NXZ 1003a8bd f i libucrt:fseek.obj
 0001:000398cc       ?lowio_handle@__crt_stdio_stream@@QBEHXZ 1003a8cc f i libucrt:fseek.obj
 0001:000398d3       ?unset_flags@__crt_stdio_stream@@QBE_NJ@Z 1003a8d3 f i libucrt:fseek.obj
 0001:000398fc       __fseek_nolock             1003a8fc f   libucrt:fseek.obj
 0001:00039936       __fseeki64                 1003a936 f   libucrt:fseek.obj
 0001:00039970       __fseeki64_nolock          1003a970 f   libucrt:fseek.obj
 0001:000399aa       _fseek                     1003a9aa f   libucrt:fseek.obj
 0001:00039b0f       ?set_flags@__crt_stdio_stream@@QBE_NJ@Z 1003ab0f f i libucrt:fwrite.obj
 0001:00039b33       __fwrite_internal          1003ab33 f   libucrt:fwrite.obj
 0001:00039baa       __fwrite_nolock            1003abaa f   libucrt:fwrite.obj
 0001:00039be4       __fwrite_nolock_internal   1003abe4 f   libucrt:fwrite.obj
 0001:00039d8e       _fwrite                    1003ad8e f   libucrt:fwrite.obj
 0001:00039dc8       __fread_nolock             1003adc8 f   libucrt:fread.obj
 0001:00039de5       __fread_nolock_s           1003ade5 f   libucrt:fread.obj
 0001:00039fcb       _fread                     1003afcb f   libucrt:fread.obj
 0001:00039fe8       _fread_s                   1003afe8 f   libucrt:fread.obj
 0001:0003a106       _rand                      1003b106 f   libucrt:rand.obj
 0001:0003a127       _srand                     1003b127 f   libucrt:rand.obj
 0001:0003a436       __time32                   1003b436 f   libucrt:time.obj
 0001:0003a493       __time64                   1003b493 f   libucrt:time.obj
 0001:0003a4fb       __timespec32_get           1003b4fb f   libucrt:time.obj
 0001:0003a506       __timespec64_get           1003b506 f   libucrt:time.obj
 0001:0003a511       __initterm                 1003b511 f   libucrt:initterm.obj
 0001:0003a53c       __initterm_e               1003b53c f   libucrt:initterm.obj
 0001:0003a58e       __seh_filter_dll           1003b58e f   libucrt:exception_filter.obj
 0001:0003a5ae       __seh_filter_exe           1003b5ae f   libucrt:exception_filter.obj
 0001:0003a6f4       ??$?B$$A6GXPAXK0@Z@__crt_fast_encoded_nullptr_t@@QBEP6GXPAXK0@ZXZ 1003b6f4 f i libucrt:exit.obj
 0001:0003a79c       ??$__crt_fast_decode_pointer@P6GXPAXK0@Z@@YAP6GXPAXK0@ZQ6GX0K0@Z@Z 1003b79c f i libucrt:exit.obj
 0001:0003a7b2       ??$__crt_fast_encode_pointer@P6GXPAXK0@Z@@YAP6GXPAXK0@ZQ6GX0K0@Z@Z 1003b7b2 f i libucrt:exit.obj
 0001:0003a7d1       ??$__crt_get_proc_address@P6GXI@Z@@YAP6GXI@ZQAUHINSTANCE__@@QBD@Z 1003b7d1 f i libucrt:exit.obj
 0001:0003a824       ??0?$__crt_unique_handle_t@U__crt_hmodule_traits@@@@QAE@QAUHINSTANCE__@@@Z 1003b824 f i libucrt:exit.obj
 0001:0003a834       ??1?$__crt_unique_handle_t@U__crt_hmodule_traits@@@@QAE@XZ 1003b834 f i libucrt:exit.obj
 0001:0003a948       ?__acrt_select_exit_lock@@YA?AW4__acrt_lock_id@@XZ 1003b948 f i libucrt:exit.obj
 0001:0003a94c       ?__crt_fast_encode_pointer@@YA?AU__crt_fast_encoded_nullptr_t@@$$T@Z 1003b94c f i libucrt:exit.obj
 0001:0003a957       ?__crt_rotate_pointer_value@@YAIIH@Z 1003b957 f i libucrt:exit.obj
 0001:0003a979       ?close@?$__crt_unique_handle_t@U__crt_hmodule_traits@@@@QAEXXZ 1003b979 f i libucrt:exit.obj
 0001:0003a990       ?close@__crt_hmodule_traits@@SA_NPAUHINSTANCE__@@@Z 1003b990 f i libucrt:exit.obj
 0001:0003aa6d       ?get@?$__crt_unique_handle_t@U__crt_hmodule_traits@@@@QBEPAUHINSTANCE__@@XZ 1003ba6d f i libucrt:exit.obj
 0001:0003aa70       ?get_address_of@?$__crt_unique_handle_t@U__crt_hmodule_traits@@@@QAEPAPAUHINSTANCE__@@XZ 1003ba70 f i libucrt:exit.obj
 0001:0003aa73       ?get_invalid_value@__crt_hmodule_traits@@SAPAUHINSTANCE__@@XZ 1003ba73 f i libucrt:exit.obj
 0001:0003ab5d       __Exit                     1003bb5d f   libucrt:exit.obj
 0001:0003ab73       ___acrt_initialize_thread_local_exit_callback 1003bb73 f   libucrt:exit.obj
 0001:0003ab82       __c_exit                   1003bb82 f   libucrt:exit.obj
 0001:0003ab91       __cexit                    1003bb91 f   libucrt:exit.obj
 0001:0003aba0       __exit                     1003bba0 f   libucrt:exit.obj
 0001:0003abb6       __is_c_termination_complete 1003bbb6 f   libucrt:exit.obj
 0001:0003abbd       __register_thread_local_exe_atexit_callback 1003bbbd f   libucrt:exit.obj
 0001:0003abe3       _exit                      1003bbe3 f   libucrt:exit.obj
 0001:0003abf9       _quick_exit                1003bbf9 f   libucrt:exit.obj
 0001:0003ac0f       ??$?RE@__crt_internal_free_policy@@QBEXQBE@Z 1003bc0f f i libucrt:argv_parsing.obj
 0001:0003ac21       ??$?RPAD@__crt_internal_free_policy@@QBEXQBQAD@Z 1003bc21 f i libucrt:argv_parsing.obj
 0001:0003ac33       ??$?RPA_W@__crt_internal_free_policy@@QBEXQBQA_W@Z 1003bc33 f i libucrt:argv_parsing.obj
 0001:0003aeb8       ??$get_module_file_name@$$TAAY0BAF@DH@?$__crt_char_traits@D@@SAK$$QA$$TAAY0BAF@D$$QAH@Z 1003beb8 f i libucrt:argv_parsing.obj
 0001:0003aed4       ??$get_module_file_name@$$TAAY0BAF@_WH@?$__crt_char_traits@_W@@SAK$$QA$$TAAY0BAF@_W$$QAH@Z 1003bed4 f i libucrt:argv_parsing.obj
 0001:0003b203       ??$set_program_name@PAD@?$__crt_char_traits@D@@SAX$$QAPAD@Z 1003c203 f i libucrt:argv_parsing.obj
 0001:0003b214       ??$set_program_name@PA_W@?$__crt_char_traits@_W@@SAX$$QAPA_W@Z 1003c214 f i libucrt:argv_parsing.obj
 0001:0003b245       ??0?$__crt_unique_heap_ptr@EU__crt_internal_free_policy@@@@QAE@QAE@Z 1003c245 f i libucrt:argv_parsing.obj
 0001:0003b255       ??0?$__crt_unique_heap_ptr@PADU__crt_internal_free_policy@@@@QAE@QAPAD@Z 1003c255 f i libucrt:argv_parsing.obj
 0001:0003b265       ??0?$__crt_unique_heap_ptr@PA_WU__crt_internal_free_policy@@@@QAE@QAPA_W@Z 1003c265 f i libucrt:argv_parsing.obj
 0001:0003b275       ??1?$__crt_unique_heap_ptr@EU__crt_internal_free_policy@@@@QAE@XZ 1003c275 f i libucrt:argv_parsing.obj
 0001:0003b287       ??1?$__crt_unique_heap_ptr@PADU__crt_internal_free_policy@@@@QAE@XZ 1003c287 f i libucrt:argv_parsing.obj
 0001:0003b299       ??1?$__crt_unique_heap_ptr@PA_WU__crt_internal_free_policy@@@@QAE@XZ 1003c299 f i libucrt:argv_parsing.obj
 0001:0003b2ab       ??B?$__crt_unique_heap_ptr@EU__crt_internal_free_policy@@@@QBE_NXZ 1003c2ab f i libucrt:argv_parsing.obj
 0001:0003b2de       ?detach@?$__crt_unique_heap_ptr@EU__crt_internal_free_policy@@@@QAEPAEXZ 1003c2de f i libucrt:argv_parsing.obj
 0001:0003b2e4       ?detach@?$__crt_unique_heap_ptr@PADU__crt_internal_free_policy@@@@QAEPAPADXZ 1003c2e4 f i libucrt:argv_parsing.obj
 0001:0003b2ea       ?detach@?$__crt_unique_heap_ptr@PA_WU__crt_internal_free_policy@@@@QAEPAPA_WXZ 1003c2ea f i libucrt:argv_parsing.obj
 0001:0003b30e       ?get@?$__crt_unique_heap_ptr@EU__crt_internal_free_policy@@@@QBEPAEXZ 1003c30e f i libucrt:argv_parsing.obj
 0001:0003b311       ?get@?$__crt_unique_heap_ptr@PADU__crt_internal_free_policy@@@@QBEPAPADXZ 1003c311 f i libucrt:argv_parsing.obj
 0001:0003b314       ?get@?$__crt_unique_heap_ptr@PA_WU__crt_internal_free_policy@@@@QBEPAPA_WXZ 1003c314 f i libucrt:argv_parsing.obj
 0001:0003b317       ?get_address_of@?$__crt_unique_heap_ptr@PADU__crt_internal_free_policy@@@@QAEPAPAPADXZ 1003c317 f i libucrt:argv_parsing.obj
 0001:0003b31a       ?get_address_of@?$__crt_unique_heap_ptr@PA_WU__crt_internal_free_policy@@@@QAEPAPAPA_WXZ 1003c31a f i libucrt:argv_parsing.obj
 0001:0003b335       ?is_valid@?$__crt_unique_heap_ptr@EU__crt_internal_free_policy@@@@QBE_NXZ 1003c335 f i libucrt:argv_parsing.obj
 0001:0003b33c       ?release@?$__crt_unique_heap_ptr@EU__crt_internal_free_policy@@@@QAEXXZ 1003c33c f i libucrt:argv_parsing.obj
 0001:0003b34e       ?release@?$__crt_unique_heap_ptr@PADU__crt_internal_free_policy@@@@QAEXXZ 1003c34e f i libucrt:argv_parsing.obj
 0001:0003b360       ?release@?$__crt_unique_heap_ptr@PA_WU__crt_internal_free_policy@@@@QAEXXZ 1003c360 f i libucrt:argv_parsing.obj
 0001:0003b38c       ___acrt_allocate_buffer_for_argv 1003c38c f   libucrt:argv_parsing.obj
 0001:0003b3db       __configure_narrow_argv    1003c3db f   libucrt:argv_parsing.obj
 0001:0003b3e6       __configure_wide_argv      1003c3e6 f   libucrt:argv_parsing.obj
 0001:0003b3f1       __set_pgmptr               1003c3f1 f i libucrt:argv_parsing.obj
 0001:0003b400       __set_wpgmptr              1003c400 f i libucrt:argv_parsing.obj
 0001:0003b819       ??$get_environment_from_os@$$V@?$__crt_char_traits@D@@SAPADXZ 1003c819 f i libucrt:environment_initialization.obj
 0001:0003b81e       ??$get_environment_from_os@$$V@?$__crt_char_traits@_W@@SAPA_WXZ 1003c81e f i libucrt:environment_initialization.obj
 0001:0003b927       ??$set_variable_in_environment_nolock@PADH@?$__crt_char_traits@D@@SAH$$QAPAD$$QAH@Z 1003c927 f i libucrt:environment_initialization.obj
 0001:0003b93f       ??$set_variable_in_environment_nolock@PA_WH@?$__crt_char_traits@_W@@SAH$$QAPA_W$$QAH@Z 1003c93f f i libucrt:environment_initialization.obj
 0001:0003b957       ??$tcscpy_s@PADABIAAPAD@?$__crt_char_traits@D@@SAH$$QAPADABIAAPAD@Z 1003c957 f i libucrt:environment_initialization.obj
 0001:0003b975       ??$tcscpy_s@PA_WABIAAPA_W@?$__crt_char_traits@_W@@SAH$$QAPA_WABIAAPA_W@Z 1003c975 f i libucrt:environment_initialization.obj
 0001:0003b993       ??$tcslen@AAPAD@?$__crt_char_traits@D@@SAIAAPAD@Z 1003c993 f i libucrt:environment_initialization.obj
 0001:0003b9ab       ??$tcslen@AAPA_W@?$__crt_char_traits@_W@@SAIAAPA_W@Z 1003c9ab f i libucrt:environment_initialization.obj
 0001:0003b9c9       ??$uninitialize@A6AXAAPAPAD@_E@?$dual_state_global@PAPAD@__crt_state_management@@QAEXA6AXAAPAPAD@_E@Z 1003c9c9 f i libucrt:environment_initialization.obj
 0001:0003ba21       ??$uninitialize@A6AXAAPAPA_W@_E@?$dual_state_global@PAPA_W@__crt_state_management@@QAEXA6AXAAPAPA_W@_E@Z 1003ca21 f i libucrt:environment_initialization.obj
 0001:0003baaf       ??B?$__crt_unique_heap_ptr@PADU__crt_internal_free_policy@@@@QBE_NXZ 1003caaf f i libucrt:environment_initialization.obj
 0001:0003bab6       ??B?$__crt_unique_heap_ptr@PA_WU__crt_internal_free_policy@@@@QBE_NXZ 1003cab6 f i libucrt:environment_initialization.obj
 0001:0003babd       ??B?$__crt_unique_heap_ptr@_WU__crt_internal_free_policy@@@@QBE_NXZ 1003cabd f i libucrt:environment_initialization.obj
 0001:0003bac4       ?__crt_compute_required_transform_buffer_count@@YAIIQBD@Z 1003cac4 f i libucrt:environment_initialization.obj
 0001:0003bae0       ?__crt_compute_required_transform_buffer_count@@YAIIQB_W@Z 1003cae0 f i libucrt:environment_initialization.obj
 0001:0003bafe       ?__crt_transform_string@@YAIIQBDQA_WI@Z 1003cafe f i libucrt:environment_initialization.obj
 0001:0003bb1d       ?__crt_transform_string@@YAIIQB_WQADI@Z 1003cb1d f i libucrt:environment_initialization.obj
 0001:0003bb3f       ?get@?$__crt_unique_heap_ptr@_WU__crt_internal_free_policy@@@@QBEPA_WXZ 1003cb3f f i libucrt:environment_initialization.obj
 0001:0003bb42       ?get_current_state_index@__crt_state_management@@YAIXZ 1003cb42 f i libucrt:environment_initialization.obj
 0001:0003bb69       ?initialize@?$dual_state_global@PAPAD@__crt_state_management@@QAEXQAPAD@Z 1003cb69 f i libucrt:environment_initialization.obj
 0001:0003bb85       ?initialize@?$dual_state_global@PAPA_W@__crt_state_management@@QAEXQAPA_W@Z 1003cb85 f i libucrt:environment_initialization.obj
 0001:0003bba1       ?is_valid@?$__crt_unique_heap_ptr@PADU__crt_internal_free_policy@@@@QBE_NXZ 1003cba1 f i libucrt:environment_initialization.obj
 0001:0003bba8       ?is_valid@?$__crt_unique_heap_ptr@PA_WU__crt_internal_free_policy@@@@QBE_NXZ 1003cba8 f i libucrt:environment_initialization.obj
 0001:0003bbaf       ?is_valid@?$__crt_unique_heap_ptr@_WU__crt_internal_free_policy@@@@QBE_NXZ 1003cbaf f i libucrt:environment_initialization.obj
 0001:0003bbbe       ?value@?$dual_state_global@PAPAD@__crt_state_management@@QAEAAPAPADXZ 1003cbbe f i libucrt:environment_initialization.obj
 0001:0003bbc1       ?value@?$dual_state_global@PAPA_W@__crt_state_management@@QAEAAPAPA_WXZ 1003cbc1 f i libucrt:environment_initialization.obj
 0001:0003bbc4       ___dcrt_get_or_create_narrow_environment_nolock 1003cbc4 f   libucrt:environment_initialization.obj
 0001:0003bbc9       ___dcrt_get_or_create_wide_environment_nolock 1003cbc9 f   libucrt:environment_initialization.obj
 0001:0003bbce       ___dcrt_uninitialize_environments_nolock 1003cbce f   libucrt:environment_initialization.obj
 0001:0003bc1f       ___p__environ              1003cc1f f   libucrt:environment_initialization.obj
 0001:0003bc25       ___p__wenviron             1003cc25 f   libucrt:environment_initialization.obj
 0001:0003bc2b       __get_initial_narrow_environment 1003cc2b f   libucrt:environment_initialization.obj
 0001:0003bc3f       __get_initial_wide_environment 1003cc3f f   libucrt:environment_initialization.obj
 0001:0003bc53       __initialize_narrow_environment 1003cc53 f   libucrt:environment_initialization.obj
 0001:0003bc58       __initialize_wide_environment 1003cc58 f   libucrt:environment_initialization.obj
 0001:0003bc5d       ??$?B$$A6AXXZ@__crt_fast_encoded_nullptr_t@@QBEP6AXXZXZ 1003cc5d f i libucrt:onexit.obj
 0001:0003bc63       ??$?BP6AXXZ@__crt_fast_encoded_nullptr_t@@QBEPAP6AXXZXZ 1003cc63 f i libucrt:onexit.obj
 0001:0003bc69       ??$?RP6AXXZ@__crt_internal_free_policy@@QBEXQBQ6AXXZ@Z 1003cc69 f i libucrt:onexit.obj
 0001:0003bdac       ??$__crt_fast_decode_pointer@P6AXXZ@@YAP6AXXZQ6AXXZ@Z 1003cdac f i libucrt:onexit.obj
 0001:0003bdc2       ??$__crt_fast_decode_pointer@PAP6AXXZ@@YAPAP6AXXZQAP6AXXZ@Z 1003cdc2 f i libucrt:onexit.obj
 0001:0003bdd8       ??$__crt_fast_encode_pointer@P6AHXZ@@YAP6AHXZQ6AHXZ@Z 1003cdd8 f i libucrt:onexit.obj
 0001:0003bdf7       ??$__crt_fast_encode_pointer@P6AXXZ@@YAP6AXXZQ6AXXZ@Z 1003cdf7 f i libucrt:onexit.obj
 0001:0003be16       ??$__crt_fast_encode_pointer@PAP6AXXZ@@YAPAP6AXXZQAP6AXXZ@Z 1003ce16 f i libucrt:onexit.obj
 0001:0003bea3       ??0?$__crt_unique_heap_ptr@P6AXXZU__crt_internal_free_policy@@@@QAE@QAP6AXXZ@Z 1003cea3 f i libucrt:onexit.obj
 0001:0003beb3       ??1?$__crt_unique_heap_ptr@P6AXXZU__crt_internal_free_policy@@@@QAE@XZ 1003ceb3 f i libucrt:onexit.obj
 0001:0003bec5       ??1scoped_global_state_reset@__crt_state_management@@QAE@XZ 1003cec5 f i libucrt:onexit.obj
 0001:0003c0c8       ?detach@?$__crt_unique_heap_ptr@P6AXXZU__crt_internal_free_policy@@@@QAEPAP6AXXZXZ 1003d0c8 f i libucrt:onexit.obj
 0001:0003c0ce       ?release@?$__crt_unique_heap_ptr@P6AXXZU__crt_internal_free_policy@@@@QAEXXZ 1003d0ce f i libucrt:onexit.obj
 0001:0003c0e0       __crt_at_quick_exit        1003d0e0 f   libucrt:onexit.obj
 0001:0003c0f6       __crt_atexit               1003d0f6 f   libucrt:onexit.obj
 0001:0003c10c       __execute_onexit_table     1003d10c f   libucrt:onexit.obj
 0001:0003c14a       __initialize_onexit_table  1003d14a f   libucrt:onexit.obj
 0001:0003c173       __register_onexit_function 1003d173 f   libucrt:onexit.obj
 0001:0003c282       ??$?BX@__crt_fast_encoded_nullptr_t@@QBEPAXXZ 1003d282 f i libucrt:initialization.obj
 0001:0003c288       ??$__crt_fast_encode_pointer@PAX@@YAPAXQAX@Z 1003d288 f i libucrt:initialization.obj
 0001:0003c2f9       ?__acrt_stdio_is_initialized@@YA_NXZ 1003d2f9 f i libucrt:initialization.obj
 0001:0003c304       ?initialize@?$dual_state_global@PAU__crt_locale_data@@@__crt_state_management@@QAEXQAU__crt_locale_data@@@Z 1003d304 f i libucrt:initialization.obj
 0001:0003c320       ___acrt_initialize         1003d320 f   libucrt:initialization.obj
 0001:0003c332       ___acrt_thread_attach      1003d332 f   libucrt:initialization.obj
 0001:0003c33d       ___acrt_thread_detach      1003d33d f   libucrt:initialization.obj
 0001:0003c345       ___acrt_uninitialize       1003d345 f   libucrt:initialization.obj
 0001:0003c375       ___acrt_uninitialize_critical 1003d375 f   libucrt:initialization.obj
 0001:0003c39d       __get_terminate            1003d39d f   libucrt:terminate.obj
 0001:0003c3af       _set_terminate             1003d3af f   libucrt:terminate.obj
 0001:0003c3cf       _terminate                 1003d3cf f   libucrt:terminate.obj
 0001:0003c465       _strcpy_s                  1003d465 f   libucrt:strcpy_s.obj
 0001:0003c4bf       __set_abort_behavior       1003d4bf f   libucrt:abort.obj
 0001:0003c4e0       _abort                     1003d4e0 f   libucrt:abort.obj
 0001:0003c524       ??$is_overflow_condition@_K@__crt_strtox@@YA_NI_K@Z 1003d524 f i libucrt:atox.obj
 0001:0003c565       ??$make_c_string_character_source@D$$T@__crt_strtox@@YA?AV?$c_string_character_source@D@0@QBD$$T@Z 1003d565 f i libucrt:atox.obj
 0001:0003c580       ??$make_c_string_character_source@_W$$T@__crt_strtox@@YA?AV?$c_string_character_source@_W@0@QB_W$$T@Z 1003d580 f i libucrt:atox.obj
 0001:0003c59b       ??$parse_integer@KV?$c_string_character_source@D@__crt_strtox@@$00@__crt_strtox@@YAKAAV__crt_cached_ptd_host@@V?$c_string_character_source@D@0@H_N@Z 1003d59b f i libucrt:atox.obj
 0001:0003c7e2       ??$parse_integer@KV?$c_string_character_source@_W@__crt_strtox@@$00@__crt_strtox@@YAKAAV__crt_cached_ptd_host@@V?$c_string_character_source@_W@0@H_N@Z 1003d7e2 f i libucrt:atox.obj
 0001:0003cdec       ??$parse_integer@_KV?$c_string_character_source@D@__crt_strtox@@$00@__crt_strtox@@YA_KAAV__crt_cached_ptd_host@@V?$c_string_character_source@D@0@H_N@Z 1003ddec f i libucrt:atox.obj
 0001:0003d0b4       ??$parse_integer@_KV?$c_string_character_source@_W@__crt_strtox@@$00@__crt_strtox@@YA_KAAV__crt_cached_ptd_host@@V?$c_string_character_source@_W@0@H_N@Z 1003e0b4 f i libucrt:atox.obj
 0001:0003d73a       ??$parse_integer_from_string@JD$$T@__crt_strtox@@YAJQBD$$THQAU__crt_locale_pointers@@@Z 1003e73a f i libucrt:atox.obj
 0001:0003d781       ??$parse_integer_from_string@J_W$$T@__crt_strtox@@YAJQB_W$$THQAU__crt_locale_pointers@@@Z 1003e781 f i libucrt:atox.obj
 0001:0003d7c8       ??$parse_integer_from_string@_JD$$T@__crt_strtox@@YA_JQBD$$THQAU__crt_locale_pointers@@@Z 1003e7c8 f i libucrt:atox.obj
 0001:0003d815       ??$parse_integer_from_string@_J_W$$T@__crt_strtox@@YA_JQB_W$$THQAU__crt_locale_pointers@@@Z 1003e815 f i libucrt:atox.obj
 0001:0003d862       ?is_space@__crt_strtox@@YA_NDQAU__crt_locale_pointers@@@Z 1003e862 f i libucrt:atox.obj
 0001:0003d880       ?is_space@__crt_strtox@@YA_N_WPAU__crt_locale_pointers@@@Z 1003e880 f i libucrt:atox.obj
 0001:0003d898       ?maximum_signed_value@__crt_strtox@@YA_J_K@Z 1003e898 f i libucrt:atox.obj
 0001:0003d8a1       ?minimum_signed_value@__crt_strtox@@YA_J_K@Z 1003e8a1 f i libucrt:atox.obj
 0001:0003d8a9       ___acrt_get_locale_data_prefix 1003e8a9 f i libucrt:atox.obj
 0001:0003d8b5       __atoi64                   1003e8b5 f   libucrt:atox.obj
 0001:0003d8fa       __atoi64_l                 1003e8fa f   libucrt:atox.obj
 0001:0003d940       __atoi_l                   1003e940 f   libucrt:atox.obj
 0001:0003d980       __atol_l                   1003e980 f   libucrt:atox.obj
 0001:0003d9c0       __atoll_l                  1003e9c0 f   libucrt:atox.obj
 0001:0003da06       __chvalidchk_l             1003ea06 f i libucrt:atox.obj
 0001:0003da2e       __ischartype_l             1003ea2e f i libucrt:atox.obj
 0001:0003da85       __wtoi                     1003ea85 f   libucrt:atox.obj
 0001:0003dac4       __wtoi64                   1003eac4 f   libucrt:atox.obj
 0001:0003db09       __wtoi64_l                 1003eb09 f   libucrt:atox.obj
 0001:0003db4f       __wtoi_l                   1003eb4f f   libucrt:atox.obj
 0001:0003db8f       __wtol                     1003eb8f f   libucrt:atox.obj
 0001:0003dbce       __wtol_l                   1003ebce f   libucrt:atox.obj
 0001:0003dc0e       __wtoll                    1003ec0e f   libucrt:atox.obj
 0001:0003dc53       __wtoll_l                  1003ec53 f   libucrt:atox.obj
 0001:0003dc99       _atoi                      1003ec99 f   libucrt:atox.obj
 0001:0003dcd8       _atol                      1003ecd8 f   libucrt:atox.obj
 0001:0003dd17       _atoll                     1003ed17 f   libucrt:atox.obj
 0001:0003dd60       _strncmp                   1003ed60 f   libucrt:strncmp.obj
 0001:0003ddd8       _calloc                    1003edd8 f   libucrt:calloc.obj
 0001:0003dde3       _wcsncmp                   1003ede3 f   libucrt:wcsncmp.obj
 0001:0003de1d       ??$?RU__crt_lowio_handle_data@@@__crt_internal_free_policy@@QBEXQBU__crt_lowio_handle_data@@@Z 1003ee1d f i libucrt:osfinfo.obj
 0001:0003de2f       ??0?$__crt_unique_heap_ptr@U__crt_lowio_handle_data@@U__crt_internal_free_policy@@@@QAE@QAU__crt_lowio_handle_data@@@Z 1003ee2f f i libucrt:osfinfo.obj
 0001:0003de3f       ??1?$__crt_unique_heap_ptr@U__crt_lowio_handle_data@@U__crt_internal_free_policy@@@@QAE@XZ 1003ee3f f i libucrt:osfinfo.obj
 0001:0003de51       ??B?$__crt_unique_heap_ptr@U__crt_lowio_handle_data@@U__crt_internal_free_policy@@@@QBE_NXZ 1003ee51 f i libucrt:osfinfo.obj
 0001:0003de58       ?detach@?$__crt_unique_heap_ptr@U__crt_lowio_handle_data@@U__crt_internal_free_policy@@@@QAEPAU__crt_lowio_handle_data@@XZ 1003ee58 f i libucrt:osfinfo.obj
 0001:0003de5e       ?get@?$__crt_unique_heap_ptr@U__crt_lowio_handle_data@@U__crt_internal_free_policy@@@@QBEPAU__crt_lowio_handle_data@@XZ 1003ee5e f i libucrt:osfinfo.obj
 0001:0003de61       ?is_valid@?$__crt_unique_heap_ptr@U__crt_lowio_handle_data@@U__crt_internal_free_policy@@@@QBE_NXZ 1003ee61 f i libucrt:osfinfo.obj
 0001:0003de68       ?release@?$__crt_unique_heap_ptr@U__crt_lowio_handle_data@@U__crt_internal_free_policy@@@@QAEXXZ 1003ee68 f i libucrt:osfinfo.obj
 0001:0003de7a       ___acrt_lowio_create_handle_array 1003ee7a f   libucrt:osfinfo.obj
 0001:0003def5       ___acrt_lowio_destroy_handle_array 1003eef5 f   libucrt:osfinfo.obj
 0001:0003df2a       ___acrt_lowio_ensure_fh_exists 1003ef2a f   libucrt:osfinfo.obj
 0001:0003dfc8       ___acrt_lowio_lock_fh      1003efc8 f   libucrt:osfinfo.obj
 0001:0003dfeb       ___acrt_lowio_set_os_handle 1003efeb f   libucrt:osfinfo.obj
 0001:0003e07d       ___acrt_lowio_unlock_fh    1003f07d f   libucrt:osfinfo.obj
 0001:0003e0a0       __alloc_osfhnd             1003f0a0 f   libucrt:osfinfo.obj
 0001:0003e1b3       __free_osfhnd              1003f1b3 f   libucrt:osfinfo.obj
 0001:0003e244       __get_osfhandle            1003f244 f   libucrt:osfinfo.obj
 0001:0003e2ae       __open_osfhandle           1003f2ae f   libucrt:osfinfo.obj
 0001:0003e3c4       ??$__crt_fast_decode_pointer@P6AXPB_W00II@Z@@YAP6AXPB_W00II@ZQ6AX000II@Z@Z 1003f3c4 f i libucrt:invalid_parameter.obj
 0001:0003e3da       ??$__crt_fast_encode_pointer@P6AXPB_W00II@Z@@YAP6AXPB_W00II@ZQ6AX000II@Z@Z 1003f3da f i libucrt:invalid_parameter.obj
 0001:0003e3f9       ??$initialize_from_array@$$BY00Q6AXPB_W00II@Z@?$dual_state_global@P6AXPB_W00II@Z@__crt_state_management@@QAAXAAY00Q6AXPB_W00II@Z@Z 1003f3f9 f i libucrt:invalid_parameter.obj
 0001:0003e40a       ?check_synchronize_global_state_index@__crt_cached_ptd_host@@AAEIXZ 1003f40a f i libucrt:invalid_parameter.obj
 0001:0003e433       ?dangerous_get_state_array@?$dual_state_global@P6AXPB_W00II@Z@__crt_state_management@@QAEPAP6AXPB_W00II@ZXZ 1003f433 f i libucrt:invalid_parameter.obj
 0001:0003e436       ?get_current_global_state_index@__crt_cached_ptd_host@@QAEIXZ 1003f436 f i libucrt:invalid_parameter.obj
 0001:0003e43b       ?get_raw_ptd_noexit@__crt_cached_ptd_host@@QAEPAU__acrt_ptd@@XZ 1003f43b f i libucrt:invalid_parameter.obj
 0001:0003e446       ?try_synchronize_per_thread_data@__crt_cached_ptd_host@@AAEPAU__acrt_ptd@@XZ 1003f446 f i libucrt:invalid_parameter.obj
 0001:0003e451       ?value@?$dual_state_global@P6AXPB_W00II@Z@__crt_state_management@@QAEAAP6AXPB_W00II@ZAAV__crt_cached_ptd_host@@@Z 1003f451 f i libucrt:invalid_parameter.obj
 0001:0003e469       ?value@?$dual_state_global@P6AXPB_W00II@Z@__crt_state_management@@QAEAAP6AXPB_W00II@ZXZ 1003f469 f i libucrt:invalid_parameter.obj
 0001:0003e46c       ___acrt_call_reportfault   1003f46c f   libucrt:invalid_parameter.obj
 0001:0003e5a5       ___acrt_initialize_invalid_parameter_handler 1003f5a5 f   libucrt:invalid_parameter.obj
 0001:0003e5b4       __get_invalid_parameter_handler 1003f5b4 f   libucrt:invalid_parameter.obj
 0001:0003e5c7       __get_thread_local_invalid_parameter_handler 1003f5c7 f   libucrt:invalid_parameter.obj
 0001:0003e5d8       __invalid_parameter        1003f5d8 f   libucrt:invalid_parameter.obj
 0001:0003e60f       __invalid_parameter_internal 1003f60f f   libucrt:invalid_parameter.obj
 0001:0003e68c       __invalid_parameter_noinfo 1003f68c f   libucrt:invalid_parameter.obj
 0001:0003e69c       __invalid_parameter_noinfo_noreturn 1003f69c f   libucrt:invalid_parameter.obj
 0001:0003e6b9       __invoke_watson            1003f6b9 f   libucrt:invalid_parameter.obj
 0001:0003e6ed       __set_invalid_parameter_handler 1003f6ed f   libucrt:invalid_parameter.obj
 0001:0003e71d       __set_thread_local_invalid_parameter_handler 1003f71d f   libucrt:invalid_parameter.obj
 0001:0003e73a       ??$?RU__acrt_ptd@@@__crt_internal_free_policy@@QBEXQBU__acrt_ptd@@@Z 1003f73a f i libucrt:per_thread_data.obj
 0001:0003ea26       ??0?$__crt_unique_heap_ptr@U__acrt_ptd@@U__crt_internal_free_policy@@@@QAE@QAU__acrt_ptd@@@Z 1003fa26 f i libucrt:per_thread_data.obj
 0001:0003ea36       ??1?$__crt_unique_heap_ptr@U__acrt_ptd@@U__crt_internal_free_policy@@@@QAE@XZ 1003fa36 f i libucrt:per_thread_data.obj
 0001:0003ea48       ??B?$__crt_unique_heap_ptr@U__acrt_ptd@@U__crt_internal_free_policy@@@@QBE_NXZ 1003fa48 f i libucrt:per_thread_data.obj
 0001:0003eb96       ?dangerous_get_state_array@?$dual_state_global@PAU__crt_locale_data@@@__crt_state_management@@QAEPAPAU__crt_locale_data@@XZ 1003fb96 f i libucrt:per_thread_data.obj
 0001:0003ec8c       ?detach@?$__crt_unique_heap_ptr@U__acrt_ptd@@U__crt_internal_free_policy@@@@QAEPAU__acrt_ptd@@XZ 1003fc8c f i libucrt:per_thread_data.obj
 0001:0003ec92       ?get@?$__crt_unique_heap_ptr@U__acrt_ptd@@U__crt_internal_free_policy@@@@QBEPAU__acrt_ptd@@XZ 1003fc92 f i libucrt:per_thread_data.obj
 0001:0003ee77       ?is_valid@?$__crt_unique_heap_ptr@U__acrt_ptd@@U__crt_internal_free_policy@@@@QBE_NXZ 1003fe77 f i libucrt:per_thread_data.obj
 0001:0003ee7e       ?release@?$__crt_unique_heap_ptr@U__acrt_ptd@@U__crt_internal_free_policy@@@@QAEXXZ 1003fe7e f i libucrt:per_thread_data.obj
 0001:0003eef2       ?value@?$dual_state_global@PAU__crt_locale_data@@@__crt_state_management@@QAEAAPAU__crt_locale_data@@XZ 1003fef2 f i libucrt:per_thread_data.obj
 0001:0003eef5       ___acrt_freeptd            1003fef5 f   libucrt:per_thread_data.obj
 0001:0003ef21       ___acrt_getptd             1003ff21 f   libucrt:per_thread_data.obj
 0001:0003efdc       ___acrt_getptd_head        1003ffdc f   libucrt:per_thread_data.obj
 0001:0003f072       ___acrt_getptd_noexit      10040072 f   libucrt:per_thread_data.obj
 0001:0003f123       ___acrt_getptd_noexit_explicit 10040123 f   libucrt:per_thread_data.obj
 0001:0003f1c6       ___acrt_initialize_ptd     100401c6 f   libucrt:per_thread_data.obj
 0001:0003f1f2       ___acrt_uninitialize_ptd   100401f2 f   libucrt:per_thread_data.obj
 0001:0003f20c       ___threadhandle            1004020c f   libucrt:per_thread_data.obj
 0001:0003f212       ___threadid                10040212 f   libucrt:per_thread_data.obj
 0001:0003f21b       ??$?RU__crt_locale_data@@@__crt_internal_free_policy@@QBEXQBU__crt_locale_data@@@Z 1004021b f i libucrt:wsetlocale.obj
 0001:0003f22d       ??$?RU__crt_locale_pointers@@@__crt_internal_free_policy@@QBEXQBU__crt_locale_pointers@@@Z 1004022d f i libucrt:wsetlocale.obj
 0001:0003f23f       ??$?RU__crt_multibyte_data@@@__crt_internal_free_policy@@QBEXQBU__crt_multibyte_data@@@Z 1004023f f i libucrt:wsetlocale.obj
 0001:0003f5e8       ??0?$__crt_unique_heap_ptr@U__crt_locale_data@@U__crt_internal_free_policy@@@@QAE@QAU__crt_locale_data@@@Z 100405e8 f i libucrt:wsetlocale.obj
 0001:0003f5f8       ??0?$__crt_unique_heap_ptr@U__crt_locale_pointers@@U__crt_internal_free_policy@@@@QAE@QAU__crt_locale_pointers@@@Z 100405f8 f i libucrt:wsetlocale.obj
 0001:0003f608       ??0?$__crt_unique_heap_ptr@U__crt_multibyte_data@@U__crt_internal_free_policy@@@@QAE@QAU__crt_multibyte_data@@@Z 10040608 f i libucrt:wsetlocale.obj
 0001:0003f618       ??0_expandlocale_locale_name_cache@@QAE@QA_WIQAU__crt_qualified_locale_data@@@Z 10040618 f i libucrt:wsetlocale.obj
 0001:0003f662       ??1?$__crt_unique_heap_ptr@U__crt_locale_data@@U__crt_internal_free_policy@@@@QAE@XZ 10040662 f i libucrt:wsetlocale.obj
 0001:0003f674       ??1?$__crt_unique_heap_ptr@U__crt_locale_pointers@@U__crt_internal_free_policy@@@@QAE@XZ 10040674 f i libucrt:wsetlocale.obj
 0001:0003f686       ??1?$__crt_unique_heap_ptr@U__crt_multibyte_data@@U__crt_internal_free_policy@@@@QAE@XZ 10040686 f i libucrt:wsetlocale.obj
 0001:0003f698       ??1_expandlocale_locale_name_cache@@QAE@XZ 10040698 f i libucrt:wsetlocale.obj
 0001:0003f6c8       ??B?$__crt_unique_heap_ptr@U__crt_locale_data@@U__crt_internal_free_policy@@@@QBE_NXZ 100406c8 f i libucrt:wsetlocale.obj
 0001:0003f6cf       ??B?$__crt_unique_heap_ptr@U__crt_locale_pointers@@U__crt_internal_free_policy@@@@QBE_NXZ 100406cf f i libucrt:wsetlocale.obj
 0001:0003f6d6       ??B?$__crt_unique_heap_ptr@U__crt_multibyte_data@@U__crt_internal_free_policy@@@@QBE_NXZ 100406d6 f i libucrt:wsetlocale.obj
 0001:0003f8f6       ?commit_locale_name@_expandlocale_locale_name_cache@@QAEXQB_WI@Z 100408f6 f i libucrt:wsetlocale.obj
 0001:0003f93a       ?commit_locale_name_cache_already_updated@_expandlocale_locale_name_cache@@QAEXQB_WI@Z 1004093a f i libucrt:wsetlocale.obj
 0001:0003f96f       ?detach@?$__crt_unique_heap_ptr@U__crt_locale_data@@U__crt_internal_free_policy@@@@QAEPAU__crt_locale_data@@XZ 1004096f f i libucrt:wsetlocale.obj
 0001:0003f975       ?detach@?$__crt_unique_heap_ptr@U__crt_locale_pointers@@U__crt_internal_free_policy@@@@QAEPAU__crt_locale_pointers@@XZ 10040975 f i libucrt:wsetlocale.obj
 0001:0003f97b       ?detach@?$__crt_unique_heap_ptr@U__crt_multibyte_data@@U__crt_internal_free_policy@@@@QAEPAU__crt_multibyte_data@@XZ 1004097b f i libucrt:wsetlocale.obj
 0001:0003f981       ?get@?$__crt_unique_heap_ptr@U__crt_locale_data@@U__crt_internal_free_policy@@@@QBEPAU__crt_locale_data@@XZ 10040981 f i libucrt:wsetlocale.obj
 0001:0003f984       ?get@?$__crt_unique_heap_ptr@U__crt_locale_pointers@@U__crt_internal_free_policy@@@@QBEPAU__crt_locale_pointers@@XZ 10040984 f i libucrt:wsetlocale.obj
 0001:0003f987       ?get@?$__crt_unique_heap_ptr@U__crt_multibyte_data@@U__crt_internal_free_policy@@@@QBEPAU__crt_multibyte_data@@XZ 10040987 f i libucrt:wsetlocale.obj
 0001:0003f98a       ?is_valid@?$__crt_unique_heap_ptr@U__crt_locale_data@@U__crt_internal_free_policy@@@@QBE_NXZ 1004098a f i libucrt:wsetlocale.obj
 0001:0003f991       ?is_valid@?$__crt_unique_heap_ptr@U__crt_locale_pointers@@U__crt_internal_free_policy@@@@QBE_NXZ 10040991 f i libucrt:wsetlocale.obj
 0001:0003f998       ?is_valid@?$__crt_unique_heap_ptr@U__crt_multibyte_data@@U__crt_internal_free_policy@@@@QBE_NXZ 10040998 f i libucrt:wsetlocale.obj
 0001:0003f99f       ?release@?$__crt_unique_heap_ptr@U__crt_locale_data@@U__crt_internal_free_policy@@@@QAEXXZ 1004099f f i libucrt:wsetlocale.obj
 0001:0003f9b1       ?release@?$__crt_unique_heap_ptr@U__crt_locale_pointers@@U__crt_internal_free_policy@@@@QAEXXZ 100409b1 f i libucrt:wsetlocale.obj
 0001:0003f9c3       ?release@?$__crt_unique_heap_ptr@U__crt_multibyte_data@@U__crt_internal_free_policy@@@@QAEXXZ 100409c3 f i libucrt:wsetlocale.obj
 0001:0003f9d5       ___acrt_copy_locale_name   100409d5 f   libucrt:wsetlocale.obj
 0001:0003fa35       ___acrt_set_locale_changed 10040a35 f   libucrt:wsetlocale.obj
 0001:0003fa40       ___acrt_uninitialize_locale 10040a40 f   libucrt:wsetlocale.obj
 0001:0003fa67       ___ascii_tolower           10040a67 f i libucrt:wsetlocale.obj
 0001:0003fa7e       ___ascii_towlower          10040a7e f i libucrt:wsetlocale.obj
 0001:0003fa95       ___lc_lctowcs              10040a95 f   libucrt:wsetlocale.obj
 0001:0003fb05       ___lc_wcstolc              10040b05 f   libucrt:wsetlocale.obj
 0001:0003fc55       __configthreadlocale       10040c55 f   libucrt:wsetlocale.obj
 0001:0003fce6       __create_locale            10040ce6 f   libucrt:wsetlocale.obj
 0001:00040110       __free_locale              10041110 f   libucrt:wsetlocale.obj
 0001:000401d2       __get_current_locale       100411d2 f   libucrt:wsetlocale.obj
 0001:0004026d       __wcreate_locale           1004126d f   libucrt:wsetlocale.obj
 0001:00040374       __wcscats                  10041374 f   libucrt:wsetlocale.obj
 0001:000403b5       __wsetlocale               100413b5 f   libucrt:wsetlocale.obj
 0001:0004111a       ___p___mb_cur_max          1004211a f   libucrt:nlsdata.obj
 0001:000412c7       ___acrt_initialize_lowio   100422c7 f   libucrt:ioinit.obj
 0001:00041327       ___acrt_uninitialize_lowio 10042327 f   libucrt:ioinit.obj
 0001:00041359       __free_base                10042359 f   libucrt:free_base.obj
 0001:00041393       __malloc_base              10042393 f   libucrt:malloc_base.obj
 0001:000413e1       ??$__crt_interlocked_read@H@@YAHPDH@Z 100423e1 f i libucrt:setmode.obj
 0001:000413ee       ?value@?$dual_state_global@H@__crt_state_management@@QAEAAHXZ 100423ee f i libucrt:setmode.obj
 0001:000413f1       __get_fmode                100423f1 f   libucrt:setmode.obj
 0001:0004141e       __set_fmode                1004241e f   libucrt:setmode.obj
 0001:0004145b       __setmode                  1004245b f   libucrt:setmode.obj
 0001:0004156c       __setmode_nolock           1004256c f   libucrt:setmode.obj
 0001:000416a3       ___acrt_MultiByteToWideChar 100426a3 f   libucrt:multibytetowidechar.obj
 0001:0004172c       ??$?B$$A6GHPA_WKJ@Z@__crt_fast_encoded_nullptr_t@@QBEP6GHPA_WKJ@ZXZ 1004272c f i libucrt:winapi_thunks.obj
 0001:000417d4       ??$__crt_fast_decode_pointer@P6GHPA_WKJ@Z@@YAP6GHPA_WKJ@ZQ6GH0KJ@Z@Z 100427d4 f i libucrt:winapi_thunks.obj
 0001:000417ea       ??$__crt_fast_decode_pointer@PAX@@YAPAXQAX@Z 100427ea f i libucrt:winapi_thunks.obj
 0001:00041800       ??$__crt_fast_encode_pointer@P6GHPA_WKJ@Z@@YAP6GHPA_WKJ@ZQ6GH0KJ@Z@Z 10042800 f i libucrt:winapi_thunks.obj
 0001:00041e90       _GetCurrentThreadEffectiveToken 10042e90 f i libucrt:winapi_thunks.obj
 0001:00041e94       ___acrt_AppPolicyGetProcessTerminationMethodInternal@4 10042e94 f   libucrt:winapi_thunks.obj
 0001:00041ed4       ___acrt_AppPolicyGetShowDeveloperDiagnosticInternal@4 10042ed4 f   libucrt:winapi_thunks.obj
 0001:00041f14       ___acrt_AppPolicyGetThreadInitializationTypeInternal@4 10042f14 f   libucrt:winapi_thunks.obj
 0001:00041f54       ___acrt_AppPolicyGetWindowingModelInternal@4 10042f54 f   libucrt:winapi_thunks.obj
 0001:00041f94       ___acrt_AreFileApisANSI@0  10042f94 f   libucrt:winapi_thunks.obj
 0001:00041fb3       ___acrt_CompareStringEx@36 10042fb3 f   libucrt:winapi_thunks.obj
 0001:00042010       ___acrt_EnumSystemLocalesEx@16 10043010 f   libucrt:winapi_thunks.obj
 0001:00042064       ___acrt_FlsAlloc@4         10043064 f   libucrt:winapi_thunks.obj
 0001:000420a3       ___acrt_FlsFree@4          100430a3 f   libucrt:winapi_thunks.obj
 0001:000420e2       ___acrt_FlsGetValue@4      100430e2 f   libucrt:winapi_thunks.obj
 0001:00042121       ___acrt_FlsSetValue@8      10043121 f   libucrt:winapi_thunks.obj
 0001:00042163       ___acrt_GetDateFormatEx@28 10043163 f   libucrt:winapi_thunks.obj
 0001:000421ba       ___acrt_GetEnabledXStateFeatures@0 100431ba f   libucrt:winapi_thunks.obj
 0001:000421ee       ___acrt_GetLocaleInfoEx@16 100431ee f   libucrt:winapi_thunks.obj
 0001:0004222d       ___acrt_GetSystemTimePreciseAsFileTime@4 1004322d f   libucrt:winapi_thunks.obj
 0001:0004226c       ___acrt_GetTimeFormatEx@24 1004326c f   libucrt:winapi_thunks.obj
 0001:000422b1       ___acrt_GetUserDefaultLocaleName@8 100432b1 f   libucrt:winapi_thunks.obj
 0001:000422ed       ___acrt_GetXStateFeaturesMask@8 100432ed f   libucrt:winapi_thunks.obj
 0001:0004232d       ___acrt_InitializeCriticalSectionEx@12 1004332d f   libucrt:winapi_thunks.obj
 0001:00042378       ___acrt_IsValidLocaleName@4 10043378 f   libucrt:winapi_thunks.obj
 0001:000423b0       ___acrt_LCIDToLocaleName@16 100433b0 f   libucrt:winapi_thunks.obj
 0001:000423ef       ___acrt_LCMapStringEx@36   100433ef f   libucrt:winapi_thunks.obj
 0001:0004244c       ___acrt_LocaleNameToLCID@8 1004344c f   libucrt:winapi_thunks.obj
 0001:0004247d       ___acrt_LocateXStateFeature@12 1004347d f   libucrt:winapi_thunks.obj
 0001:000424ac       ___acrt_MessageBoxA@16     100434ac f   libucrt:winapi_thunks.obj
 0001:000424de       ___acrt_MessageBoxW@16     100434de f   libucrt:winapi_thunks.obj
 0001:00042510       ___acrt_RoInitialize@4     10043510 f   libucrt:winapi_thunks.obj
 0001:0004254b       ___acrt_RoUninitialize@0   1004354b f   libucrt:winapi_thunks.obj
 0001:00042579       ___acrt_RtlGenRandom@8     10043579 f   libucrt:winapi_thunks.obj
 0001:000425b9       ___acrt_SetThreadStackGuarantee@4 100435b9 f   libucrt:winapi_thunks.obj
 0001:000425f4       ___acrt_can_show_message_box 100435f4 f   libucrt:winapi_thunks.obj
 0001:0004261b       ___acrt_can_use_vista_locale_apis 1004361b f   libucrt:winapi_thunks.obj
 0001:00042626       ___acrt_can_use_xstate_apis 10043626 f   libucrt:winapi_thunks.obj
 0001:00042631       ___acrt_eagerly_load_locale_apis 10043631 f   libucrt:winapi_thunks.obj
 0001:00042668       ___acrt_get_parent_window  10043668 f   libucrt:winapi_thunks.obj
 0001:000426d0       ___acrt_initialize_winapi_thunks 100436d0 f   libucrt:winapi_thunks.obj
 0001:000426e4       ___acrt_is_interactive     100436e4 f   libucrt:winapi_thunks.obj
 0001:00042783       ___acrt_uninitialize_winapi_thunks 10043783 f   libucrt:winapi_thunks.obj
 0001:000427b9       ?value@?$dual_state_global@PAU__crt_multibyte_data@@@__crt_state_management@@QAEAAPAU__crt_multibyte_data@@XZ 100437b9 f i libucrt:locale_update.obj
 0001:000427bc       ?value_explicit@?$dual_state_global@PAU__crt_locale_data@@@__crt_state_management@@QAEAAPAU__crt_locale_data@@I@Z 100437bc f i libucrt:locale_update.obj
 0001:000427cb       ?value_explicit@?$dual_state_global@PAU__crt_multibyte_data@@@__crt_state_management@@QAEAAPAU__crt_multibyte_data@@I@Z 100437cb f i libucrt:locale_update.obj
 0001:000427da       ___acrt_should_sync_with_global_locale 100437da f i libucrt:locale_update.obj
 0001:000427f6       ___acrt_update_locale_info 100437f6 f   libucrt:locale_update.obj
 0001:00042823       ___acrt_update_locale_info_explicit 10043823 f   libucrt:locale_update.obj
 0001:00042854       ___acrt_update_multibyte_info 10043854 f   libucrt:locale_update.obj
 0001:00042881       ___acrt_update_multibyte_info_explicit 10043881 f   libucrt:locale_update.obj
 0001:000429ae       ??0__crt_seek_guard@@QAE@H_J@Z 100439ae f i libucrt:chsize.obj
 0001:000429fb       ??1__crt_seek_guard@@QAE@XZ 100439fb f i libucrt:chsize.obj
 0001:00042b1f       ?check@?$cached@K@__crt_cached_ptd_host@@QBE_NK@Z 10043b1f f i libucrt:chsize.obj
 0001:00042b3b       __chsize                   10043b3b f   libucrt:chsize.obj
 0001:00042b57       __chsize_nolock            10043b57 f   libucrt:chsize.obj
 0001:00042b8e       __chsize_nolock_internal   10043b8e f   libucrt:chsize.obj
 0001:00042d31       __chsize_s                 10043d31 f   libucrt:chsize.obj
 0001:00042d68       __umask                    10043d68 f   libucrt:umask.obj
 0001:00042d8b       __umask_s                  10043d8b f   libucrt:umask.obj
 0001:00042e2b       ___acrt_WideCharToMultiByte 10043e2b f   libucrt:widechartomultibyte.obj
 0001:00042ee2       ?__wcsrtombs_utf8@__crt_mbstring@@YAIPADPAPB_WIPAU_Mbstatet@@AAV__crt_cached_ptd_host@@@Z 10043ee2 f   libucrt:wcrtomb.obj
 0001:00043373       _wcrtomb                   10044373 f   libucrt:wcrtomb.obj
 0001:000433a2       _wcrtomb_s                 100443a2 f   libucrt:wcrtomb.obj
 0001:0004343e       _wcsrtombs                 1004443e f   libucrt:wcrtomb.obj
 0001:00043478       _wcsrtombs_s               10044478 f   libucrt:wcrtomb.obj
 0001:00043534       _wctob                     10044534 f   libucrt:wcrtomb.obj
 0001:00043da7       ??1?$__crt_simd_cleanup_guard@$00@@QAE@XZ 10044da7 f i libucrt:strnlen.obj
 0001:00043dab       ??1?$__crt_simd_cleanup_guard@$0A@@@QAE@XZ 10044dab f i libucrt:strnlen.obj
 0001:00043dae       ?compare_equals@?$__crt_simd_traits@$00E@@SA?AT__m256i@@T2@0@Z 10044dae f i libucrt:strnlen.obj
 0001:00043db3       ?compare_equals@?$__crt_simd_traits@$00G@@SA?AT__m256i@@T2@0@Z 10044db3 f i libucrt:strnlen.obj
 0001:00043db8       ?compare_equals@?$__crt_simd_traits@$0A@E@@SA?AT__m128i@@T2@0@Z 10044db8 f i libucrt:strnlen.obj
 0001:00043dbd       ?compare_equals@?$__crt_simd_traits@$0A@G@@SA?AT__m128i@@T2@0@Z 10044dbd f i libucrt:strnlen.obj
 0001:00043dc2       ?compute_byte_mask@?$__crt_simd_pack_traits@$00@@SAHT__m256i@@@Z 10044dc2 f i libucrt:strnlen.obj
 0001:00043dc7       ?compute_byte_mask@?$__crt_simd_pack_traits@$0A@@@SAHT__m128i@@@Z 10044dc7 f i libucrt:strnlen.obj
 0001:00043dcc       ?get_zero_pack@?$__crt_simd_pack_traits@$00@@SA?AT__m256i@@XZ 10044dcc f i libucrt:strnlen.obj
 0001:00043dd1       ?get_zero_pack@?$__crt_simd_pack_traits@$0A@@@SA?AT__m128i@@XZ 10044dd1 f i libucrt:strnlen.obj
 0001:00043dd5       _strnlen                   10044dd5 f   libucrt:strnlen.obj
 0001:00043ef7       _wcslen                    10044ef7 f   libucrt:strnlen.obj
 0001:0004401f       _wcsnlen                   1004501f f   libucrt:strnlen.obj
 0001:000441cf       ?__acrt_fp_classify@@YA?AW4__acrt_fp_class@@ABN@Z 100451cf f i libucrt:cvt.obj
 0001:00044231       ?__acrt_fp_is_negative@@YA_NABN@Z 10045231 f i libucrt:cvt.obj
 0001:00044bb1       ?strrchr@@YAPADQADH@Z      10045bb1 f i libucrt:cvt.obj
 0001:00044bbc       ___acrt_fp_format          10045bbc f   libucrt:cvt.obj
 0001:00044d3d       __wctomb_internal          10045d3d f   libucrt:wctomb.obj
 0001:00044ea7       __wctomb_l                 10045ea7 f   libucrt:wctomb.obj
 0001:00044f02       __wctomb_s_l               10045f02 f   libucrt:wctomb.obj
 0001:00044f3d       _wctomb                    10045f3d f   libucrt:wctomb.obj
 0001:00044f89       _wctomb_s                  10045f89 f   libucrt:wctomb.obj
 0001:00044fc3       __mbtowc_internal          10045fc3 f   libucrt:mbtowc.obj
 0001:000450f6       __mbtowc_l                 100460f6 f   libucrt:mbtowc.obj
 0001:0004512e       _mbtowc                    1004612e f   libucrt:mbtowc.obj
 0001:00045165       __fileno                   10046165 f   libucrt:fileno.obj
 0001:0004518c       ??$?RPAU__crt_stdio_stream_data@@@__crt_internal_free_policy@@QBEXQBQAU__crt_stdio_stream_data@@@Z 1004618c f i libucrt:_file.obj
 0001:0004519e       ??0?$__crt_unique_heap_ptr@PAU__crt_stdio_stream_data@@U__crt_internal_free_policy@@@@QAE@QAPAU__crt_stdio_stream_data@@@Z 1004619e f i libucrt:_file.obj
 0001:000451ae       ??1?$__crt_unique_heap_ptr@PAU__crt_stdio_stream_data@@U__crt_internal_free_policy@@@@QAE@XZ 100461ae f i libucrt:_file.obj
 0001:000451c0       ?detach@?$__crt_unique_heap_ptr@PAU__crt_stdio_stream_data@@U__crt_internal_free_policy@@@@QAEPAPAU__crt_stdio_stream_data@@XZ 100461c0 f i libucrt:_file.obj
 0001:000451c6       ?release@?$__crt_unique_heap_ptr@PAU__crt_stdio_stream_data@@U__crt_internal_free_policy@@@@QAEXXZ 100461c6 f i libucrt:_file.obj
 0001:000451d8       ___acrt_initialize_stdio   100461d8 f   libucrt:_file.obj
 0001:000452a0       ___acrt_iob_func           100462a0 f   libucrt:_file.obj
 0001:000452b0       ___acrt_uninitialize_stdio 100462b0 f   libucrt:_file.obj
 0001:000452fc       __get_stream_buffer_pointers 100462fc f   libucrt:_file.obj
 0001:00045342       __lock_file                10046342 f   libucrt:_file.obj
 0001:00045356       __unlock_file              10046356 f   libucrt:_file.obj
 0001:0004536a       __get_printf_count_output  1004636a f   libucrt:printf_count_output.obj
 0001:0004537f       __set_printf_count_output  1004637f f   libucrt:printf_count_output.obj
 0001:0004546d       __fputwc_nolock            1004646d f   libucrt:fputwc.obj
 0001:000454a3       __fputwc_nolock_internal   100464a3 f   libucrt:fputwc.obj
 0001:000455db       __fputwchar                100465db f   libucrt:fputwc.obj
 0001:000455f5       __putwc_nolock             100465f5 f   libucrt:fputwc.obj
 0001:00045600       _fputwc                    10046600 f   libucrt:fputwc.obj
 0001:00045636       _putwc                     10046636 f   libucrt:fputwc.obj
 0001:00045641       _putwchar                  10046641 f   libucrt:fputwc.obj
 0001:00045779       __fputc_nolock             10046779 f   libucrt:fputc.obj
 0001:000457ad       __fputc_nolock_internal    100467ad f   libucrt:fputc.obj
 0001:000457da       __fputchar                 100467da f   libucrt:fputc.obj
 0001:000457f4       __putc_nolock              100467f4 f   libucrt:fputc.obj
 0001:000457ff       _fputc                     100467ff f   libucrt:fputc.obj
 0001:00045833       _putc                      10046833 f   libucrt:fputc.obj
 0001:0004583e       _putchar                   1004683e f   libucrt:fputc.obj
 0001:00045849       ?has_temporary_buffer@__crt_stdio_stream@@QBE_NXZ 10046849 f i libucrt:_sftbuf.obj
 0001:00045855       ___acrt_should_use_temporary_buffer 10046855 f   libucrt:_sftbuf.obj
 0001:00045890       ___acrt_stdio_begin_temporary_buffering_nolock 10046890 f   libucrt:_sftbuf.obj
 0001:0004593c       ___acrt_stdio_end_temporary_buffering_nolock 1004693c f   libucrt:_sftbuf.obj
 0001:0004597a       __isatty                   1004697a f   libucrt:isatty.obj
 0001:000459d0       __calloc_base              100469d0 f   libucrt:calloc_base.obj
 0001:00045a2d       ___sys_errlist             10046a2d f   libucrt:syserr.obj
 0001:00045a33       ___sys_nerr                10046a33 f   libucrt:syserr.obj
 0001:00045ce4       __mbstowcs_l               10046ce4 f   libucrt:mbstowcs.obj
 0001:00045d1c       __mbstowcs_s_l             10046d1c f   libucrt:mbstowcs.obj
 0001:00045d5a       _mbstowcs                  10046d5a f   libucrt:mbstowcs.obj
 0001:00045d91       _mbstowcs_s                10046d91 f   libucrt:mbstowcs.obj
 0001:00045e85       _strncpy_s                 10046e85 f   libucrt:strncpy_s.obj
 0001:00045ebc       ?__mbrtowc_utf8@__crt_mbstring@@YAIPA_WPBDIPAU_Mbstatet@@AAV__crt_cached_ptd_host@@@Z 10046ebc f   libucrt:mbrtowc.obj
 0001:00045eff       ?__mbsrtowcs_utf8@__crt_mbstring@@YAIPA_WPAPBDIPAU_Mbstatet@@AAV__crt_cached_ptd_host@@@Z 10046eff f   libucrt:mbrtowc.obj
 0001:0004643d       _btowc                     1004743d f   libucrt:mbrtowc.obj
 0001:000464ae       _mbrlen                    100474ae f   libucrt:mbrtowc.obj
 0001:000464f6       _mbrtowc                   100474f6 f   libucrt:mbrtowc.obj
 0001:0004655d       _mbsrtowcs                 1004755d f   libucrt:mbrtowc.obj
 0001:00046597       _mbsrtowcs_s               10047597 f   libucrt:mbrtowc.obj
 0001:000466b8       __putwch                   100476b8 f   libucrt:putwch.obj
 0001:000466e5       __putwch_nolock            100476e5 f   libucrt:putwch.obj
 0001:00046717       __putwch_nolock_internal   10047717 f   libucrt:putwch.obj
 0001:00046727       ??$?RU__crt_stdio_stream_data@@@__crt_internal_free_policy@@QBEXQBU__crt_stdio_stream_data@@@Z 10047727 f i libucrt:stream.obj
 0001:00046739       ??0?$__crt_unique_heap_ptr@U__crt_stdio_stream_data@@U__crt_internal_free_policy@@@@QAE@QAU__crt_stdio_stream_data@@@Z 10047739 f i libucrt:stream.obj
 0001:00046749       ??0__crt_stdio_stream@@QAE@QAU__crt_stdio_stream_data@@@Z 10047749 f i libucrt:stream.obj
 0001:00046759       ??0__crt_stdio_stream@@QAE@XZ 10047759 f i libucrt:stream.obj
 0001:0004675f       ??1?$__crt_unique_heap_ptr@U__crt_stdio_stream_data@@U__crt_internal_free_policy@@@@QAE@XZ 1004775f f i libucrt:stream.obj
 0001:00046771       ?__acrt_stdio_allocate_stream@@YA?AV__crt_stdio_stream@@XZ 10047771 f   libucrt:stream.obj
 0001:000467da       ?__acrt_stdio_free_stream@@YAXV__crt_stdio_stream@@@Z 100477da f   libucrt:stream.obj
 0001:00046815       ?deallocate@__crt_stdio_stream@@QAEXXZ 10047815 f i libucrt:stream.obj
 0001:0004681f       ?detach@?$__crt_unique_heap_ptr@U__crt_stdio_stream_data@@U__crt_internal_free_policy@@@@QAEPAU__crt_stdio_stream_data@@XZ 1004781f f i libucrt:stream.obj
 0001:000468e7       ?lock@__crt_stdio_stream@@QBEXXZ 100478e7 f i libucrt:stream.obj
 0001:000468f0       ?release@?$__crt_unique_heap_ptr@U__crt_stdio_stream_data@@U__crt_internal_free_policy@@@@QAEXXZ 100478f0 f i libucrt:stream.obj
 0001:00046902       ?try_allocate@__crt_stdio_stream@@QAE_NXZ 10047902 f i libucrt:stream.obj
 0001:00046922       ??$__acrt_stdio_parse_mode@D@@YA?AU__acrt_stdio_stream_mode@@QBD@Z 10047922 f i libucrt:openfile.obj
 0001:00046b4c       ??$__acrt_stdio_parse_mode@_W@@YA?AU__acrt_stdio_stream_mode@@QB_W@Z 10047b4c f i libucrt:openfile.obj
 0001:00046ebd       ??$tcsncmp@AAPBDAAY02$$CBDI@?$__crt_char_traits@D@@SAHAAPBDAAY02$$CBD$$QAI@Z 10047ebd f i libucrt:openfile.obj
 0001:00046ed9       ??$tcsncmp@AAPB_WAAY02$$CB_WI@?$__crt_char_traits@_W@@SAHAAPB_WAAY02$$CB_W$$QAI@Z 10047ed9 f i libucrt:openfile.obj
 0001:00046ef5       ??$tcsnicmp@AAPBDAAY04$$CBDI@?$__crt_char_traits@D@@SAHAAPBDAAY04$$CBD$$QAI@Z 10047ef5 f i libucrt:openfile.obj
 0001:00046f11       ??$tcsnicmp@AAPBDAAY06$$CBDI@?$__crt_char_traits@D@@SAHAAPBDAAY06$$CBD$$QAI@Z 10047f11 f i libucrt:openfile.obj
 0001:00046f2d       ??$tcsnicmp@AAPBDAAY07$$CBDI@?$__crt_char_traits@D@@SAHAAPBDAAY07$$CBD$$QAI@Z 10047f2d f i libucrt:openfile.obj
 0001:00046f49       ??$tcsnicmp@AAPB_WAAY04$$CB_WI@?$__crt_char_traits@_W@@SAHAAPB_WAAY04$$CB_W$$QAI@Z 10047f49 f i libucrt:openfile.obj
 0001:00046f65       ??$tcsnicmp@AAPB_WAAY06$$CB_WI@?$__crt_char_traits@_W@@SAHAAPB_WAAY06$$CB_W$$QAI@Z 10047f65 f i libucrt:openfile.obj
 0001:00046f81       ??$tcsnicmp@AAPB_WAAY07$$CB_WI@?$__crt_char_traits@_W@@SAHAAPB_WAAY07$$CB_W$$QAI@Z 10047f81 f i libucrt:openfile.obj
 0001:00046f9d       ??$tsopen_s@PAHABQBDABHABHH@?$__crt_char_traits@D@@SAH$$QAPAHABQBDABH2$$QAH@Z 10047f9d f i libucrt:openfile.obj
 0001:00046fc5       ??$tsopen_s@PAHABQB_WABHABHH@?$__crt_char_traits@_W@@SAH$$QAPAHABQB_WABH2$$QAH@Z 10047fc5 f i libucrt:openfile.obj
 0001:00046fed       ?__acrt_stdio_parse_mode_D@@YA_NAAU__acrt_stdio_stream_mode@@@Z 10047fed f i libucrt:openfile.obj
 0001:00047008       ?__acrt_stdio_parse_mode_N@@YA_NAAU__acrt_stdio_stream_mode@@@Z 10048008 f i libucrt:openfile.obj
 0001:0004701a       ?__acrt_stdio_parse_mode_R@@YA_NAAU__acrt_stdio_stream_mode@@AA_N@Z 1004801a f i libucrt:openfile.obj
 0001:00047038       ?__acrt_stdio_parse_mode_S@@YA_NAAU__acrt_stdio_stream_mode@@AA_N@Z 10048038 f i libucrt:openfile.obj
 0001:00047056       ?__acrt_stdio_parse_mode_T@@YA_NAAU__acrt_stdio_stream_mode@@@Z 10048056 f i libucrt:openfile.obj
 0001:00047075       ?__acrt_stdio_parse_mode_b@@YA_NAAU__acrt_stdio_stream_mode@@@Z 10048075 f i libucrt:openfile.obj
 0001:00047095       ?__acrt_stdio_parse_mode_c@@YA_NAAU__acrt_stdio_stream_mode@@AA_N@Z 10048095 f i libucrt:openfile.obj
 0001:000470b7       ?__acrt_stdio_parse_mode_n@@YA_NAAU__acrt_stdio_stream_mode@@AA_N@Z 100480b7 f i libucrt:openfile.obj
 0001:000470d9       ?__acrt_stdio_parse_mode_plus@@YA_NAAU__acrt_stdio_stream_mode@@AA_N@Z 100480d9 f i libucrt:openfile.obj
 0001:0004710f       ?__acrt_stdio_parse_mode_t@@YA_NAAU__acrt_stdio_stream_mode@@@Z 1004810f f i libucrt:openfile.obj
 0001:0004712f       ?__acrt_stdio_parse_mode_x@@YA_NAAU__acrt_stdio_stream_mode@@@Z 1004812f f i libucrt:openfile.obj
 0001:0004714f       __openfile                 1004814f f   libucrt:openfile.obj
 0001:0004715a       __wopenfile                1004815a f   libucrt:openfile.obj
 0001:00047165       ___acrt_stdio_free_buffer_nolock 10048165 f   libucrt:_freebuf.obj
 0001:00047681       ___acrt_stdio_flush_nolock 10048681 f   libucrt:fflush.obj
 0001:000476ea       __fflush_nolock            100486ea f   libucrt:fflush.obj
 0001:0004774f       __flushall                 1004874f f   libucrt:fflush.obj
 0001:00047758       _fflush                    10048758 f   libucrt:fflush.obj
 0001:00047bc8       ___acrt_stdio_flush_and_write_narrow_nolock 10048bc8 f   libucrt:_flsbuf.obj
 0001:00047bd3       ___acrt_stdio_flush_and_write_wide_nolock 10048bd3 f   libucrt:_flsbuf.obj
 0001:00047ff7       ___acrt_stdio_refill_and_read_narrow_nolock 10048ff7 f   libucrt:_filbuf.obj
 0001:00048002       ___acrt_stdio_refill_and_read_wide_nolock 10049002 f   libucrt:_filbuf.obj
 0001:0004800d       ___acrt_initialize_locks   1004900d f   libucrt:locks.obj
 0001:0004804e       ___acrt_lock               1004904e f   libucrt:locks.obj
 0001:00048065       ___acrt_uninitialize_locks 10049065 f   libucrt:locks.obj
 0001:00048096       ___acrt_unlock             10049096 f   libucrt:locks.obj
 0001:000480ad       __lock_locales             100490ad f   libucrt:locks.obj
 0001:000480bb       __unlock_locales           100490bb f   libucrt:locks.obj
 0001:0004826b       ___acrt_get_begin_thread_init_policy 1004926b f   libucrt:win_policies.obj
 0001:000482af       ___acrt_get_developer_information_policy 100492af f   libucrt:win_policies.obj
 0001:000482f3       ___acrt_get_process_end_policy 100492f3 f   libucrt:win_policies.obj
 0001:00048324       ___acrt_get_windowing_model_policy 10049324 f   libucrt:win_policies.obj
 0001:000483b0       ??$__acrt_convert_wcs_mbs_cp@_WDV<lambda_28bda7af82a03b66c1cb3803a755f95d>@@U__crt_win32_buffer_internal_dynamic_resizing@@@@YAHQB_WAAV?$__crt_win32_buffer@DU__crt_win32_buffer_internal_dynamic_resizing@@@@ABV<lambda_28bda7af82a03b66c1cb3803a755f95d>@@I@Z 100493b0 f i libucrt:argv_wildcards.obj
 0001:00048476       ??$__acrt_wcs_to_mbs_cp@U__crt_win32_buffer_internal_dynamic_resizing@@@@YAHQB_WAAV?$__crt_win32_buffer@DU__crt_win32_buffer_internal_dynamic_resizing@@@@I@Z 10049476 f i libucrt:argv_wildcards.obj
 0001:00048d28       ??$tcslen@ABQBD@?$__crt_char_traits@D@@SAIABQBD@Z 10049d28 f i libucrt:argv_wildcards.obj
 0001:00048d40       ??$tcslen@ABQB_W@?$__crt_char_traits@_W@@SAIABQB_W@Z 10049d40 f i libucrt:argv_wildcards.obj
 0001:00048d5e       ??$tcsncpy_s@AAPADIAAPADABI@?$__crt_char_traits@D@@SAHAAPAD$$QAI0ABI@Z 10049d5e f i libucrt:argv_wildcards.obj
 0001:00048d81       ??$tcsncpy_s@AAPA_WIAAPA_WABI@?$__crt_char_traits@_W@@SAHAAPA_W$$QAI0ABI@Z 10049d81 f i libucrt:argv_wildcards.obj
 0001:00048da4       ??$tcsncpy_s@PADABIABQBDABI@?$__crt_char_traits@D@@SAH$$QAPADABIABQBD1@Z 10049da4 f i libucrt:argv_wildcards.obj
 0001:00048dc7       ??$tcsncpy_s@PADIABQBDABI@?$__crt_char_traits@D@@SAH$$QAPAD$$QAIABQBDABI@Z 10049dc7 f i libucrt:argv_wildcards.obj
 0001:00048dea       ??$tcsncpy_s@PA_WABIABQB_WABI@?$__crt_char_traits@_W@@SAH$$QAPA_WABIABQB_W1@Z 10049dea f i libucrt:argv_wildcards.obj
 0001:00048e0d       ??$tcsncpy_s@PA_WIABQB_WABI@?$__crt_char_traits@_W@@SAH$$QAPA_W$$QAIABQB_WABI@Z 10049e0d f i libucrt:argv_wildcards.obj
 0001:00048e30       ??$tcspbrk@AAPADAAY02$$CBD@?$__crt_char_traits@D@@SAPADAAPADAAY02$$CBD@Z 10049e30 f i libucrt:argv_wildcards.obj
 0001:00048e46       ??$tcspbrk@AAPA_WAAY02$$CB_W@?$__crt_char_traits@_W@@SAPA_WAAPA_WAAY02$$CB_W@Z 10049e46 f i libucrt:argv_wildcards.obj
 0001:00048e5c       ??0?$__crt_unique_handle_t@U__crt_findfile_traits@@@@QAE@QAX@Z 10049e5c f i libucrt:argv_wildcards.obj
 0001:00048e6c       ??0?$__crt_win32_buffer@DU__crt_win32_buffer_internal_dynamic_resizing@@@@QAE@XZ 10049e6c f i libucrt:argv_wildcards.obj
 0001:00048e9c       ??1?$__crt_unique_handle_t@U__crt_findfile_traits@@@@QAE@XZ 10049e9c f i libucrt:argv_wildcards.obj
 0001:00048eb3       ??1?$__crt_win32_buffer@DU__crt_win32_buffer_internal_dynamic_resizing@@@@QAE@XZ 10049eb3 f i libucrt:argv_wildcards.obj
 0001:00048f16       ??R<lambda_28bda7af82a03b66c1cb3803a755f95d>@@QBEHIQB_WQADI@Z 10049f16 f i libucrt:argv_wildcards.obj
 0001:00048fb0       ?_deallocate@?$__crt_win32_buffer@DU__crt_win32_buffer_internal_dynamic_resizing@@@@AAEXXZ 10049fb0 f i libucrt:argv_wildcards.obj
 0001:00048fca       ?allocate@?$__crt_win32_buffer@DU__crt_win32_buffer_internal_dynamic_resizing@@@@QAEHI@Z 10049fca f i libucrt:argv_wildcards.obj
 0001:00049076       ?capacity@?$__crt_win32_buffer@DU__crt_win32_buffer_internal_dynamic_resizing@@@@QBEIXZ 1004a076 f i libucrt:argv_wildcards.obj
 0001:0004907a       ?close@?$__crt_unique_handle_t@U__crt_findfile_traits@@@@QAEXXZ 1004a07a f i libucrt:argv_wildcards.obj
 0001:00049091       ?close@__crt_findfile_traits@@SA_NPAX@Z 1004a091 f i libucrt:argv_wildcards.obj
 0001:000490a6       ?data@?$__crt_win32_buffer@DU__crt_win32_buffer_internal_dynamic_resizing@@@@QAEPADXZ 1004a0a6 f i libucrt:argv_wildcards.obj
 0001:000490aa       ?debug_info@?$__crt_win32_buffer@DU__crt_win32_buffer_internal_dynamic_resizing@@@@QBEABV__crt_win32_buffer_empty_debug_info@@XZ 1004a0aa f i libucrt:argv_wildcards.obj
 0001:000491c3       ?get@?$__crt_unique_handle_t@U__crt_findfile_traits@@@@QBEPAXXZ 1004a1c3 f i libucrt:argv_wildcards.obj
 0001:000491f9       ?get_invalid_value@__crt_findfile_traits@@SAPAXXZ 1004a1f9 f i libucrt:argv_wildcards.obj
 0001:00049248       ?set_to_nullptr@?$__crt_win32_buffer@DU__crt_win32_buffer_internal_dynamic_resizing@@@@QAEXXZ 1004a248 f i libucrt:argv_wildcards.obj
 0001:0004925f       ?size@?$__crt_win32_buffer@DU__crt_win32_buffer_internal_dynamic_resizing@@@@QAEXI@Z 1004a25f f i libucrt:argv_wildcards.obj
 0001:00049280       ?strpbrk@@YAPADQADQBD@Z    1004a280 f i libucrt:argv_wildcards.obj
 0001:0004928b       ?wcspbrk@@YAPA_WPA_WPB_W@Z 1004a28b f i libucrt:argv_wildcards.obj
 0001:00049296       ___acrt_expand_narrow_argv_wildcards 1004a296 f   libucrt:argv_wildcards.obj
 0001:000492a1       ___acrt_expand_wide_argv_wildcards 1004a2a1 f   libucrt:argv_wildcards.obj
 0001:000492ac       ??$__acrt_convert_wcs_mbs_cp@_WDV<lambda_0fec1a7b3f42a53036604e18c2d5e07e>@@U__crt_win32_buffer_no_resizing@@@@YAHQB_WAAV?$__crt_win32_buffer@DU__crt_win32_buffer_no_resizing@@@@ABV<lambda_0fec1a7b3f42a53036604e18c2d5e07e>@@I@Z 1004a2ac f i libucrt:getmodulefilenamea.obj
 0001:0004936e       ??$__acrt_wcs_to_mbs_cp@U__crt_win32_buffer_no_resizing@@@@YAHQB_WAAV?$__crt_win32_buffer@DU__crt_win32_buffer_no_resizing@@@@I@Z 1004a36e f i libucrt:getmodulefilenamea.obj
 0001:0004938b       ??0?$__crt_win32_buffer@DU__crt_win32_buffer_no_resizing@@@@QAE@QADI@Z 1004a38b f i libucrt:getmodulefilenamea.obj
 0001:000493af       ??1?$__crt_win32_buffer@DU__crt_win32_buffer_no_resizing@@@@QAE@XZ 1004a3af f i libucrt:getmodulefilenamea.obj
 0001:000493ba       ??R<lambda_0fec1a7b3f42a53036604e18c2d5e07e>@@QBEHIQB_WQADI@Z 1004a3ba f i libucrt:getmodulefilenamea.obj
 0001:000493de       ?_deallocate@?$__crt_win32_buffer@DU__crt_win32_buffer_no_resizing@@@@AAEXXZ 1004a3de f i libucrt:getmodulefilenamea.obj
 0001:000493e9       ?allocate@?$__crt_win32_buffer@DU__crt_win32_buffer_no_resizing@@@@QAEHI@Z 1004a3e9 f i libucrt:getmodulefilenamea.obj
 0001:00049410       ?allocate@__crt_win32_buffer_no_resizing@@SAHQAPAXIABV__crt_win32_buffer_empty_debug_info@@@Z 1004a410 f i libucrt:getmodulefilenamea.obj
 0001:0004941d       ?capacity@?$__crt_win32_buffer@DU__crt_win32_buffer_no_resizing@@@@QBEIXZ 1004a41d f i libucrt:getmodulefilenamea.obj
 0001:00049421       ?data@?$__crt_win32_buffer@DU__crt_win32_buffer_no_resizing@@@@QAEPADXZ 1004a421 f i libucrt:getmodulefilenamea.obj
 0001:00049425       ?deallocate@__crt_win32_buffer_no_resizing@@SAXQAXABV__crt_win32_buffer_empty_debug_info@@@Z 1004a425 f i libucrt:getmodulefilenamea.obj
 0001:00049428       ?debug_info@?$__crt_win32_buffer@DU__crt_win32_buffer_no_resizing@@@@QBEABV__crt_win32_buffer_empty_debug_info@@XZ 1004a428 f i libucrt:getmodulefilenamea.obj
 0001:0004942b       ?set_to_nullptr@?$__crt_win32_buffer@DU__crt_win32_buffer_no_resizing@@@@QAEXXZ 1004a42b f i libucrt:getmodulefilenamea.obj
 0001:0004943f       ?size@?$__crt_win32_buffer@DU__crt_win32_buffer_no_resizing@@@@QAEXI@Z 1004a43f f i libucrt:getmodulefilenamea.obj
 0001:0004944e       ?size@?$__crt_win32_buffer@DU__crt_win32_buffer_no_resizing@@@@QBEIXZ 1004a44e f i libucrt:getmodulefilenamea.obj
 0001:00049452       ___acrt_GetModuleFileNameA 1004a452 f   libucrt:getmodulefilenamea.obj
 0001:00049566       ??$initialize_from_array@$$BY10BAA@E@?$dual_state_global@PAE@__crt_state_management@@QAAXAAY10BAA@E@Z 1004a566 f i libucrt:mbctype.obj
 0001:00049575       ??$initialize_from_array@$$BY10BAB@E@?$dual_state_global@PAE@__crt_state_management@@QAAXAAY10BAB@E@Z 1004a575 f i libucrt:mbctype.obj
 0001:00049691       ?dangerous_get_state_array@?$dual_state_global@PAE@__crt_state_management@@QAEPAPAEXZ 1004a691 f i libucrt:mbctype.obj
 0001:00049694       ?dangerous_get_state_array@?$dual_state_global@PAU__crt_multibyte_data@@@__crt_state_management@@QAEPAPAU__crt_multibyte_data@@XZ 1004a694 f i libucrt:mbctype.obj
 0001:00049708       ?initialize@?$dual_state_global@PAU__crt_multibyte_data@@@__crt_state_management@@QAEXQAU__crt_multibyte_data@@@Z 1004a708 f i libucrt:mbctype.obj
 0001:00049b28       ?value@?$dual_state_global@PAE@__crt_state_management@@QAEAAPAEXZ 1004ab28 f i libucrt:mbctype.obj
 0001:00049b2b       ___acrt_initialize_multibyte 1004ab2b f   libucrt:mbctype.obj
 0001:00049b73       ___acrt_update_thread_multibyte_data 1004ab73 f   libucrt:mbctype.obj
 0001:00049b86       ___p__mbcasemap            1004ab86 f   libucrt:mbctype.obj
 0001:00049b8c       ___p__mbctype              1004ab8c f   libucrt:mbctype.obj
 0001:00049b92       __getmbcp                  1004ab92 f   libucrt:mbctype.obj
 0001:00049bc6       __setmbcp                  1004abc6 f   libucrt:mbctype.obj
 0001:00049be5       __setmbcp_nolock           1004abe5 f   libucrt:mbctype.obj
 0001:00049ebe       __ismbbalnum               1004aebe f   libucrt:ismbbyte.obj
 0001:00049ed9       __ismbbalnum_l             1004aed9 f   libucrt:ismbbyte.obj
 0001:00049ef5       __ismbbalpha               1004aef5 f   libucrt:ismbbyte.obj
 0001:00049f10       __ismbbalpha_l             1004af10 f   libucrt:ismbbyte.obj
 0001:00049f2c       __ismbbblank               1004af2c f   libucrt:ismbbyte.obj
 0001:00049f4f       __ismbbblank_l             1004af4f f   libucrt:ismbbyte.obj
 0001:00049f73       __ismbbgraph               1004af73 f   libucrt:ismbbyte.obj
 0001:00049f8e       __ismbbgraph_l             1004af8e f   libucrt:ismbbyte.obj
 0001:00049faa       __ismbbkalnum              1004afaa f   libucrt:ismbbyte.obj
 0001:00049fc2       __ismbbkalnum_l            1004afc2 f   libucrt:ismbbyte.obj
 0001:00049fdb       __ismbbkana                1004afdb f   libucrt:ismbbyte.obj
 0001:00049fee       __ismbbkana_l              1004afee f   libucrt:ismbbyte.obj
 0001:0004a03d       __ismbbkprint              1004b03d f   libucrt:ismbbyte.obj
 0001:0004a055       __ismbbkprint_l            1004b055 f   libucrt:ismbbyte.obj
 0001:0004a06e       __ismbbkpunct              1004b06e f   libucrt:ismbbyte.obj
 0001:0004a086       __ismbbkpunct_l            1004b086 f   libucrt:ismbbyte.obj
 0001:0004a09f       __ismbblead                1004b09f f   libucrt:ismbbyte.obj
 0001:0004a0b7       __ismbblead_l              1004b0b7 f   libucrt:ismbbyte.obj
 0001:0004a0d0       __ismbbprint               1004b0d0 f   libucrt:ismbbyte.obj
 0001:0004a0eb       __ismbbprint_l             1004b0eb f   libucrt:ismbbyte.obj
 0001:0004a107       __ismbbpunct               1004b107 f   libucrt:ismbbyte.obj
 0001:0004a11f       __ismbbpunct_l             1004b11f f   libucrt:ismbbyte.obj
 0001:0004a138       __ismbbtrail               1004b138 f   libucrt:ismbbyte.obj
 0001:0004a150       __ismbbtrail_l             1004b150 f   libucrt:ismbbyte.obj
 0001:0004a169       ___acrt_initialize_command_line 1004b169 f   libucrt:argv_data.obj
 0001:0004a182       ___acrt_uninitialize_command_line 1004b182 f   libucrt:argv_data.obj
 0001:0004a185       ___p___argc                1004b185 f   libucrt:argv_data.obj
 0001:0004a18b       ___p___argv                1004b18b f   libucrt:argv_data.obj
 0001:0004a191       ___p___wargv               1004b191 f   libucrt:argv_data.obj
 0001:0004a197       ___p__acmdln               1004b197 f   libucrt:argv_data.obj
 0001:0004a19d       ___p__pgmptr               1004b19d f   libucrt:argv_data.obj
 0001:0004a1a3       ___p__wcmdln               1004b1a3 f   libucrt:argv_data.obj
 0001:0004a1a9       ___p__wpgmptr              1004b1a9 f   libucrt:argv_data.obj
 0001:0004a1af       __get_pgmptr               1004b1af f   libucrt:argv_data.obj
 0001:0004a1e0       __get_wpgmptr              1004b1e0 f   libucrt:argv_data.obj
 0001:0004a275       _wcscpy_s                  1004b275 f   libucrt:wcscpy_s.obj
 0001:0004a374       ___dcrt_get_narrow_environment_from_os 1004b374 f   libucrt:get_environment_from_os.obj
 0001:0004a414       ___dcrt_get_wide_environment_from_os 1004b414 f   libucrt:get_environment_from_os.obj
 0001:0004ab8e       ??$get_or_create_environment_nolock@$$V@?$__crt_char_traits@D@@SAPAPADXZ 1004bb8e f i libucrt:setenv.obj
 0001:0004ab93       ??$get_or_create_environment_nolock@$$V@?$__crt_char_traits@_W@@SAPAPA_WXZ 1004bb93 f i libucrt:setenv.obj
 0001:0004ab98       ??$set_environment_variable@ABQADQAD@?$__crt_char_traits@D@@SAHABQAD$$QBQAD@Z 1004bb98 f i libucrt:setenv.obj
 0001:0004abb0       ??$set_environment_variable@ABQA_WQA_W@?$__crt_char_traits@_W@@SAHABQA_W$$QBQA_W@Z 1004bbb0 f i libucrt:setenv.obj
 0001:0004abc7       ??$tcschr@ABQADD@?$__crt_char_traits@D@@SAPADABQAD$$QAD@Z 1004bbc7 f i libucrt:setenv.obj
 0001:0004abe1       ??$tcschr@ABQA_WD@?$__crt_char_traits@_W@@SAPA_WABQA_W$$QAD@Z 1004bbe1 f i libucrt:setenv.obj
 0001:0004abff       ??$tcscpy_s@AAPADABIAAPAD@?$__crt_char_traits@D@@SAHAAPADABI0@Z 1004bbff f i libucrt:setenv.obj
 0001:0004ac1d       ??$tcscpy_s@AAPA_WABIAAPA_W@?$__crt_char_traits@_W@@SAHAAPA_WABI0@Z 1004bc1d f i libucrt:setenv.obj
 0001:0004ac3b       ??$tcscpy_s@ABQADABIABQAD@?$__crt_char_traits@D@@SAHABQADABI0@Z 1004bc3b f i libucrt:setenv.obj
 0001:0004ac59       ??$tcscpy_s@ABQA_WABIABQA_W@?$__crt_char_traits@_W@@SAHABQA_WABI0@Z 1004bc59 f i libucrt:setenv.obj
 0001:0004ac77       ??$tcslen@ABQAD@?$__crt_char_traits@D@@SAIABQAD@Z 1004bc77 f i libucrt:setenv.obj
 0001:0004ac8f       ??$tcslen@ABQA_W@?$__crt_char_traits@_W@@SAIABQA_W@Z 1004bc8f f i libucrt:setenv.obj
 0001:0004acad       ??$tcsnicoll@ABQBDAAPADABI@?$__crt_char_traits@D@@SAHABQBDAAPADABI@Z 1004bcad f i libucrt:setenv.obj
 0001:0004accb       ??$tcsnicoll@ABQB_WAAPA_WABI@?$__crt_char_traits@_W@@SAHABQB_WAAPA_WABI@Z 1004bccb f i libucrt:setenv.obj
 0001:0004ad0d       ?strchr@@YAPADQADH@Z       1004bd0d f i libucrt:setenv.obj
 0001:0004ad18       ?wcschr@@YAPA_WPA_W_W@Z    1004bd18 f i libucrt:setenv.obj
 0001:0004ad23       ___dcrt_set_variable_in_narrow_environment_nolock 1004bd23 f   libucrt:setenv.obj
 0001:0004ad2e       ___dcrt_set_variable_in_wide_environment_nolock 1004bd2e f   libucrt:setenv.obj
 0001:0004ad39       __recalloc                 1004bd39 f   libucrt:recalloc.obj
 0001:0004ad44       __recalloc_base            1004bd44 f   libucrt:recalloc.obj
 0001:0004adb1       ___acrt_getheap            1004bdb1 f   libucrt:heap_handle.obj
 0001:0004adb7       ___acrt_initialize_heap    1004bdb7 f   libucrt:heap_handle.obj
 0001:0004adc8       ___acrt_uninitialize_heap  1004bdc8 f   libucrt:heap_handle.obj
 0001:0004add2       __get_heap_handle          1004bdd2 f   libucrt:heap_handle.obj
 0001:0004add8       ___acrt_execute_initializers 1004bdd8 f   libucrt:shared_initialization.obj
 0001:0004ae40       ___acrt_execute_uninitializers 1004be40 f   libucrt:shared_initialization.obj
 0001:0004ae71       ??$?B$$A6AHI@Z@__crt_fast_encoded_nullptr_t@@QBEP6AHI@ZXZ 1004be71 f i libucrt:new_handler.obj
 0001:0004ae77       ??$__crt_fast_decode_pointer@P6AHI@Z@@YAP6AHI@ZQ6AHI@Z@Z 1004be77 f i libucrt:new_handler.obj
 0001:0004ae8d       ??$__crt_fast_encode_pointer@P6AHI@Z@@YAP6AHI@ZQ6AHI@Z@Z 1004be8d f i libucrt:new_handler.obj
 0001:0004aeac       ?_set_new_handler@@YAP6AHI@ZH@Z 1004beac f   libucrt:new_handler.obj
 0001:0004aeb9       ?initialize@?$dual_state_global@P6AHI@Z@__crt_state_management@@QAEXQ6AHI@Z@Z 1004beb9 f i libucrt:new_handler.obj
 0001:0004aed5       ?value@?$dual_state_global@P6AHI@Z@__crt_state_management@@QAEAAP6AHI@ZXZ 1004bed5 f i libucrt:new_handler.obj
 0001:0004aed8       ___acrt_initialize_new_handler 1004bed8 f   libucrt:new_handler.obj
 0001:0004aee7       __callnewh                 1004bee7 f   libucrt:new_handler.obj
 0001:0004af14       __query_new_handler        1004bf14 f   libucrt:new_handler.obj
 0001:0004af70       __set_new_handler          1004bf70 f   libucrt:new_handler.obj
 0001:0004afda       ??$?B$$A6AXH@Z@__crt_fast_encoded_nullptr_t@@QBEP6AXH@ZXZ 1004bfda f i libucrt:signal.obj
 0001:0004b06a       ??$__crt_fast_decode_pointer@P6AXH@Z@@YAP6AXH@ZQ6AXH@Z@Z 1004c06a f i libucrt:signal.obj
 0001:0004b080       ??$__crt_fast_encode_pointer@P6AXH@Z@@YAP6AXH@ZQ6AXH@Z@Z 1004c080 f i libucrt:signal.obj
 0001:0004b1d4       ?initialize@?$dual_state_global@P6AXH@Z@__crt_state_management@@QAEXQ6AXH@Z@Z 1004c1d4 f i libucrt:signal.obj
 0001:0004b27d       ?value@?$dual_state_global@P6AXH@Z@__crt_state_management@@QAEAAP6AXH@ZXZ 1004c27d f i libucrt:signal.obj
 0001:0004b280       ___acrt_get_sigabrt_handler 1004c280 f   libucrt:signal.obj
 0001:0004b2a7       ___acrt_initialize_signal_handlers 1004c2a7 f   libucrt:signal.obj
 0001:0004b2c5       ___fpecode                 1004c2c5 f   libucrt:signal.obj
 0001:0004b2ce       ___pxcptinfoptrs           1004c2ce f   libucrt:signal.obj
 0001:0004b2d7       _raise                     1004c2d7 f   libucrt:signal.obj
 0001:0004b4ca       _signal                    1004c4ca f   libucrt:signal.obj
 0001:0004b689       ??$__crt_fast_decode_pointer@P6AHPAU_exception@@@Z@@YAP6AHPAU_exception@@@ZQ6AH0@Z@Z 1004c689 f i libucrt:matherr.obj
 0001:0004b69f       ??$__crt_fast_encode_pointer@P6AHPAU_exception@@@Z@@YAP6AHPAU_exception@@@ZQ6AH0@Z@Z 1004c69f f i libucrt:matherr.obj
 0001:0004b6be       ?initialize@?$dual_state_global@P6AHPAU_exception@@@Z@__crt_state_management@@QAEXQ6AHPAU_exception@@@Z@Z 1004c6be f i libucrt:matherr.obj
 0001:0004b6da       ?value@?$dual_state_global@P6AHPAU_exception@@@Z@__crt_state_management@@QAEAAP6AHPAU_exception@@@ZXZ 1004c6da f i libucrt:matherr.obj
 0001:0004b6dd       ___acrt_has_user_matherr   1004c6dd f   libucrt:matherr.obj
 0001:0004b6f5       ___acrt_initialize_user_matherr 1004c6f5 f   libucrt:matherr.obj
 0001:0004b704       ___acrt_invoke_user_matherr 1004c704 f   libucrt:matherr.obj
 0001:0004b736       ___setusermatherr          1004c736 f   libucrt:matherr.obj
 0001:0004b74b       ___pctype_func             1004c74b f   libucrt:ctype.obj
 0001:0004b76f       ___pwctype_func            1004c76f f   libucrt:ctype.obj
 0001:0004b775       __iswctype_l               1004c775 f   libucrt:iswctype.obj
 0001:0004b789       _iswctype                  1004c789 f   libucrt:iswctype.obj
 0001:0004b7f2       __isctype                  1004c7f2 f   libucrt:isctype.obj
 0001:0004b825       __isctype_l                1004c825 f   libucrt:isctype.obj
 0001:0004b98e       ___acrt_report_runtime_error 1004c98e f   libucrt:report_runtime_error.obj
 0001:0004baa3       __query_app_type           1004caa3 f   libucrt:report_runtime_error.obj
 0001:0004baa9       __set_app_type             1004caa9 f   libucrt:report_runtime_error.obj
 0001:0004bab8       ___acrt_add_locale_ref     1004cab8 f   libucrt:locale_refcounting.obj
 0001:0004bb35       ___acrt_free_locale        1004cb35 f   libucrt:locale_refcounting.obj
 0001:0004bc7d       ___acrt_locale_add_lc_time_reference 1004cc7d f   libucrt:locale_refcounting.obj
 0001:0004bca6       ___acrt_locale_free_lc_time_if_unreferenced 1004cca6 f   libucrt:locale_refcounting.obj
 0001:0004bcd7       ___acrt_locale_release_lc_time_reference 1004ccd7 f   libucrt:locale_refcounting.obj
 0001:0004bd00       ___acrt_release_locale_ref 1004cd00 f   libucrt:locale_refcounting.obj
 0001:0004bd81       ___acrt_update_thread_locale_data 1004cd81 f   libucrt:locale_refcounting.obj
 0001:0004be02       __updatetlocinfoEx_nolock  1004ce02 f   libucrt:locale_refcounting.obj
 0001:0004be52       ??$?RG@__crt_internal_free_policy@@QBEXQBG@Z 1004ce52 f i libucrt:initctype.obj
 0001:0004be64       ??$?RJ@__crt_internal_free_policy@@QBEXQBJ@Z 1004ce64 f i libucrt:initctype.obj
 0001:0004be76       ??0?$__crt_unique_heap_ptr@GU__crt_internal_free_policy@@@@QAE@QAG@Z 1004ce76 f i libucrt:initctype.obj
 0001:0004be86       ??0?$__crt_unique_heap_ptr@JU__crt_internal_free_policy@@@@QAE@QAJ@Z 1004ce86 f i libucrt:initctype.obj
 0001:0004be96       ??1?$__crt_unique_heap_ptr@GU__crt_internal_free_policy@@@@QAE@XZ 1004ce96 f i libucrt:initctype.obj
 0001:0004bea8       ??1?$__crt_unique_heap_ptr@JU__crt_internal_free_policy@@@@QAE@XZ 1004cea8 f i libucrt:initctype.obj
 0001:0004beba       ?detach@?$__crt_unique_heap_ptr@GU__crt_internal_free_policy@@@@QAEPAGXZ 1004ceba f i libucrt:initctype.obj
 0001:0004bec0       ?detach@?$__crt_unique_heap_ptr@JU__crt_internal_free_policy@@@@QAEPAJXZ 1004cec0 f i libucrt:initctype.obj
 0001:0004bec6       ?release@?$__crt_unique_heap_ptr@GU__crt_internal_free_policy@@@@QAEXXZ 1004cec6 f i libucrt:initctype.obj
 0001:0004bed8       ?release@?$__crt_unique_heap_ptr@JU__crt_internal_free_policy@@@@QAEXXZ 1004ced8 f i libucrt:initctype.obj
 0001:0004beea       ____lc_codepage_func       1004ceea f   libucrt:initctype.obj
 0001:0004bf0f       ____lc_collate_cp_func     1004cf0f f   libucrt:initctype.obj
 0001:0004bf34       ____lc_locale_name_func    1004cf34 f   libucrt:initctype.obj
 0001:0004bf5b       ____mb_cur_max_func        1004cf5b f   libucrt:initctype.obj
 0001:0004bf80       ____mb_cur_max_l_func      1004cf80 f   libucrt:initctype.obj
 0001:0004bf99       ___acrt_locale_initialize_ctype 1004cf99 f   libucrt:initctype.obj
 0001:0004c3f6       ??$?RUlconv@@@__crt_internal_free_policy@@QBEXQBUlconv@@@Z 1004d3f6 f i libucrt:initmon.obj
 0001:0004c408       ??0?$__crt_unique_heap_ptr@Ulconv@@U__crt_internal_free_policy@@@@QAE@QAUlconv@@@Z 1004d408 f i libucrt:initmon.obj
 0001:0004c418       ??1?$__crt_unique_heap_ptr@Ulconv@@U__crt_internal_free_policy@@@@QAE@XZ 1004d418 f i libucrt:initmon.obj
 0001:0004c42a       ?detach@?$__crt_unique_heap_ptr@Ulconv@@U__crt_internal_free_policy@@@@QAEPAUlconv@@XZ 1004d42a f i libucrt:initmon.obj
 0001:0004c430       ?release@?$__crt_unique_heap_ptr@Ulconv@@U__crt_internal_free_policy@@@@QAEXXZ 1004d430 f i libucrt:initmon.obj
 0001:0004c442       ___acrt_locale_free_monetary 1004d442 f   libucrt:initmon.obj
 0001:0004c540       ___acrt_locale_initialize_monetary 1004d540 f   libucrt:initmon.obj
 0001:0004c92d       ___acrt_locale_free_numeric 1004d92d f   libucrt:initnum.obj
 0001:0004c996       ___acrt_locale_initialize_numeric 1004d996 f   libucrt:initnum.obj
 0001:0004cbde       ??$?RU__crt_lc_time_data@@@__crt_internal_free_policy@@QBEXQBU__crt_lc_time_data@@@Z 1004dbde f i libucrt:inittime.obj
 0001:0004cc62       ??0?$__crt_unique_heap_ptr@U__crt_lc_time_data@@U__crt_internal_free_policy@@@@QAE@QAU__crt_lc_time_data@@@Z 1004dc62 f i libucrt:inittime.obj
 0001:0004cc72       ??1?$__crt_unique_heap_ptr@U__crt_lc_time_data@@U__crt_internal_free_policy@@@@QAE@XZ 1004dc72 f i libucrt:inittime.obj
 0001:0004cc84       ??B?$__crt_unique_heap_ptr@U__crt_lc_time_data@@U__crt_internal_free_policy@@@@QBE_NXZ 1004dc84 f i libucrt:inittime.obj
 0001:0004cc8b       ?detach@?$__crt_unique_heap_ptr@U__crt_lc_time_data@@U__crt_internal_free_policy@@@@QAEPAU__crt_lc_time_data@@XZ 1004dc8b f i libucrt:inittime.obj
 0001:0004ccb6       ?get@?$__crt_unique_heap_ptr@U__crt_lc_time_data@@U__crt_internal_free_policy@@@@QBEPAU__crt_lc_time_data@@XZ 1004dcb6 f i libucrt:inittime.obj
 0001:0004cfa1       ?is_valid@?$__crt_unique_heap_ptr@U__crt_lc_time_data@@U__crt_internal_free_policy@@@@QBE_NXZ 1004dfa1 f i libucrt:inittime.obj
 0001:0004cfa8       ?release@?$__crt_unique_heap_ptr@U__crt_lc_time_data@@U__crt_internal_free_policy@@@@QAEXXZ 1004dfa8 f i libucrt:inittime.obj
 0001:0004cfba       ___acrt_locale_free_time   1004dfba f   libucrt:inittime.obj
 0001:0004d09e       ___acrt_locale_initialize_time 1004e09e f   libucrt:inittime.obj
 0001:0004d191       _wcscat_s                  1004e191 f   libucrt:wcscat_s.obj
 0001:0004d289       _wcsncat_s                 1004e289 f   libucrt:wcsncat_s.obj
 0001:0004d362       _wcsncpy_s                 1004e362 f   libucrt:wcsncpy_s.obj
 0001:0004d36d       _wcscspn                   1004e36d f   libucrt:wcscspn.obj
 0001:0004d3c6       _wcspbrk                   1004e3c6 f   libucrt:wcspbrk.obj
 0001:0004d414       ??0?$__crt_scoped_stack_ptr@_W@@QAE@U?$__crt_scoped_stack_ptr_tag@_W@@@Z 1004e414 f i libucrt:getstringtypea.obj
 0001:0004d424       ??0?$__crt_scoped_stack_ptr_tag@_W@@QAE@QA_W@Z 1004e424 f i libucrt:getstringtypea.obj
 0001:0004d434       ??1?$__crt_scoped_stack_ptr@_W@@QAE@XZ 1004e434 f i libucrt:getstringtypea.obj
 0001:0004d43d       ?get@?$__crt_scoped_stack_ptr@_W@@QBEPA_WXZ 1004e43d f i libucrt:getstringtypea.obj
 0001:0004d440       __MallocaComputeSize       1004e440 f i libucrt:getstringtypea.obj
 0001:0004d453       __MarkAllocaS              1004e453 f i libucrt:getstringtypea.obj
 0001:0004d469       ___acrt_GetStringTypeA     1004e469 f   libucrt:getstringtypea.obj
 0001:0004d572       __freea_crt                1004e572 f i libucrt:getstringtypea.obj
 0001:0004dcd4       ___acrt_get_qualified_locale 1004ecd4 f   libucrt:get_qualified_locale.obj
 0001:0004e656       ___acrt_get_qualified_locale_downlevel 1004f656 f   libucrt:getqloc_downlevel.obj
 0001:0004e84b       _localeconv                1004f84b f   libucrt:localeconv.obj
 0001:0004e873       ?value@?$dual_state_global@J@__crt_state_management@@QAEAAJXZ 1004f873 f i libucrt:new_mode.obj
 0001:0004e876       __query_new_mode           1004f876 f   libucrt:new_mode.obj
 0001:0004e87d       __set_new_mode             1004f87d f   libucrt:new_mode.obj
 0001:0004e8ac       ?dangerous_get_state_array@?$dual_state_global@H@__crt_state_management@@QAEPAHXZ 1004f8ac f i libucrt:txtmode.obj
 0001:0004e8af       ___acrt_initialize_fmode   1004f8af f   libucrt:txtmode.obj
 0001:0004e8c5       ___p__fmode                1004f8c5 f   libucrt:txtmode.obj
 0001:0004e952       ___acrt_DownlevelLCIDToLocaleName 1004f952 f   libucrt:lcidtoname_downlevel.obj
 0001:0004e9f5       ___acrt_DownlevelLocaleNameToLCID 1004f9f5 f   libucrt:lcidtoname_downlevel.obj
 0001:0004ea21       ?__c16rtomb_utf8@__crt_mbstring@@YAIPAD_SPAU_Mbstatet@@AAV__crt_cached_ptd_host@@@Z 1004fa21 f   libucrt:c16rtomb.obj
 0001:0004eb41       _c16rtomb                  1004fb41 f   libucrt:c16rtomb.obj
 0001:0004eb78       ?__c32rtomb_utf8@__crt_mbstring@@YAIPAD_UPAU_Mbstatet@@AAV__crt_cached_ptd_host@@@Z 1004fb78 f   libucrt:c32rtomb.obj
 0001:0004ec28       _c32rtomb                  1004fc28 f   libucrt:c32rtomb.obj
 0001:0004ecfe       ___acrt_fp_strflt_to_string 1004fcfe f   libucrt:_fptostr.obj
 0001:00050010       ??0big_integer@__crt_strtox@@QAE@ABU01@@Z 10051010 f i libucrt:cfout.obj
 0001:00050050       ??0big_integer@__crt_strtox@@QAE@XZ 10051050 f i libucrt:cfout.obj
 0001:00050090       ??4big_integer@__crt_strtox@@QAEAAU01@ABU01@@Z 10051090 f i libucrt:cfout.obj
 0001:000500d0       ??8__crt_strtox@@YA_NABUbig_integer@0@0@Z 100510d0 f i libucrt:cfout.obj
 0001:00050110       ??9__crt_strtox@@YA_NABUbig_integer@0@0@Z 10051110 f i libucrt:cfout.obj
 0001:00050150       ?add_carry@__crt_strtox@@YAIAAIII@Z 10051150 f i libucrt:cfout.obj
 0001:00050170       ?add_multiply_carry@__crt_strtox@@YAIAAIIII@Z 10051170 f i libucrt:cfout.obj
 0001:000501a0       ?bit_scan_reverse@__crt_strtox@@YAII@Z 100511a0 f i libucrt:cfout.obj
 0001:000501c0       ?count_sequential_high_zeroes@__crt_strtox@@YAII@Z 100511c0 f i libucrt:cfout.obj
 0001:000501e0       ?divide@__crt_strtox@@YA_KAAUbig_integer@1@ABU21@@Z 100511e0 f i libucrt:cfout.obj
 0001:00050670       ?is_zero@__crt_strtox@@YA_NABUbig_integer@1@@Z 10051670 f i libucrt:cfout.obj
 0001:00050680       ?make_big_integer@__crt_strtox@@YA?AUbig_integer@1@_K@Z 10051680 f i libucrt:cfout.obj
 0001:000506a0       ?make_big_integer_power_of_two@__crt_strtox@@YA?AUbig_integer@1@I@Z 100516a0 f i libucrt:cfout.obj
 0001:000506f0       ?multiply@__crt_strtox@@YA_NAAUbig_integer@1@ABU21@@Z 100516f0 f i libucrt:cfout.obj
 0001:00050a40       ?multiply@__crt_strtox@@YA_NAAUbig_integer@1@I@Z 10051a40 f i libucrt:cfout.obj
 0001:00050b10       ?multiply_64_32@__crt_strtox@@YA_K_KI@Z 10051b10 f i libucrt:cfout.obj
 0001:00050b30       ?multiply_by_power_of_ten@__crt_strtox@@YA_NAAUbig_integer@1@I@Z 10051b30 f i libucrt:cfout.obj
 0001:00051070       ?multiply_core@__crt_strtox@@YAIQAIII@Z 10052070 f i libucrt:cfout.obj
 0001:000510b0       ?shift_left@__crt_strtox@@YA_NAAUbig_integer@1@I@Z 100520b0 f i libucrt:cfout.obj
 0001:000511df       ___acrt_fltout             100521df f   libucrt:cfout.obj
 0001:00052799       ___fpe_flt_rounds          10053799 f   libucrt:fegetround.obj
 0001:000527cd       _fegetround                100537cd f   libucrt:fegetround.obj
 0001:000527da       __fcloseall                100537da f   libucrt:closeall.obj
 0001:00052885       ?__mbrtoc32_utf8@__crt_mbstring@@YAIPA_UPBDIPAU_Mbstatet@@AAV__crt_cached_ptd_host@@@Z 10053885 f   libucrt:mbrtoc32.obj
 0001:00052a43       _mbrtoc32                  10053a43 f   libucrt:mbrtoc32.obj
 0001:00052b2d       ___dcrt_lowio_ensure_console_output_initialized 10053b2d f   libucrt:initcon.obj
 0001:00052b4c       ___dcrt_terminate_console_output 10053b4c f   libucrt:initcon.obj
 0001:00052b63       ___dcrt_write_console      10053b63 f   libucrt:initcon.obj
 0001:00052bb8       ___ascii_wcsnicmp          10053bb8 f   libucrt:wcsnicmp.obj
 0001:00052c07       __towlower_fast_internal   10053c07 f i libucrt:wcsnicmp.obj
 0001:00052c32       __towlower_internal        10053c32 f i libucrt:wcsnicmp.obj
 0001:00052c71       __wcsnicmp                 10053c71 f   libucrt:wcsnicmp.obj
 0001:00052cbd       __wcsnicmp_l               10053cbd f   libucrt:wcsnicmp.obj
 0001:00052d90       __strnicmp                 10053d90 f   libucrt:strnicmp.obj
 0001:00052dfd       __strnicmp_l               10053dfd f   libucrt:strnicmp.obj
 0001:00052ec8       ___p__commode              10053ec8 f   libucrt:ncommode.obj
 0001:00053031       __commit                   10054031 f   libucrt:commit.obj
 0001:000530ae       ___acrt_stdio_allocate_buffer_nolock 100540ae f   libucrt:_getbuf.obj
 0001:000531d0       _qsort                     100541d0 f   libucrt:qsort.obj
 0001:000536c0       _strpbrk                   100546c0 f   libucrt:strpbrk.obj
 0001:00053700       __mbsdec                   10054700 f   libucrt:mbsdec.obj
 0001:00053717       __mbsdec_l                 10054717 f   libucrt:mbsdec.obj
 0001:000537a4       ??B?$__crt_scoped_stack_ptr@_W@@QBE_NXZ 100547a4 f i libucrt:lcmapstringa.obj
 0001:00053999       ___acrt_LCMapStringA       10054999 f   libucrt:lcmapstringa.obj
 0001:000539f1       __wcsnicoll                100549f1 f   libucrt:wcsnicol.obj
 0001:00053a5e       __wcsnicoll_l              10054a5e f   libucrt:wcsnicol.obj
 0001:00053b1e       __strnicoll                10054b1e f   libucrt:strnicol.obj
 0001:00053b47       __strnicoll_l              10054b47 f   libucrt:strnicol.obj
 0001:00053c0f       ___acrt_SetEnvironmentVariableA 10054c0f f   libucrt:setenvironmentvariablea.obj
 0001:00053ca4       __msize                    10054ca4 f   libucrt:msize.obj
 0001:00053caf       __msize_base               10054caf f   libucrt:msize.obj
 0001:00053ce2       __realloc_base             10054ce2 f   libucrt:realloc_base.obj
 0001:00053d4b       ___acrt_GetStringTypeW     10054d4b f   libucrt:getstringtypew.obj
 0001:00053d64       __set_error_mode           10054d64 f   libucrt:set_error_mode.obj
 0001:00053e9e       ??$message_box@$$TABQBDABQBDK@?$__crt_char_traits@D@@SAH$$QA$$TABQBD1$$QAK@Z 10054e9e f i libucrt:crtmbox.obj
 0001:00053ebe       ??$message_box@$$TABQB_WABQB_WK@?$__crt_char_traits@_W@@SAH$$QA$$TABQB_W1$$QAK@Z 10054ebe f i libucrt:crtmbox.obj
 0001:00053ede       ??$message_box@PAUHWND__@@ABQBDABQBDABI@?$__crt_char_traits@D@@SAH$$QAPAUHWND__@@ABQBD1ABI@Z 10054ede f i libucrt:crtmbox.obj
 0001:00053efe       ??$message_box@PAUHWND__@@ABQB_WABQB_WABI@?$__crt_char_traits@_W@@SAH$$QAPAUHWND__@@ABQB_W1ABI@Z 10054efe f i libucrt:crtmbox.obj
 0001:00053f1e       ??$output_debug_string@ABQBD@?$__crt_char_traits@D@@SAXABQBD@Z 10054f1e f i libucrt:crtmbox.obj
 0001:00053f2f       ??$output_debug_string@ABQB_W@?$__crt_char_traits@_W@@SAXABQB_W@Z 10054f2f f i libucrt:crtmbox.obj
 0001:00053f41       ___acrt_show_narrow_message_box 10054f41 f   libucrt:crtmbox.obj
 0001:00053f4c       ___acrt_show_wide_message_box 10054f4c f   libucrt:crtmbox.obj
 0001:0005403e       ___acrt_GetLocaleInfoA     1005503e f   libucrt:getlocaleinfoa.obj
 0001:000546ae       __i64toa                   100556ae f   libucrt:xtoa.obj
 0001:000546ef       __i64toa_s                 100556ef f   libucrt:xtoa.obj
 0001:0005472e       __i64tow                   1005572e f   libucrt:xtoa.obj
 0001:0005476f       __i64tow_s                 1005576f f   libucrt:xtoa.obj
 0001:000547ae       __itoa                     100557ae f   libucrt:xtoa.obj
 0001:000547e3       __itoa_s                   100557e3 f   libucrt:xtoa.obj
 0001:00054816       __itow                     10055816 f   libucrt:xtoa.obj
 0001:0005484b       __itow_s                   1005584b f   libucrt:xtoa.obj
 0001:0005487e       __ltoa                     1005587e f   libucrt:xtoa.obj
 0001:000548b3       __ltoa_s                   100558b3 f   libucrt:xtoa.obj
 0001:000548e6       __ltow                     100558e6 f   libucrt:xtoa.obj
 0001:0005491b       __ltow_s                   1005591b f   libucrt:xtoa.obj
 0001:0005494e       __ui64toa                  1005594e f   libucrt:xtoa.obj
 0001:00054970       __ui64toa_s                10055970 f   libucrt:xtoa.obj
 0001:00054990       __ui64tow                  10055990 f   libucrt:xtoa.obj
 0001:000549b2       __ui64tow_s                100559b2 f   libucrt:xtoa.obj
 0001:000549d2       __ultoa                    100559d2 f   libucrt:xtoa.obj
 0001:000549f1       __ultoa_s                  100559f1 f   libucrt:xtoa.obj
 0001:00054a0e       __ultow                    10055a0e f   libucrt:xtoa.obj
 0001:00054a2d       __ultow_s                  10055a2d f   libucrt:xtoa.obj
 0001:00054a4a       ___ascii_wcsicmp           10055a4a f   libucrt:wcsicmp.obj
 0001:00054a87       __wcsicmp                  10055a87 f   libucrt:wcsicmp.obj
 0001:00054ad0       __wcsicmp_l                10055ad0 f   libucrt:wcsicmp.obj
 0001:00054b88       ?reset_and_return@__crt_mbstring@@YAIIPAU_Mbstatet@@@Z 10055b88 f   libucrt:common_utf8.obj
 0001:00054b9c       ?return_illegal_sequence@__crt_mbstring@@YAIPAU_Mbstatet@@AAV__crt_cached_ptd_host@@@Z 10055b9c f   libucrt:common_utf8.obj
 0001:00054bbe       __controlfp_s              10055bbe f   libucrt:contrlfp.obj
 0001:00054c1d       _fegetenv                  10055c1d f   libucrt:fegetenv.obj
 0001:00054c3a       _fesetenv                  10055c3a f   libucrt:fesetenv.obj
 0001:00054c85       _feholdexcept              10055c85 f   libucrt:feholdexcept.obj
 0001:00054ce0       __CIlog10                  10055ce0 f   libucrt:log10_impl.obj
 0001:00054d1b       __CIlog10_default          10055d1b f   libucrt:log10_impl.obj
 0001:00054d2f       __log10_default            10055d2f     libucrt:log10_impl.obj
 0001:00054df0       _ceil                      10055df0 f   libucrt:ceil_pentium4.obj
 0001:00054e30       __ceil_pentium4            10055e30 f   libucrt:ceil_pentium4.obj
 0001:00054f0d       ??$__acrt_fenv_shift_bits@W4__acrt_fenv_abstract_control@@@@YA?AW4__acrt_fenv_abstract_control@@W40@0I@Z 10055f0d f i libucrt:_fenvutils.obj
 0001:00054f1f       ??$__acrt_fenv_shift_bits@W4__acrt_fenv_abstract_status@@@@YA?AW4__acrt_fenv_abstract_status@@W40@0I@Z 10055f1f f i libucrt:_fenvutils.obj
 0001:00054f31       ??$__acrt_fenv_translate_bit@W4__acrt_fenv_abstract_control@@W4__acrt_fenv_machine_sse_control@@@@YA?AW4__acrt_fenv_abstract_control@@W4__acrt_fenv_machine_sse_control@@0W40@1@Z 10055f31 f i libucrt:_fenvutils.obj
 0001:00054f49       ??$__acrt_fenv_translate_bit@W4__acrt_fenv_abstract_control@@W4__acrt_fenv_machine_x87_control@@@@YA?AW4__acrt_fenv_abstract_control@@W4__acrt_fenv_machine_x87_control@@0W40@1@Z 10055f49 f i libucrt:_fenvutils.obj
 0001:00054f61       ??$__acrt_fenv_translate_bit@W4__acrt_fenv_abstract_status@@W4__acrt_fenv_machine_sse_status@@@@YA?AW4__acrt_fenv_abstract_status@@W4__acrt_fenv_machine_sse_status@@0W40@1@Z 10055f61 f i libucrt:_fenvutils.obj
 0001:00054f76       ??$__acrt_fenv_translate_bit@W4__acrt_fenv_abstract_status@@W4__acrt_fenv_machine_x87_status@@@@YA?AW4__acrt_fenv_abstract_status@@W4__acrt_fenv_machine_x87_status@@0W40@1@Z 10055f76 f i libucrt:_fenvutils.obj
 0001:00054f8b       ??$__acrt_fenv_translate_bit@W4__acrt_fenv_machine_sse_control@@W4__acrt_fenv_abstract_control@@@@YA?AW4__acrt_fenv_machine_sse_control@@W4__acrt_fenv_abstract_control@@0W40@1@Z 10055f8b f i libucrt:_fenvutils.obj
 0001:00054fa2       ??$__acrt_fenv_translate_bit@W4__acrt_fenv_machine_sse_status@@W4__acrt_fenv_abstract_status@@@@YA?AW4__acrt_fenv_machine_sse_status@@W4__acrt_fenv_abstract_status@@0W40@1@Z 10055fa2 f i libucrt:_fenvutils.obj
 0001:00054fb7       ??$__acrt_fenv_translate_bit@W4__acrt_fenv_machine_x87_control@@W4__acrt_fenv_abstract_control@@@@YA?AW4__acrt_fenv_machine_x87_control@@W4__acrt_fenv_abstract_control@@0W40@1@Z 10055fb7 f i libucrt:_fenvutils.obj
 0001:00054fce       ??$__acrt_fenv_translate_bit@W4__acrt_fenv_machine_x87_status@@W4__acrt_fenv_abstract_status@@@@YA?AW4__acrt_fenv_machine_x87_status@@W4__acrt_fenv_abstract_status@@0W40@1@Z 10055fce f i libucrt:_fenvutils.obj
 0001:00054fe3       ??$__acrt_fenv_unshift_bits@W4__acrt_fenv_abstract_control@@@@YA?AW4__acrt_fenv_abstract_control@@W40@0I@Z 10055fe3 f i libucrt:_fenvutils.obj
 0001:00054ff5       ??$__acrt_fenv_unshift_bits@W4__acrt_fenv_abstract_status@@@@YA?AW4__acrt_fenv_abstract_status@@W40@0I@Z 10055ff5 f i libucrt:_fenvutils.obj
 0001:000553f2       ??I@YA?AW4__acrt_fenv_abstract_control@@W40@0@Z 100563f2 f i libucrt:_fenvutils.obj
 0001:000553ff       ??I@YA?AW4__acrt_fenv_abstract_status@@W40@0@Z 100563ff f i libucrt:_fenvutils.obj
 0001:0005540c       ??I@YA?AW4__acrt_fenv_machine_sse_control@@W40@0@Z 1005640c f i libucrt:_fenvutils.obj
 0001:00055419       ??I@YA?AW4__acrt_fenv_machine_sse_status@@W40@0@Z 10056419 f i libucrt:_fenvutils.obj
 0001:00055426       ??I@YA?AW4__acrt_fenv_machine_x87_control@@W40@0@Z 10056426 f i libucrt:_fenvutils.obj
 0001:00055433       ??I@YA?AW4__acrt_fenv_machine_x87_status@@W40@0@Z 10056433 f i libucrt:_fenvutils.obj
 0001:00055440       ??U@YA?AW4__acrt_fenv_abstract_control@@W40@0@Z 10056440 f i libucrt:_fenvutils.obj
 0001:0005544d       ??U@YA?AW4__acrt_fenv_abstract_status@@W40@0@Z 1005644d f i libucrt:_fenvutils.obj
 0001:0005545a       ??U@YA?AW4__acrt_fenv_machine_sse_control@@W40@0@Z 1005645a f i libucrt:_fenvutils.obj
 0001:00055467       ??U@YA?AW4__acrt_fenv_machine_x87_control@@W40@0@Z 10056467 f i libucrt:_fenvutils.obj
 0001:00055474       ??_5@YAAAW4__acrt_fenv_abstract_control@@AAW40@W40@@Z 10056474 f i libucrt:_fenvutils.obj
 0001:00055483       ??_5@YAAAW4__acrt_fenv_abstract_status@@AAW40@W40@@Z 10056483 f i libucrt:_fenvutils.obj
 0001:00055492       ??_5@YAAAW4__acrt_fenv_machine_sse_control@@AAW40@W40@@Z 10056492 f i libucrt:_fenvutils.obj
 0001:000554a3       ??_5@YAAAW4__acrt_fenv_machine_sse_status@@AAW40@W40@@Z 100564a3 f i libucrt:_fenvutils.obj
 0001:000554b2       ??_5@YAAAW4__acrt_fenv_machine_x87_control@@AAW40@W40@@Z 100564b2 f i libucrt:_fenvutils.obj
 0001:000554c3       ??_5@YAAAW4__acrt_fenv_machine_x87_status@@AAW40@W40@@Z 100564c3 f i libucrt:_fenvutils.obj
 0001:000554d2       ?__acrt_fenv_shift_abstract_sse_control@@YA?AW4__acrt_fenv_abstract_control@@W41@@Z 100564d2 f i libucrt:_fenvutils.obj
 0001:000554ef       ?__acrt_fenv_shift_abstract_sse_status@@YA?AW4__acrt_fenv_abstract_status@@W41@@Z 100564ef f i libucrt:_fenvutils.obj
 0001:000554ff       ?__acrt_fenv_shift_abstract_x87_control@@YA?AW4__acrt_fenv_abstract_control@@W41@@Z 100564ff f i libucrt:_fenvutils.obj
 0001:0005551c       ?__acrt_fenv_shift_abstract_x87_status@@YA?AW4__acrt_fenv_abstract_status@@W41@@Z 1005651c f i libucrt:_fenvutils.obj
 0001:0005552c       ?__acrt_fenv_unshift_abstract_sse_control@@YA?AW4__acrt_fenv_abstract_control@@W41@@Z 1005652c f i libucrt:_fenvutils.obj
 0001:0005554b       ?__acrt_fenv_unshift_abstract_sse_status@@YA?AW4__acrt_fenv_abstract_status@@W41@@Z 1005654b f i libucrt:_fenvutils.obj
 0001:0005555b       ?__acrt_fenv_unshift_abstract_x87_control@@YA?AW4__acrt_fenv_abstract_control@@W41@@Z 1005655b f i libucrt:_fenvutils.obj
 0001:0005557a       ?__acrt_fenv_unshift_abstract_x87_status@@YA?AW4__acrt_fenv_abstract_status@@W41@@Z 1005657a f i libucrt:_fenvutils.obj
 0001:00055a8d       ___acrt_fenv_expand_round_control 10056a8d f   libucrt:_fenvutils.obj
 0001:00055ac3       ___acrt_fenv_get_common_round_control 10056ac3 f   libucrt:_fenvutils.obj
 0001:00055ae5       ___acrt_fenv_get_control   10056ae5 f   libucrt:_fenvutils.obj
 0001:00055b65       ___acrt_fenv_get_fp_status_word_from_exception_mask 10056b65 f   libucrt:_fenvutils.obj
 0001:00055b7f       ___acrt_fenv_get_status    10056b7f f   libucrt:_fenvutils.obj
 0001:00055c29       ___acrt_fenv_set_control   10056c29 f   libucrt:_fenvutils.obj
 0001:00055ca4       ___acrt_fenv_set_status    10056ca4 f   libucrt:_fenvutils.obj
 0001:00055d9e       __towlower_l               10056d9e f   libucrt:towlower.obj
 0001:00055e77       _towlower                  10056e77 f   libucrt:towlower.obj
 0001:00055e90       ___ascii_strnicmp          10056e90 f   libucrt:_strnicm.obj
 0001:00055ef1       ___strncnt                 10056ef1 f   libucrt:strncnt.obj
 0001:00055f0d       ___acrt_CompareStringW     10056f0d f   libucrt:comparestringw.obj
 0001:00056211       ___acrt_CompareStringA     10057211 f   libucrt:comparestringa.obj
 0001:00056257       ___acrt_OutputDebugStringA@4 10057257 f   libucrt:outputdebugstringa.obj
 0001:00056409       ___control87_2             10057409 f   libucrt:ieee87.obj
 0001:000568a1       ___fpreset_sse2            100578a1 f   libucrt:ieee87.obj
 0001:00056a77       __clearfp                  10057a77 f   libucrt:ieee87.obj
 0001:00056b55       __control87                10057b55 f   libucrt:ieee87.obj
 0001:00056e56       __controlfp                10057e56 f   libucrt:ieee87.obj
 0001:00056e70       __fpreset                  10057e70 f   libucrt:ieee87.obj
 0001:00056f46       __set_controlfp            10057f46 f   libucrt:ieee87.obj
 0001:00056fb9       __statusfp                 10057fb9 f   libucrt:ieee87.obj
 0001:00057054       __statusfp2                10058054 f   libucrt:ieee87.obj
 0001:000570b7       ___acrt_initialize_sse2    100580b7 f   libucrt:mathfcns.obj
 0001:000570c7       __set_SSE2_enable          100580c7 f   libucrt:mathfcns.obj
 0001:000570f0       __CIlog10_pentium4         100580f0 f   libucrt:log10_pentium4.obj
 0001:00057108       __log10_pentium4           10058108     libucrt:log10_pentium4.obj
 0001:000573a0       __fFEXP                    100583a0 f   libucrt:87tran.obj
 0001:000573f7       __rtinfpopse               100583f7     libucrt:87tran.obj
 0001:000573f9       __rtinfnpopse              100583f9     libucrt:87tran.obj
 0001:00057409       __fFLN                     10058409     libucrt:87tran.obj
 0001:000574be       __rtinfpop                 100584be     libucrt:87tran.obj
 0001:000574c0       __rtinfnpop                100584c0     libucrt:87tran.obj
 0001:000574d0       __rtforexpinf              100584d0 f   libucrt:87tran.obj
 0001:000574dd       __ffexpm1                  100584dd     libucrt:87tran.obj
 0001:00057590       __trandisp1                10058590 f   libucrt:87disp.obj
 0001:00057605       __trandisp2                10058605 f   libucrt:87disp.obj
 0001:0005769f       __rttospopde               1005869f     libucrt:87disp.obj
 0001:000576a4       __rttospop                 100586a4     libucrt:87disp.obj
 0001:000576b0       __rtnospop                 100586b0 f   libucrt:87disp.obj
 0001:000576c0       __rttosnpop                100586c0 f   libucrt:87disp.obj
 0001:000576c1       __rtnospopde               100586c1     libucrt:87disp.obj
 0001:000576c8       __rtzeropop                100586c8     libucrt:87disp.obj
 0001:000576ca       __rtzeronpop               100586ca     libucrt:87disp.obj
 0001:000576d0       __rtzerospop               100586d0 f   libucrt:87disp.obj
 0001:000576dd       __rtonepop                 100586dd     libucrt:87disp.obj
 0001:000576e0       __rtonenpop                100586e0 f   libucrt:87disp.obj
 0001:000576f0       __tosnan1                  100586f0 f   libucrt:87disp.obj
 0001:00057720       __nosnan2                  10058720 f   libucrt:87disp.obj
 0001:00057730       __tosnan2                  10058730 f   libucrt:87disp.obj
 0001:00057760       __nan2                     10058760 f   libucrt:87disp.obj
 0001:000577a0       __rtindfpop                100587a0 f   libucrt:87disp.obj
 0001:000577a2       __rtindfnpop               100587a2     libucrt:87disp.obj
 0001:000577b3       __rttosnpopde              100587b3     libucrt:87disp.obj
 0001:000577c0       __rtatan2inf               100587c0 f   libucrt:87disp.obj
 0001:000577dd       __rtchsifneg               100587dd     libucrt:87disp.obj
 0001:000577e4       ___setfflag                100587e4 f   libucrt:fp_flags.obj
 0001:00057800       __twoToTOS                 10058800 f   libucrt:common.obj
 0001:00057815       __load_CW                  10058815 f   libucrt:common.obj
 0001:0005782c       __convertTOStoQNaN         1005882c f   libucrt:common.obj
 0001:00057845       __fload_withFB             10058845 f   libucrt:common.obj
 0001:00057888       __checkTOS_withFB          10058888 f   libucrt:common.obj
 0001:0005789e       __fast_exit                1005889e f   libucrt:common.obj
 0001:000578ab       __math_exit                100588ab f   libucrt:common.obj
 0001:000578d5       __check_overflow_exit      100588d5 f   libucrt:common.obj
 0001:000578e9       __check_range_exit         100588e9 f   libucrt:common.obj
 0001:00057990       __startTwoArgErrorHandling 10058990 f   libucrt:genexcep.obj
 0001:000579a7       __startOneArgErrorHandling 100589a7 f   libucrt:genexcep.obj
 0001:000579e3       ___libm_error_support      100589e3 f   libucrt:libm_error.obj
 0001:00057bd7       ___libm_setusermatherr     10058bd7 f   libucrt:libm_error.obj
 0001:00057bfe       __ceil_default             10058bfe f   libucrt:ceil.obj
 0001:00057cb3       ___acrt_LCMapStringW       10058cb3 f   libucrt:lcmapstringw.obj
 0001:00057cf1       ___clrfp_sse2              10058cf1 f   libucrt:fpctrl.obj
 0001:00057d23       ___ctrlfp_sse2             10058d23 f   libucrt:fpctrl.obj
 0001:00057d5e       ___fclrf_sse2              10058d5e f   libucrt:fpctrl.obj
 0001:00057d7b       ___get_fpsr_sse2           10058d7b f   libucrt:fpctrl.obj
 0001:00057d97       ___set_fpsr_sse2           10058d97 f   libucrt:fpctrl.obj
 0001:00057e17       ___set_statfp_sse2         10058e17 f   libucrt:fpctrl.obj
 0001:00057e32       ___statfp_sse2             10058e32 f   libucrt:fpctrl.obj
 0001:00057e47       __clrfp                    10058e47 f   libucrt:fpctrl.obj
 0001:00057e58       __ctrlfp                   10058e58 f   libucrt:fpctrl.obj
 0001:00057e82       __set_statfp               10058e82 f   libucrt:fpctrl.obj
 0001:00057edb       __statfp                   10058edb f   libucrt:fpctrl.obj
 0001:00057eeb       __d_inttype                10058eeb f   libucrt:powhlp.obj
 0001:00057f53       __powhlp                   10058f53 f   libucrt:powhlp.obj
 0001:0005807e       __87except                 1005907e f   libucrt:87except.obj
 0001:00058188       __frnd                     10059188 f   libucrt:frnd.obj
 0001:0005819c       ?should_round_up@__crt_strtox@@YA_N_N000@Z 1005919c f i libucrt:fpexcept.obj
 0001:000581e9       __errcode                  100591e9 f   libucrt:fpexcept.obj
 0001:0005821d       __except1                  1005921d f   libucrt:fpexcept.obj
 0001:000582eb       __except2                  100592eb f   libucrt:fpexcept.obj
 0001:000583f3       __handle_exc               100593f3 f   libucrt:fpexcept.obj
 0001:0005866c       __handle_qnan2             1005966c f   libucrt:fpexcept.obj
 0001:00058679       __raise_exc                10059679 f   libucrt:fpexcept.obj
 0001:0005869c       __raise_exc_ex             1005969c f   libucrt:fpexcept.obj
 0001:00058992       __raise_excf               10059992 f   libucrt:fpexcept.obj
 0001:000589b5       __set_errno_from_matherr   100599b5 f   libucrt:fpexcept.obj
 0001:000589e4       __umatherr                 100599e4 f   libucrt:fpexcept.obj
 0001:00058a84       __add_exp                  10059a84 f   libucrt:util.obj
 0001:00058ab3       __decomp                   10059ab3 f   libucrt:util.obj
 0001:00058b85       __get_exp                  10059b85 f   libucrt:util.obj
 0001:00058b9d       __set_bexp                 10059b9d f   libucrt:util.obj
 0001:00058bc4       __set_exp                  10059bc4 f   libucrt:util.obj
 0001:00058bf1       __sptype                   10059bf1 f   libucrt:util.obj
 0001:00058c4f       __chgsign                  10059c4f f   libucrt:ieeemisc.obj
 0001:00058c77       __chgsignf                 10059c77 f   libucrt:ieeemisc.obj
 0001:00058c98       __copysign                 10059c98 f   libucrt:ieeemisc.obj
 0001:00058cbb       __copysignf                10059cbb f   libucrt:ieeemisc.obj
 0001:00058cd7       __finite                   10059cd7 f   libucrt:ieeemisc.obj
 0001:00058cf1       __fpclass                  10059cf1 f   libucrt:ieeemisc.obj
 0001:00058d95       __isnan                    10059d95 f   libucrt:ieeemisc.obj
 0001:00058dcb       __logb                     10059dcb f   libucrt:ieeemisc.obj
 0001:00058e9a       __nextafter                10059e9a f   libucrt:ieeemisc.obj
 0001:00058eb9       __scalb                    10059eb9 f   libucrt:ieeemisc.obj
 0001:00058ed3       _ldexp                     10059ed3 f   libucrt:ldexp.obj
 0001:000590c5       _nextafter                 1005a0c5 f   libucrt:nextafter.obj
 0001:000590e4       _nexttoward                1005a0e4 f   libucrt:nexttoward.obj
 0001:000592cf       __d_int                    1005a2cf f   libucrt:_test.obj
 0001:000593d5       __dtest                    1005a3d5 f   libucrt:_test.obj
 0001:00059439       __fd_int                   1005a439 f   libucrt:_test.obj
 0001:00059506       __fdtest                   1005a506 f   libucrt:_test.obj
 0001:00059554       __fperrraise               1005a554 f   libucrt:_test.obj
 0001:00059575       __ld_int                   1005a575 f   libucrt:_test.obj
 0001:00059580       __ldtest                   1005a580 f   libucrt:_test.obj
 0001:0005958b       __dclass                   1005a58b f   libucrt:nan.obj
 0001:0005959c       __dpcomp                   1005a59c f   libucrt:nan.obj
 0001:000595f2       __dsign                    1005a5f2 f   libucrt:nan.obj
 0001:00059602       _nan                       1005a602 f   libucrt:nan.obj
 0001:00059609       __ldclass                  1005a609 f   libucrt:nanl.obj
 0001:0005961a       __ldpcomp                  1005a61a f   libucrt:nanl.obj
 0001:00059670       __ldsign                   1005a670 f   libucrt:nanl.obj
 0001:00059680       _nanl                      1005a680 f   libucrt:nanl.obj
 0001:00059687       ??_4@YAAAW4__acrt_fenv_abstract_status@@AAW40@W40@@Z 1005a687 f i libucrt:fegetexceptflag.obj
 0001:00059696       _fegetexceptflag           1005a696 f   libucrt:fegetexceptflag.obj
 0001:000596c7       ??S@YA?AW4__acrt_fenv_abstract_status@@W40@@Z 1005a6c7 f i libucrt:fesetexceptflag.obj
 0001:000596d3       _fesetexceptflag           1005a6d3 f   libucrt:fesetexceptflag.obj
 0001:00059733       _fetestexcept              1005a733 f   libucrt:fetestexcept.obj
 0001:00059753       _QueryPerformanceCounter@4 1005a753 f   kernel32:KERNEL32.dll
 0001:00059759       _GetCurrentProcessId@0     1005a759 f   kernel32:KERNEL32.dll
 0001:0005975f       _GetCurrentThreadId@0      1005a75f f   kernel32:KERNEL32.dll
 0001:00059765       _GetSystemTimeAsFileTime@4 1005a765 f   kernel32:KERNEL32.dll
 0001:0005976b       _InitializeSListHead@4     1005a76b f   kernel32:KERNEL32.dll
 0001:00059771       _IsDebuggerPresent@0       1005a771 f   kernel32:KERNEL32.dll
 0001:00059777       _UnhandledExceptionFilter@4 1005a777 f   kernel32:KERNEL32.dll
 0001:0005977d       _SetUnhandledExceptionFilter@4 1005a77d f   kernel32:KERNEL32.dll
 0001:00059783       _GetStartupInfoW@4         1005a783 f   kernel32:KERNEL32.dll
 0001:00059789       _IsProcessorFeaturePresent@4 1005a789 f   kernel32:KERNEL32.dll
 0001:0005978f       _GetModuleHandleW@4        1005a78f f   kernel32:KERNEL32.dll
 0001:00059795       _GetCurrentProcess@0       1005a795 f   kernel32:KERNEL32.dll
 0001:0005979b       _TerminateProcess@8        1005a79b f   kernel32:KERNEL32.dll
 0001:000597a1       _InterlockedPushEntrySList@8 1005a7a1 f   kernel32:KERNEL32.dll
 0001:000597a7       _InterlockedFlushSList@4   1005a7a7 f   kernel32:KERNEL32.dll
 0001:000597ad       _RtlUnwind@16              1005a7ad f   kernel32:KERNEL32.dll
 0001:000597b3       _SetLastError@4            1005a7b3 f   kernel32:KERNEL32.dll
 0001:000597b9       _EnterCriticalSection@4    1005a7b9 f   kernel32:KERNEL32.dll
 0001:000597bf       _LeaveCriticalSection@4    1005a7bf f   kernel32:KERNEL32.dll
 0001:000597c5       _DeleteCriticalSection@4   1005a7c5 f   kernel32:KERNEL32.dll
 0001:000597cb       _InitializeCriticalSectionAndSpinCount@8 1005a7cb f   kernel32:KERNEL32.dll
 0001:000597d1       _TlsAlloc@0                1005a7d1 f   kernel32:KERNEL32.dll
 0001:000597d7       _TlsGetValue@4             1005a7d7 f   kernel32:KERNEL32.dll
 0001:000597dd       _TlsSetValue@8             1005a7dd f   kernel32:KERNEL32.dll
 0001:000597e3       _TlsFree@4                 1005a7e3 f   kernel32:KERNEL32.dll
 0001:000597e9       _FreeLibrary@4             1005a7e9 f   kernel32:KERNEL32.dll
 0001:000597ef       _GetProcAddress@8          1005a7ef f   kernel32:KERNEL32.dll
 0001:000597f5       _LoadLibraryExW@12         1005a7f5 f   kernel32:KERNEL32.dll
 0001:000597fb       _EncodePointer@4           1005a7fb f   kernel32:KERNEL32.dll
 0001:00059801       _RaiseException@16         1005a801 f   kernel32:KERNEL32.dll
 0001:00059807       _SetFilePointerEx@20       1005a807 f   kernel32:KERNEL32.dll
 0001:0005980d       _GetFileType@4             1005a80d f   kernel32:KERNEL32.dll
 0001:00059813       _GetConsoleMode@8          1005a813 f   kernel32:KERNEL32.dll
 0001:00059819       _ReadConsoleW@20           1005a819 f   kernel32:KERNEL32.dll
 0001:0005981f       _GetConsoleOutputCP@0      1005a81f f   kernel32:KERNEL32.dll
 0001:00059825       _ExitProcess@4             1005a825 f   kernel32:KERNEL32.dll
 0001:0005982b       _GetModuleHandleExW@12     1005a82b f   kernel32:KERNEL32.dll
 0001:00059831       _GetModuleFileNameW@12     1005a831 f   kernel32:KERNEL32.dll
 0001:00059837       _SetStdHandle@8            1005a837 f   kernel32:KERNEL32.dll
 0001:0005983d       _GetCurrentThread@0        1005a83d f   kernel32:KERNEL32.dll
 0001:00059843       _GetStdHandle@4            1005a843 f   kernel32:KERNEL32.dll
 0001:00059849       _HeapFree@12               1005a849 f   kernel32:KERNEL32.dll
 0001:0005984f       _HeapAlloc@12              1005a84f f   kernel32:KERNEL32.dll
 0001:00059855       _MultiByteToWideChar@24    1005a855 f   kernel32:KERNEL32.dll
 0001:0005985b       _GetDateFormatW@24         1005a85b f   kernel32:KERNEL32.dll
 0001:00059861       _GetTimeFormatW@24         1005a861 f   kernel32:KERNEL32.dll
 0001:00059867       _CompareStringW@24         1005a867 f   kernel32:KERNEL32.dll
 0001:0005986d       _LCMapStringW@24           1005a86d f   kernel32:KERNEL32.dll
 0001:00059873       _GetLocaleInfoW@16         1005a873 f   kernel32:KERNEL32.dll
 0001:00059879       _IsValidLocale@8           1005a879 f   kernel32:KERNEL32.dll
 0001:0005987f       _GetUserDefaultLCID@0      1005a87f f   kernel32:KERNEL32.dll
 0001:00059885       _EnumSystemLocalesW@8      1005a885 f   kernel32:KERNEL32.dll
 0001:0005988b       _SetEndOfFile@4            1005a88b f   kernel32:KERNEL32.dll
 0001:00059891       _WideCharToMultiByte@32    1005a891 f   kernel32:KERNEL32.dll
 0001:00059897       _GetFileSizeEx@8           1005a897 f   kernel32:KERNEL32.dll
 0001:0005989d       _FindClose@4               1005a89d f   kernel32:KERNEL32.dll
 0001:000598a3       _FindFirstFileExW@24       1005a8a3 f   kernel32:KERNEL32.dll
 0001:000598a9       _FindNextFileW@8           1005a8a9 f   kernel32:KERNEL32.dll
 0001:000598af       _IsValidCodePage@4         1005a8af f   kernel32:KERNEL32.dll
 0001:000598b5       _GetACP@0                  1005a8b5 f   kernel32:KERNEL32.dll
 0001:000598bb       _GetOEMCP@0                1005a8bb f   kernel32:KERNEL32.dll
 0001:000598c1       _GetCPInfo@8               1005a8c1 f   kernel32:KERNEL32.dll
 0001:000598c7       _GetCommandLineA@0         1005a8c7 f   kernel32:KERNEL32.dll
 0001:000598cd       _GetCommandLineW@0         1005a8cd f   kernel32:KERNEL32.dll
 0001:000598d3       _GetEnvironmentStringsW@0  1005a8d3 f   kernel32:KERNEL32.dll
 0001:000598d9       _FreeEnvironmentStringsW@4 1005a8d9 f   kernel32:KERNEL32.dll
 0001:000598df       _SetEnvironmentVariableW@8 1005a8df f   kernel32:KERNEL32.dll
 0001:000598e5       _GetProcessHeap@0          1005a8e5 f   kernel32:KERNEL32.dll
 0001:000598eb       _SetConsoleCtrlHandler@8   1005a8eb f   kernel32:KERNEL32.dll
 0001:000598f1       _GetStringTypeW@16         1005a8f1 f   kernel32:KERNEL32.dll
 0001:000598f7       _WriteConsoleW@20          1005a8f7 f   kernel32:KERNEL32.dll
 0001:000598fd       _FlushFileBuffers@4        1005a8fd f   kernel32:KERNEL32.dll
 0001:00059903       _HeapSize@12               1005a903 f   kernel32:KERNEL32.dll
 0001:00059909       _HeapReAlloc@16            1005a909 f   kernel32:KERNEL32.dll
 0001:0005990f       _OutputDebugStringW@4      1005a90f f   kernel32:KERNEL32.dll
 0001:00059915       _DecodePointer@4           1005a915 f   kernel32:KERNEL32.dll
 0001:00059920       __FindPESection            1005a920 f   LIBCMT:pesect.obj
 0001:00059970       __IsNonwritableInCurrentImage 1005a970 f   LIBCMT:pesect.obj
 0001:00059a30       __ValidateImageBase        1005aa30 f   LIBCMT:pesect.obj
 0001:00059a61       ??1type_info@@UAE@XZ       1005aa61 f   LIBCMT:std_type_info_static.obj
 0001:00059a68       ??_Etype_info@@UAEPAXI@Z   1005aa68 f i LIBCMT:std_type_info_static.obj
 0001:00059a68       ??_Gtype_info@@UAEPAXI@Z   1005aa68 f i LIBCMT:std_type_info_static.obj
 0001:00059a8b       __EH_epilog3               1005aa8b f   LIBCMT:ehprolg3.obj
 0001:00059a9f       __EH_epilog3_GS            1005aa9f f   LIBCMT:ehprolg3.obj
 0001:00059aae       __EH_epilog3_catch_GS      1005aaae f   LIBCMT:ehprolg3.obj
 0001:00059abd       __EH_prolog3               1005aabd f   LIBCMT:ehprolg3.obj
 0001:00059af0       __EH_prolog3_GS            1005aaf0 f   LIBCMT:ehprolg3.obj
 0001:00059b26       __EH_prolog3_catch         1005ab26 f   LIBCMT:ehprolg3.obj
 0001:00059b5c       __EH_prolog3_catch_GS      1005ab5c f   LIBCMT:ehprolg3.obj
 0001:00059ba0       __aulldvrm                 1005aba0 f   LIBCMT:ulldvrm.obj
 0001:00059c35       ??3@YAXPAXI@Z              1005ac35 f   LIBCMT:delete_scalar_size.obj
 0001:00059c43       __except_handler4_noexcept 1005ac43 f   LIBCMT:chandler4_noexcept.obj
 0001:00059c90       __alloca_probe             1005ac90 f   LIBCMT:chkstk.obj
 0001:00059c90       __chkstk                   1005ac90 f   LIBCMT:chkstk.obj
 0001:00059cc0       __alldiv                   1005acc0 f   LIBCMT:lldiv.obj
 0001:00059d70       __alldvrm                  1005ad70 f   LIBCMT:lldvrm.obj
 0001:00059e50       __allrem                   1005ae50 f   LIBCMT:llrem.obj
 0001:00059f10       __allmul                   1005af10 f   LIBCMT:llmul.obj
 0001:00059f50       __aulldiv                  1005af50 f   LIBCMT:ulldiv.obj
 0001:00059fc0       __allshl                   1005afc0 f   LIBCMT:llshl.obj
 0001:00059fe0       __aullshr                  1005afe0 f   LIBCMT:ullshr.obj
 0001:0005a000       __alloca_probe_16          1005b000 f   LIBCMT:alloca16.obj
 0001:0005a016       __alloca_probe_8           1005b016     LIBCMT:alloca16.obj
 0001:0005a030       __ftol2_sse_excpt          1005b030 f   LIBCMT:ftol2.obj
 0001:0005a040       __ftol2_sse                1005b040 f   LIBCMT:ftol2.obj
 0001:0005a050       __ftoi2                    1005b050 f   LIBCMT:ftol2.obj
 0001:0005a0d0       __ftoui2                   1005b0d0 f   LIBCMT:ftol2.obj
 0001:0005a180       __ftol2                    1005b180 f   LIBCMT:ftol2.obj
 0001:0005a230       __ftoul2                   1005b230 f   LIBCMT:ftol2.obj
 0001:0005a2f0       __ftoul2_legacy            1005b2f0 f   LIBCMT:ftol2.obj
 0001:0005a306       __initialize_default_precision 1005b306 f   LIBCMT:default_precision.obj
 0001:0005a327       ??3@YAXPAX@Z               1005b327 f   LIBCMT:delete_scalar.obj
 0001:0005a449       _memcmp                    1005b449 f   libvcruntime:memcmp.obj
 0001:0005d0b0       _strrchr                   1005e0b0 f   libvcruntime:strrchr.obj
 0001:0005d1f0       _strchr                    1005e1f0 f   libvcruntime:strchr.obj
 0001:0005d25e       ___from_strstr_to_strchr   1005e25e     libvcruntime:strchr.obj
 0001:0005d31b       _wcschr                    1005e31b f   libvcruntime:wcschr.obj
 0001:0005d3cb       __filter_x86_sse2_floating_point_exception 1005e3cb f   LIBCMT:x86_exception_filter.obj
 0001:0005d3cb       __filter_x86_sse2_floating_point_exception_default 1005e3cb f   LIBCMT:x86_exception_filter.obj
 0001:0005d450       _memchr                    1005e450 f   libvcruntime:memchr.obj
 0002:00000000       __imp__ReadFile@20         1005f000     kernel32:KERNEL32.dll
 0002:00000004       __imp__WriteFile@20        1005f004     kernel32:KERNEL32.dll
 0002:00000008       __imp__SetFilePointer@16   1005f008     kernel32:KERNEL32.dll
 0002:0000000c       __imp__CreateFileW@28      1005f00c     kernel32:KERNEL32.dll
 0002:00000010       __imp__GetLastError@0      1005f010     kernel32:KERNEL32.dll
 0002:00000014       __imp__CreateFileA@28      1005f014     kernel32:KERNEL32.dll
 0002:00000018       __imp__CloseHandle@4       1005f018     kernel32:KERNEL32.dll
 0002:0000001c       __imp__OutputDebugStringW@4 1005f01c     kernel32:KERNEL32.dll
 0002:00000020       __imp__QueryPerformanceCounter@4 1005f020     kernel32:KERNEL32.dll
 0002:00000024       __imp__GetCurrentProcessId@0 1005f024     kernel32:KERNEL32.dll
 0002:00000028       __imp__GetCurrentThreadId@0 1005f028     kernel32:KERNEL32.dll
 0002:0000002c       __imp__GetSystemTimeAsFileTime@4 1005f02c     kernel32:KERNEL32.dll
 0002:00000030       __imp__InitializeSListHead@4 1005f030     kernel32:KERNEL32.dll
 0002:00000034       __imp__IsDebuggerPresent@0 1005f034     kernel32:KERNEL32.dll
 0002:00000038       __imp__UnhandledExceptionFilter@4 1005f038     kernel32:KERNEL32.dll
 0002:0000003c       __imp__SetUnhandledExceptionFilter@4 1005f03c     kernel32:KERNEL32.dll
 0002:00000040       __imp__GetStartupInfoW@4   1005f040     kernel32:KERNEL32.dll
 0002:00000044       __imp__IsProcessorFeaturePresent@4 1005f044     kernel32:KERNEL32.dll
 0002:00000048       __imp__GetModuleHandleW@4  1005f048     kernel32:KERNEL32.dll
 0002:0000004c       __imp__GetCurrentProcess@0 1005f04c     kernel32:KERNEL32.dll
 0002:00000050       __imp__TerminateProcess@8  1005f050     kernel32:KERNEL32.dll
 0002:00000054       __imp__InterlockedPushEntrySList@8 1005f054     kernel32:KERNEL32.dll
 0002:00000058       __imp__InterlockedFlushSList@4 1005f058     kernel32:KERNEL32.dll
 0002:0000005c       __imp__RtlUnwind@16        1005f05c     kernel32:KERNEL32.dll
 0002:00000060       __imp__SetLastError@4      1005f060     kernel32:KERNEL32.dll
 0002:00000064       __imp__EnterCriticalSection@4 1005f064     kernel32:KERNEL32.dll
 0002:00000068       __imp__LeaveCriticalSection@4 1005f068     kernel32:KERNEL32.dll
 0002:0000006c       __imp__DeleteCriticalSection@4 1005f06c     kernel32:KERNEL32.dll
 0002:00000070       __imp__InitializeCriticalSectionAndSpinCount@8 1005f070     kernel32:KERNEL32.dll
 0002:00000074       __imp__TlsAlloc@0          1005f074     kernel32:KERNEL32.dll
 0002:00000078       __imp__TlsGetValue@4       1005f078     kernel32:KERNEL32.dll
 0002:0000007c       __imp__TlsSetValue@8       1005f07c     kernel32:KERNEL32.dll
 0002:00000080       __imp__TlsFree@4           1005f080     kernel32:KERNEL32.dll
 0002:00000084       __imp__FreeLibrary@4       1005f084     kernel32:KERNEL32.dll
 0002:00000088       __imp__GetProcAddress@8    1005f088     kernel32:KERNEL32.dll
 0002:0000008c       __imp__LoadLibraryExW@12   1005f08c     kernel32:KERNEL32.dll
 0002:00000090       __imp__EncodePointer@4     1005f090     kernel32:KERNEL32.dll
 0002:00000094       __imp__RaiseException@16   1005f094     kernel32:KERNEL32.dll
 0002:00000098       __imp__SetFilePointerEx@20 1005f098     kernel32:KERNEL32.dll
 0002:0000009c       __imp__GetFileType@4       1005f09c     kernel32:KERNEL32.dll
 0002:000000a0       __imp__GetConsoleMode@8    1005f0a0     kernel32:KERNEL32.dll
 0002:000000a4       __imp__ReadConsoleW@20     1005f0a4     kernel32:KERNEL32.dll
 0002:000000a8       __imp__GetConsoleOutputCP@0 1005f0a8     kernel32:KERNEL32.dll
 0002:000000ac       __imp__ExitProcess@4       1005f0ac     kernel32:KERNEL32.dll
 0002:000000b0       __imp__GetModuleHandleExW@12 1005f0b0     kernel32:KERNEL32.dll
 0002:000000b4       __imp__GetModuleFileNameW@12 1005f0b4     kernel32:KERNEL32.dll
 0002:000000b8       __imp__SetStdHandle@8      1005f0b8     kernel32:KERNEL32.dll
 0002:000000bc       __imp__GetCurrentThread@0  1005f0bc     kernel32:KERNEL32.dll
 0002:000000c0       __imp__GetStdHandle@4      1005f0c0     kernel32:KERNEL32.dll
 0002:000000c4       __imp__HeapFree@12         1005f0c4     kernel32:KERNEL32.dll
 0002:000000c8       __imp__HeapAlloc@12        1005f0c8     kernel32:KERNEL32.dll
 0002:000000cc       __imp__MultiByteToWideChar@24 1005f0cc     kernel32:KERNEL32.dll
 0002:000000d0       __imp__GetDateFormatW@24   1005f0d0     kernel32:KERNEL32.dll
 0002:000000d4       __imp__GetTimeFormatW@24   1005f0d4     kernel32:KERNEL32.dll
 0002:000000d8       __imp__CompareStringW@24   1005f0d8     kernel32:KERNEL32.dll
 0002:000000dc       __imp__LCMapStringW@24     1005f0dc     kernel32:KERNEL32.dll
 0002:000000e0       __imp__GetLocaleInfoW@16   1005f0e0     kernel32:KERNEL32.dll
 0002:000000e4       __imp__IsValidLocale@8     1005f0e4     kernel32:KERNEL32.dll
 0002:000000e8       __imp__GetUserDefaultLCID@0 1005f0e8     kernel32:KERNEL32.dll
 0002:000000ec       __imp__EnumSystemLocalesW@8 1005f0ec     kernel32:KERNEL32.dll
 0002:000000f0       __imp__SetEndOfFile@4      1005f0f0     kernel32:KERNEL32.dll
 0002:000000f4       __imp__WideCharToMultiByte@32 1005f0f4     kernel32:KERNEL32.dll
 0002:000000f8       __imp__GetFileSizeEx@8     1005f0f8     kernel32:KERNEL32.dll
 0002:000000fc       __imp__FindClose@4         1005f0fc     kernel32:KERNEL32.dll
 0002:00000100       __imp__FindFirstFileExW@24 1005f100     kernel32:KERNEL32.dll
 0002:00000104       __imp__FindNextFileW@8     1005f104     kernel32:KERNEL32.dll
 0002:00000108       __imp__IsValidCodePage@4   1005f108     kernel32:KERNEL32.dll
 0002:0000010c       __imp__GetACP@0            1005f10c     kernel32:KERNEL32.dll
 0002:00000110       __imp__GetOEMCP@0          1005f110     kernel32:KERNEL32.dll
 0002:00000114       __imp__GetCPInfo@8         1005f114     kernel32:KERNEL32.dll
 0002:00000118       __imp__GetCommandLineA@0   1005f118     kernel32:KERNEL32.dll
 0002:0000011c       __imp__GetCommandLineW@0   1005f11c     kernel32:KERNEL32.dll
 0002:00000120       __imp__GetEnvironmentStringsW@0 1005f120     kernel32:KERNEL32.dll
 0002:00000124       __imp__FreeEnvironmentStringsW@4 1005f124     kernel32:KERNEL32.dll
 0002:00000128       __imp__SetEnvironmentVariableW@8 1005f128     kernel32:KERNEL32.dll
 0002:0000012c       __imp__GetProcessHeap@0    1005f12c     kernel32:KERNEL32.dll
 0002:00000130       __imp__SetConsoleCtrlHandler@8 1005f130     kernel32:KERNEL32.dll
 0002:00000134       __imp__GetStringTypeW@16   1005f134     kernel32:KERNEL32.dll
 0002:00000138       __imp__WriteConsoleW@20    1005f138     kernel32:KERNEL32.dll
 0002:0000013c       __imp__FlushFileBuffers@4  1005f13c     kernel32:KERNEL32.dll
 0002:00000140       __imp__HeapSize@12         1005f140     kernel32:KERNEL32.dll
 0002:00000144       __imp__HeapReAlloc@16      1005f144     kernel32:KERNEL32.dll
 0002:00000148       __imp__DecodePointer@4     1005f148     kernel32:KERNEL32.dll
 0002:0000014c       \177KERNEL32_NULL_THUNK_DATA 1005f14c     kernel32:KERNEL32.dll
 0002:00000150       ___guard_check_icall_fptr  1005f150     LIBCMT:guard_support.obj
 0002:00000154       ___guard_xfg_check_icall_fptr 1005f154     LIBCMT:guard_support.obj
 0002:00000158       ___castguard_check_failure_os_handled_fptr 1005f158     LIBCMT:guard_support.obj
 0002:0000015c       ___xc_a                    1005f15c     LIBCMT:initializers.obj
 0002:00000160       ___xc_z                    1005f160     LIBCMT:initializers.obj
 0002:00000164       ___xi_a                    1005f164     LIBCMT:initializers.obj
 0002:00000168       ___acrt_stdio_initializer  1005f168     libucrt:stdio_initializer.obj
 0002:0000016c       ___acrt_multibyte_initializer 1005f16c     libucrt:multibyte_initializer.obj
 0002:00000170       ___acrt_fmode_initializer  1005f170     libucrt:fmode_initializer.obj
 0002:00000174       ___acrt_tran_sse2_initializer 1005f174     libucrt:sse2_initializer.obj
 0002:00000178       ___xi_z                    1005f178     LIBCMT:initializers.obj
 0002:0000017c       ___xp_a                    1005f17c     LIBCMT:initializers.obj
 0002:00000180       ___acrt_locale_terminator  1005f180     libucrt:locale_initializer.obj
 0002:00000184       ___dcrt_console_output_terminator 1005f184     libucrt:console_output_initializer.obj
 0002:00000188       ___acrt_stdio_terminator   1005f188     libucrt:stdio_initializer.obj
 0002:0000018c       ___xp_z                    1005f18c     LIBCMT:initializers.obj
 0002:00000190       ___xt_a                    1005f190     LIBCMT:initializers.obj
 0002:00000194       ___xt_z                    1005f194     LIBCMT:initializers.obj
 0002:000001a0       __pDefaultRawDllMain       1005f1a0     LIBCMT:dll_dllmain.obj
 0002:000001a0       __pRawDllMain              1005f1a0     LIBCMT:dll_dllmain.obj
 0002:000001ac       __pDestructExceptionObject 1005f1ac     libvcruntime:ehhelpers.obj
 0002:00000538       ??_C@_08EHJDFFNH@__based?$CI@ 1005f538     libvcruntime:undname.obj
 0002:00000544       ??_C@_07KOLFKCDI@__cdecl@  1005f544     libvcruntime:undname.obj
 0002:0000054c       ??_C@_08GHMPAG@__pascal@   1005f54c     libvcruntime:undname.obj
 0002:00000558       ??_C@_09IFJBGAPI@__stdcall@ 1005f558     libvcruntime:undname.obj
 0002:00000564       ??_C@_0L@NPHFGOKO@__thiscall@ 1005f564     libvcruntime:undname.obj
 0002:00000570       ??_C@_0L@JMKHOMEK@__fastcall@ 1005f570     libvcruntime:undname.obj
 0002:0000057c       ??_C@_0N@BCKKPABJ@__vectorcall@ 1005f57c     libvcruntime:undname.obj
 0002:0000058c       ??_C@_09HIJEGCPM@__clrcall@ 1005f58c     libvcruntime:undname.obj
 0002:00000598       ??_C@_06GHPCKEAG@__eabi@   1005f598     libvcruntime:undname.obj
 0002:000005a0       ??_C@_09IOPIDJLG@__swift_1@ 1005f5a0     libvcruntime:undname.obj
 0002:000005ac       ??_C@_09KFNFGKHF@__swift_2@ 1005f5ac     libvcruntime:undname.obj
 0002:000005b8       ??_C@_09LMMOFLDE@__swift_3@ 1005f5b8     libvcruntime:undname.obj
 0002:000005c4       ??_C@_07JOMMBBKO@__ptr64@  1005f5c4     libvcruntime:undname.obj
 0002:000005cc       ??_C@_0L@PILCLIHE@__restrict@ 1005f5cc     libvcruntime:undname.obj
 0002:000005d8       ??_C@_0M@GFIIJFMG@__unaligned@ 1005f5d8     libvcruntime:undname.obj
 0002:000005e4       ??_C@_09DHDLOLLB@restrict?$CI@ 1005f5e4     libvcruntime:undname.obj
 0002:000005f0       ??_C@_04NIHEBCM@?5new@     1005f5f0     libvcruntime:undname.obj
 0002:000005f8       ??_C@_07FPCDHGMM@?5delete@ 1005f5f8     libvcruntime:undname.obj
 0002:00000600       ??_C@_01NEMOKFLO@?$DN@     1005f600     libvcruntime:undname.obj
 0002:00000604       ??_C@_02GPIOPFAK@?$DO?$DO@ 1005f604     libvcruntime:undname.obj
 0002:00000608       ??_C@_02FODMEDOG@?$DM?$DM@ 1005f608     libvcruntime:undname.obj
 0002:0000060c       ??_C@_01DCLJPIOD@?$CB@     1005f60c     libvcruntime:undname.obj
 0002:00000610       ??_C@_02EGOFBIJA@?$DN?$DN@ 1005f610     libvcruntime:undname.obj
 0002:00000614       ??_C@_02FDNJECIE@?$CB?$DN@ 1005f614     libvcruntime:undname.obj
 0002:00000618       ??_C@_02GPECMEKF@?$FL?$FN@ 1005f618     libvcruntime:undname.obj
 0002:0000061c       ??_C@_08LHJFAFGD@operator@ 1005f61c     libvcruntime:undname.obj
 0002:00000628       ??_C@_02HBOOOICD@?9?$DO@   1005f628     libvcruntime:undname.obj
 0002:0000062c       ??_C@_01NBENCBCI@?$CK@     1005f62c     libvcruntime:undname.obj
 0002:00000630       ??_C@_02ECNGHCIF@?$CL?$CL@ 1005f630     libvcruntime:undname.obj
 0002:00000634       ??_C@_02BAABKJLB@?9?9@     1005f634     libvcruntime:undname.obj
 0002:00000638       ??_C@_01MIFGBAGJ@?$CL@     1005f638     libvcruntime:undname.obj
 0002:0000063c       ??_C@_01HNPIGOCE@?$CG@     1005f63c     libvcruntime:undname.obj
 0002:00000640       ??_C@_03MNHNFDLC@?9?$DO?$CK@ 1005f640     libvcruntime:undname.obj
 0002:00000644       ??_C@_01KMDKNFGN@?1@       1005f644     libvcruntime:undname.obj
 0002:00000648       ??_C@_01FGNFDNOH@?$CF@     1005f648     libvcruntime:undname.obj
 0002:0000064c       ??_C@_01MNNFJEPP@?$DM@     1005f64c     libvcruntime:undname.obj
 0002:00000650       ??_C@_02EHCHHCKH@?$DM?$DN@ 1005f650     libvcruntime:undname.obj
 0002:00000654       ??_C@_01PPODPGHN@?$DO@     1005f654     libvcruntime:undname.obj
 0002:00000658       ??_C@_02EEKDKGMJ@?$DO?$DN@ 1005f658     libvcruntime:undname.obj
 0002:0000065c       ??_C@_01IHBHIGKO@?0@       1005f65c     libvcruntime:undname.obj
 0002:00000660       ??_C@_02HCKGKOFO@?$CI?$CJ@ 1005f660     libvcruntime:undname.obj
 0002:00000664       ??_C@_01PJKLJHI@?$HO@      1005f664     libvcruntime:undname.obj
 0002:00000668       ??_C@_01JKBOJNNK@?$FO@     1005f668     libvcruntime:undname.obj
 0002:0000066c       ??_C@_01DNKMNLPK@?$HM@     1005f66c     libvcruntime:undname.obj
 0002:00000670       ??_C@_02PPKAJPJL@?$CG?$CG@ 1005f670     libvcruntime:undname.obj
 0002:00000674       ??_C@_02NONPIBCD@?$HM?$HM@ 1005f674     libvcruntime:undname.obj
 0002:00000678       ??_C@_02FPIMKNGF@?$CK?$DN@ 1005f678     libvcruntime:undname.obj
 0002:0000067c       ??_C@_02FOEOMHFC@?$CL?$DN@ 1005f67c     libvcruntime:undname.obj
 0002:00000680       ??_C@_02FKMDLLOA@?9?$DN@   1005f680     libvcruntime:undname.obj
 0002:00000684       ??_C@_02FJEHGPIO@?1?$DN@   1005f684     libvcruntime:undname.obj
 0002:00000688       ??_C@_02FENAOKFI@?$CF?$DN@ 1005f688     libvcruntime:undname.obj
 0002:0000068c       ??_C@_03IKFCCPFF@?$DO?$DO?$DN@ 1005f68c     libvcruntime:undname.obj
 0002:00000690       ??_C@_03CDNPDDLA@?$DM?$DM?$DN@ 1005f690     libvcruntime:undname.obj
 0002:00000694       ??_C@_02FGJGFEAB@?$CG?$DN@ 1005f694     libvcruntime:undname.obj
 0002:00000698       ??_C@_02DHLNPPGH@?$HM?$DN@ 1005f698     libvcruntime:undname.obj
 0002:0000069c       ??_C@_02MHEGNOJ@?$FO?$DN@  1005f69c     libvcruntime:undname.obj
 0002:000006a0       ??_C@_09IFPLHPGF@?$GAvftable?8@ 1005f6a0     libvcruntime:undname.obj
 0002:000006ac       ??_C@_09BLBHBJP@?$GAvbtable?8@ 1005f6ac     libvcruntime:undname.obj
 0002:000006b8       ??_C@_07FEEIOKP@?$GAvcall?8@ 1005f6b8     libvcruntime:undname.obj
 0002:000006c0       ??_C@_08LLFFHHDJ@?$GAtypeof?8@ 1005f6c0     libvcruntime:undname.obj
 0002:000006cc       ??_C@_0BF@KDPPACIK@?$GAlocal?5static?5guard?8@ 1005f6cc     libvcruntime:undname.obj
 0002:000006e4       ??_C@_08OBABFOLI@?$GAstring?8@ 1005f6e4     libvcruntime:undname.obj
 0002:000006f0       ??_C@_0BD@JDLKDPAB@?$GAvbase?5destructor?8@ 1005f6f0     libvcruntime:undname.obj
 0002:00000704       ??_C@_0BN@DEGPLNFK@?$GAvector?5deleting?5destructor?8@ 1005f704     libvcruntime:undname.obj
 0002:00000724       ??_C@_0BO@OBMKPJIG@?$GAdefault?5constructor?5closure?8@ 1005f724     libvcruntime:undname.obj
 0002:00000744       ??_C@_0BN@IMDCHIKM@?$GAscalar?5deleting?5destructor?8@ 1005f744     libvcruntime:undname.obj
 0002:00000764       ??_C@_0BO@PFGOCPJJ@?$GAvector?5constructor?5iterator?8@ 1005f764     libvcruntime:undname.obj
 0002:00000784       ??_C@_0BN@LFPFMEDL@?$GAvector?5destructor?5iterator?8@ 1005f784     libvcruntime:undname.obj
 0002:000007a4       ??_C@_0CE@IKBNEHA@?$GAvector?5vbase?5constructor?5itera@ 1005f7a4     libvcruntime:undname.obj
 0002:000007c8       ??_C@_0BL@NILFHHPC@?$GAvirtual?5displacement?5map?8@ 1005f7c8     libvcruntime:undname.obj
 0002:000007e4       ??_C@_0CB@JONCMFFK@?$GAeh?5vector?5constructor?5iterator@ 1005f7e4     libvcruntime:undname.obj
 0002:00000808       ??_C@_0CA@GCEOPDGL@?$GAeh?5vector?5destructor?5iterator?8@ 1005f808     libvcruntime:undname.obj
 0002:00000828       ??_C@_0CH@OOJPLCPH@?$GAeh?5vector?5vbase?5constructor?5it@ 1005f828     libvcruntime:undname.obj
 0002:00000850       ??_C@_0BL@LLKPOHJI@?$GAcopy?5constructor?5closure?8@ 1005f850     libvcruntime:undname.obj
 0002:0000086c       ??_C@_0BA@KBCDOMBN@?$GAudt?5returning?8@ 1005f86c     libvcruntime:undname.obj
 0002:0000087c       ??_C@_03KLGMFNMG@?$GAEH@   1005f87c     libvcruntime:undname.obj
 0002:00000880       ??_C@_05KHLCHHI@?$GARTTI@  1005f880     libvcruntime:undname.obj
 0002:00000888       ??_C@_0BA@KKLDJDLB@?$GAlocal?5vftable?8@ 1005f888     libvcruntime:undname.obj
 0002:00000898       ??_C@_0CE@IIHCMGGL@?$GAlocal?5vftable?5constructor?5clos@ 1005f898     libvcruntime:undname.obj
 0002:000008bc       ??_C@_06FHBGPFGH@?5new?$FL?$FN@ 1005f8bc     libvcruntime:undname.obj
 0002:000008c4       ??_C@_09LBNFPBCA@?5delete?$FL?$FN@ 1005f8c4     libvcruntime:undname.obj
 0002:000008d0       ??_C@_0P@HJKNJFNN@?$GAomni?5callsig?8@ 1005f8d0     libvcruntime:undname.obj
 0002:000008e0       ??_C@_0BL@CNOONJFP@?$GAplacement?5delete?5closure?8@ 1005f8e0     libvcruntime:undname.obj
 0002:000008fc       ??_C@_0BN@CKNJLHMB@?$GAplacement?5delete?$FL?$FN?5closure?8@ 1005f8fc     libvcruntime:undname.obj
 0002:0000091c       ??_C@_0CG@CFDHKGGD@?$GAmanaged?5vector?5constructor?5ite@ 1005f91c     libvcruntime:undname.obj
 0002:00000944       ??_C@_0CF@IMGKMJNO@?$GAmanaged?5vector?5destructor?5iter@ 1005f944     libvcruntime:undname.obj
 0002:0000096c       ??_C@_0CG@HLDDJMAG@?$GAeh?5vector?5copy?5constructor?5ite@ 1005f96c     libvcruntime:undname.obj
 0002:00000994       ??_C@_0CM@FCBBDIGB@?$GAeh?5vector?5vbase?5copy?5construct@ 1005f994     libvcruntime:undname.obj
 0002:000009c0       ??_C@_0BL@CLIPGLGB@?$GAdynamic?5initializer?5for?5?8@ 1005f9c0     libvcruntime:undname.obj
 0002:000009dc       ??_C@_0CB@PDBIFEP@?$GAdynamic?5atexit?5destructor?5for?5@ 1005f9dc     libvcruntime:undname.obj
 0002:00000a00       ??_C@_0CD@CGAJBKEJ@?$GAvector?5copy?5constructor?5iterat@ 1005fa00     libvcruntime:undname.obj
 0002:00000a24       ??_C@_0CJ@GJELGAMM@?$GAvector?5vbase?5copy?5constructor?5@ 1005fa24     libvcruntime:undname.obj
 0002:00000a50       ??_C@_0CL@FGIJHLCE@?$GAmanaged?5vector?5copy?5constructo@ 1005fa50     libvcruntime:undname.obj
 0002:00000a7c       ??_C@_0BM@PMGGMLDN@?$GAlocal?5static?5thread?5guard?8@ 1005fa7c     libvcruntime:undname.obj
 0002:00000a98       ??_C@_0N@BDNMDMOL@operator?5?$CC?$CC?5@ 1005fa98     libvcruntime:undname.obj
 0002:00000aa8       ??_C@_0BC@GGEBGALA@operator?5co_await@ 1005faa8     libvcruntime:undname.obj
 0002:00000abc       ??_C@_0M@GAAIMMOH@operator?$DM?$DN?$DO@ 1005fabc     libvcruntime:undname.obj
 0002:00000ac8       ??_C@_0BC@DAFEJGAK@?5Type?5Descriptor?8@ 1005fac8     libvcruntime:undname.obj
 0002:00000adc       ??_C@_0BM@LDKODKLH@?5Base?5Class?5Descriptor?5at?5?$CI@ 1005fadc     libvcruntime:undname.obj
 0002:00000af8       ??_C@_0BD@LGICGFMM@?5Base?5Class?5Array?8@ 1005faf8     libvcruntime:undname.obj
 0002:00000b0c       ??_C@_0BN@MECKDCOJ@?5Class?5Hierarchy?5Descriptor?8@ 1005fb0c     libvcruntime:undname.obj
 0002:00000b2c       ??_C@_0BK@CFCOFLF@?5Complete?5Object?5Locator?8@ 1005fb2c     libvcruntime:undname.obj
 0002:00000b48       ??_C@_0BG@JNJLAMPM@?$GAanonymous?5namespace?8@ 1005fb48     libvcruntime:undname.obj
 0002:00000b60       ??_C@_04HEJADOOB@CV?3?5@   1005fb60     libvcruntime:undname.obj
 0002:00000b68       ??_C@_02MOLJINC@?3?3@      1005fb68     libvcruntime:undname.obj
 0002:00000b6c       ??_C@_0BE@JAEOCHPE@template?9parameter?9@ 1005fb6c     libvcruntime:undname.obj
 0002:00000b80       ??_C@_0BF@LNLGBBNL@?$GAtemplate?9parameter?9@ 1005fb80     libvcruntime:undname.obj
 0002:00000b98       ??_C@_0O@KHGCOMHP@generic?9type?9@ 1005fb98     libvcruntime:undname.obj
 0002:00000ba8       ??_C@_0P@ODDENDLM@?$GAgeneric?9type?9@ 1005fba8     libvcruntime:undname.obj
 0002:00000bb8       ??_C@_02OHHJMEON@?8?8@     1005fbb8     libvcruntime:undname.obj
 0002:00000bbc       ??_C@_0BN@IBLMMFAP@?$GAnon?9type?9template?9parameter@ 1005fbbc     libvcruntime:undname.obj
 0002:00000bdc       ??_C@_03DLDNIBIK@?$CFlf@   1005fbdc     libvcruntime:undname.obj
 0002:00000be0       ??_C@_04OFALKAJ@?$DP?$DP_C@ 1005fbe0     libvcruntime:undname.obj
 0002:00000be8       ??_C@_03KHICJKCI@?4?4?4@   1005fbe8     libvcruntime:undname.obj
 0002:00000bec       ??_C@_04HIBGFPH@NULL@      1005fbec     libvcruntime:undname.obj
 0002:00000bf4       ??_C@_02DPKJAMEF@?$CFd@    1005fbf4     libvcruntime:undname.obj
 0002:00000bf8       ??_C@_0BK@IHCCFNEL@?$GAtemplate?9type?9parameter?9@ 1005fbf8     libvcruntime:undname.obj
 0002:00000c14       ??_C@_0BK@OFCNNNKO@?$GAgeneric?9class?9parameter?9@ 1005fc14     libvcruntime:undname.obj
 0002:00000c30       ??_C@_0BL@NGJBLFIL@?$GAgeneric?9method?9parameter?9@ 1005fc30     libvcruntime:undname.obj
 0002:00000c4c       ??_C@_07OHNGEDJK@nullptr@  1005fc4c     libvcruntime:undname.obj
 0002:00000c54       ??_C@_06COJIGPIB@lambda@   1005fc54     libvcruntime:undname.obj
 0002:00000c5c       ??_C@_04GKJNKENE@void@     1005fc5c     libvcruntime:undname.obj
 0002:00000c64       ??_C@_0BE@EODMJLIF@?$GAtemplate?9parameter@ 1005fc64     libvcruntime:undname.obj
 0002:00000c78       ??_C@_03OPGICMGF@?$HN?8?5@ 1005fc78     libvcruntime:undname.obj
 0002:00000c7c       ??_C@_02IGFCGPIL@?$HN?8@   1005fc7c     libvcruntime:undname.obj
 0002:00000c80       ??_C@_0N@CBHHHENL@?$GAvtordispex?$HL@ 1005fc80     libvcruntime:undname.obj
 0002:00000c90       ??_C@_0L@GHPFDFH@?$GAvtordisp?$HL@ 1005fc90     libvcruntime:undname.obj
 0002:00000c9c       ??_C@_0L@HNGCOGAE@?$GAadjustor?$HL@ 1005fc9c     libvcruntime:undname.obj
 0002:00000ca8       ??_C@_0CB@KJDOOODE@?$GAlocal?5static?5destructor?5helper@ 1005fca8     libvcruntime:undname.obj
 0002:00000ccc       ??_C@_0DB@ILEFOCIJ@?$GAtemplate?5static?5data?5member?5co@ 1005fccc     libvcruntime:undname.obj
 0002:00000d00       ??_C@_0DA@HGFJFBBE@?$GAtemplate?5static?5data?5member?5de@ 1005fd00     libvcruntime:undname.obj
 0002:00000d30       ??_C@_07PGOEDBHP@static?5@ 1005fd30     libvcruntime:undname.obj
 0002:00000d38       ??_C@_08NIEOINHE@virtual?5@ 1005fd38     libvcruntime:undname.obj
 0002:00000d44       ??_C@_09LAPHOOG@private?3?5@ 1005fd44     libvcruntime:undname.obj
 0002:00000d50       ??_C@_0M@GAIFPFIP@protected?3?5@ 1005fd50     libvcruntime:undname.obj
 0002:00000d5c       ??_C@_08GPDDCMKI@public?3?5@ 1005fd5c     libvcruntime:undname.obj
 0002:00000d68       ??_C@_08KJLFOPNE@?$FLthunk?$FN?3@ 1005fd68     libvcruntime:undname.obj
 0002:00000d74       ??_C@_0M@DHNBOJMP@extern?5?$CCC?$CC?5@ 1005fd74     libvcruntime:undname.obj
 0002:00000d80       ??_C@_02KCKGHPCA@?$CJ?5@   1005fd80     libvcruntime:undname.obj
 0002:00000d84       ??_C@_05CIHEBHNO@char?5@   1005fd84     libvcruntime:undname.obj
 0002:00000d8c       ??_C@_06EHJMALKF@short?5@  1005fd8c     libvcruntime:undname.obj
 0002:00000d94       ??_C@_04LAHKHJMA@int?5@    1005fd94     libvcruntime:undname.obj
 0002:00000d9c       ??_C@_05CJIMAING@long?5@   1005fd9c     libvcruntime:undname.obj
 0002:00000da4       ??_C@_09EBBEKKIH@unsigned?5@ 1005fda4     libvcruntime:undname.obj
 0002:00000db0       ??_C@_05BEFAKPML@void?5@   1005fdb0     libvcruntime:undname.obj
 0002:00000db8       ??_C@_09GAIEOBLP@volatile?5@ 1005fdb8     libvcruntime:undname.obj
 0002:00000dc4       ??_C@_08PABEKFH@volatile@  1005fdc4     libvcruntime:undname.obj
 0002:00000dd0       ??_C@_0BA@LKIJLKPP@std?3?3nullptr_t?5@ 1005fdd0     libvcruntime:undname.obj
 0002:00000de0       ??_C@_0P@GCOCNKDM@std?3?3nullptr_t@ 1005fde0     libvcruntime:undname.obj
 0002:00000df0       ??_C@_0L@EGPHHEKN@?$DMellipsis?$DO@ 1005fdf0     libvcruntime:undname.obj
 0002:00000dfc       ??_C@_04EENFHACM@?0?4?4?4@ 1005fdfc     libvcruntime:undname.obj
 0002:00000e04       ??_C@_0M@ELJOJFFH@?0?$DMellipsis?$DO@ 1005fe04     libvcruntime:undname.obj
 0002:00000e10       ??_C@_09DNHFEOJI@?5noexcept@ 1005fe10     libvcruntime:undname.obj
 0002:00000e1c       ??_C@_03PBJBJNON@cpu@      1005fe1c     libvcruntime:undname.obj
 0002:00000e20       ??_C@_03DCBBJBAA@amp@      1005fe20     libvcruntime:undname.obj
 0002:00000e24       ??_C@_02KEGNLNML@?0?5@     1005fe24     libvcruntime:undname.obj
 0002:00000e28       ??_C@_04ENMBGAPA@char@     1005fe28     libvcruntime:undname.obj
 0002:00000e30       ??_C@_05BFKKPKCG@short@    1005fe30     libvcruntime:undname.obj
 0002:00000e38       ??_C@_03JBIPMCLC@int@      1005fe38     libvcruntime:undname.obj
 0002:00000e3c       ??_C@_04GOKPGOLB@long@     1005fe3c     libvcruntime:undname.obj
 0002:00000e44       ??_C@_05KNFBNCOH@float@    1005fe44     libvcruntime:undname.obj
 0002:00000e4c       ??_C@_06BNJCAIGJ@double@   1005fe4c     libvcruntime:undname.obj
 0002:00000e54       ??_C@_04DDKJGDCM@bool@     1005fe54     libvcruntime:undname.obj
 0002:00000e5c       ??_C@_06EBGKOKIG@__int8@   1005fe5c     libvcruntime:undname.obj
 0002:00000e64       ??_C@_07ICFHOGAF@__int16@  1005fe64     libvcruntime:undname.obj
 0002:00000e6c       ??_C@_07OFLPPHGP@__int32@  1005fe6c     libvcruntime:undname.obj
 0002:00000e74       ??_C@_07LFCOJCAC@__int64@  1005fe74     libvcruntime:undname.obj
 0002:00000e7c       ??_C@_08GAHOLHEO@__int128@ 1005fe7c     libvcruntime:undname.obj
 0002:00000e88       ??_C@_09EEKGDCPH@?$DMunknown?$DO@ 1005fe88     libvcruntime:undname.obj
 0002:00000e94       ??_C@_07CFHGOPCN@char8_t@  1005fe94     libvcruntime:undname.obj
 0002:00000e9c       ??_C@_08HBIPOFJB@char16_t@ 1005fe9c     libvcruntime:undname.obj
 0002:00000ea8       ??_C@_08IECNCBKG@char32_t@ 1005fea8     libvcruntime:undname.obj
 0002:00000eb4       ??_C@_07CLGGIAMF@wchar_t@  1005feb4     libvcruntime:undname.obj
 0002:00000ebc       ??_C@_04HAPDLBFF@auto@     1005febc     libvcruntime:undname.obj
 0002:00000ec4       ??_C@_0P@LHCGKIGK@decltype?$CIauto?$CJ@ 1005fec4     libvcruntime:undname.obj
 0002:00000ed4       ??_C@_05PCNBGHCF@this?5@   1005fed4     libvcruntime:undname.obj
 0002:00000edc       ??_C@_06GCICPBLB@__w64?5@  1005fedc     libvcruntime:undname.obj
 0002:00000ee4       ??_C@_07NFANNNEC@UNKNOWN@  1005fee4     libvcruntime:undname.obj
 0002:00000eec       ??_C@_07EDHNAJHC@signed?5@ 1005feec     libvcruntime:undname.obj
 0002:00000ef4       ??_C@_05BNCCCJPP@const@    1005fef4     libvcruntime:undname.obj
 0002:00000efc       ??_C@_09EFNPDFFP@?5volatile@ 1005fefc     libvcruntime:undname.obj
 0002:00000f08       ??_C@_0P@GCIFDJCJ@?$GAunknown?5ecsu?8@ 1005ff08     libvcruntime:undname.obj
 0002:00000f18       ??_C@_06MOJHIBMG@union?5@  1005ff18     libvcruntime:undname.obj
 0002:00000f20       ??_C@_07DIBCDNGL@struct?5@ 1005ff20     libvcruntime:undname.obj
 0002:00000f28       ??_C@_06LJBABKPM@class?5@  1005ff28     libvcruntime:undname.obj
 0002:00000f30       ??_C@_08KOFANOFK@coclass?5@ 1005ff30     libvcruntime:undname.obj
 0002:00000f3c       ??_C@_0N@DLIEFKNA@cointerface?5@ 1005ff3c     libvcruntime:undname.obj
 0002:00000f4c       ??_C@_05LJGMCFOG@enum?5@   1005ff4c     libvcruntime:undname.obj
 0002:00000f54       ??_C@_06LIJLOJAG@const?5@  1005ff54     libvcruntime:undname.obj
 0002:00000f5c       ??_C@_02KJPKDIBN@?$CG?5@   1005ff5c     libvcruntime:undname.obj
 0002:00000f60       ??_C@_03PCKGMOPB@?$CG?$CG?5@ 1005ff60     libvcruntime:undname.obj
 0002:00000f64       ??_C@_0M@EALIELKG@cli?3?3array?$DM@ 1005ff64     libvcruntime:undname.obj
 0002:00000f70       ??_C@_0O@GKABPPIF@cli?3?3pin_ptr?$DM@ 1005ff70     libvcruntime:undname.obj
 0002:00000f80       ??_C@_02GOGNNPBN@?$CJ?$FL@ 1005ff80     libvcruntime:undname.obj
 0002:00000f84       ??_C@_06EEGAIFAK@?$HLflat?$HN@ 1005ff84     libvcruntime:undname.obj
 0002:00000f8c       ??_C@_05JIBOFOHK@?$HLfor?5@ 1005ff8c     libvcruntime:undname.obj
 0002:00000f94       ??_C@_02MDINNEEG@s?5@      1005ff94     libvcruntime:undname.obj
 0002:00000f9c       ??_7DNameNode@@6B@         1005ff9c     libvcruntime:undname.obj
 0002:00000fb0       ??_7charNode@@6B@          1005ffb0     libvcruntime:undname.obj
 0002:00000fc4       ??_7pcharNode@@6B@         1005ffc4     libvcruntime:undname.obj
 0002:00000fd8       ??_7pDNameNode@@6B@        1005ffd8     libvcruntime:undname.obj
 0002:00000fec       ??_7DNameStatusNode@@6B@   1005ffec     libvcruntime:undname.obj
 0002:00001000       ??_7pairNode@@6B@          10060000     libvcruntime:undname.obj
 0002:00001110       ??_C@_04OKOHEJBO@?5?$DP?$DP?5@ 10060110     libvcruntime:undname.obj
 0002:00001118       ?nodes@?1??make@DNameStatusNode@@SAPBV2@W4DNameStatus@@@Z@4QBV2@B 10060118     libvcruntime:undname.obj
 0002:00001154       ??_C@_1DM@KHCHBNEB@?$AAa?$AAp?$AAi?$AA?9?$AAm?$AAs?$AA?9?$AAw?$AAi?$AAn?$AA?9?$AAc?$AAo?$AAr?$AAe@ 10060154     libvcruntime:winapi_downlevel.obj
 0002:00001190       ??_C@_1DK@LPPGFMPP@?$AAa?$AAp?$AAi?$AA?9?$AAm?$AAs?$AA?9?$AAw?$AAi?$AAn?$AA?9?$AAc?$AAo?$AAr?$AAe@ 10060190     libvcruntime:winapi_downlevel.obj
 0002:000011cc       ??_C@_1BC@GDMECMAK@?$AAk?$AAe?$AAr?$AAn?$AAe?$AAl?$AA3?$AA2@ 100601cc     libvcruntime:winapi_downlevel.obj
 0002:000011e0       ??_C@_1BA@PFFKHIOG@?$AAa?$AAp?$AAi?$AA?9?$AAm?$AAs?$AA?9@ 100601e0     libvcruntime:winapi_downlevel.obj
 0002:000011f8       ??_C@_08KNHFBNJ@FlsAlloc@  100601f8     libvcruntime:winapi_downlevel.obj
 0002:0000120c       ??_C@_07PEJMOBNF@FlsFree@  1006020c     libvcruntime:winapi_downlevel.obj
 0002:0000121c       ??_C@_0M@GDNOONDI@FlsGetValue@ 1006021c     libvcruntime:winapi_downlevel.obj
 0002:00001230       ??_C@_0M@JCPCPOEF@FlsSetValue@ 10060230     libvcruntime:winapi_downlevel.obj
 0002:00001244       ??_C@_0BM@HCFOFFN@InitializeCriticalSectionEx@ 10060244     libvcruntime:winapi_downlevel.obj
 0002:00001264       ??_7exception@std@@6B@     10060264     libvcruntime:frame.obj
 0002:0000126c       ??_C@_0BC@EOODALEL@Unknown?5exception@ 1006026c     libvcruntime:frame.obj
 0002:00001284       ??_7bad_exception@std@@6B@ 10060284     libvcruntime:frame.obj
 0002:0000128c       ??_C@_0O@DPKOEFFH@bad?5exception@ 1006028c     libvcruntime:frame.obj
 0002:0000129c       __Fenv1                    1006029c     libucrt:output.obj
 0002:000012a8       ?standard_lookup_table_spectre@__crt_stdio_output@@3V?$spectre_mitigated_lookup_table@Ustate_transition_pair@__crt_stdio_output@@$0IA@@1@B 100602a8     libucrt:output.obj
 0002:000013a8       ?format_validation_lookup_table_spectre@__crt_stdio_output@@3V?$spectre_mitigated_lookup_table@Ustate_transition_pair@__crt_stdio_output@@$0IA@@1@B 100603a8     libucrt:output.obj
 0002:000014a8       ??_C@_1O@CEDCILHN@?$AA?$CI?$AAn?$AAu?$AAl?$AAl?$AA?$CJ@ 100604a8     libucrt:output.obj
 0002:000014b8       ??_C@_06OJHGLDPL@?$CInull?$CJ@ 100604b8     libucrt:output.obj
 0002:00001628       ??_C@_0EA@FCLIIPNN@Visual?5C?$CL?$CL?5CRT?3?5Not?5enough?5memo@ 10060628     libucrt:strerror.obj
 0002:00001668       ??_C@_1IA@JENHHBGD@?$AAV?$AAi?$AAs?$AAu?$AAa?$AAl?$AA?5?$AAC?$AA?$CL?$AA?$CL?$AA?5?$AAC?$AAR?$AAT?$AA?3@ 10060668     libucrt:strerror.obj
 0002:000016e8       ___acrt_exception_action_table 100606e8     libucrt:exception_filter.obj
 0002:00001778       ___acrt_signal_action_table_count 10060778     libucrt:exception_filter.obj
 0002:0000177c       ___acrt_signal_action_table_size 1006077c     libucrt:exception_filter.obj
 0002:00001780       ___acrt_signal_action_first_fpe_index 10060780     libucrt:exception_filter.obj
 0002:00001784       ___acrt_signal_action_fpe_count 10060784     libucrt:exception_filter.obj
 0002:00001788       _RtlNtPathSeperatorString  10060788     libucrt:exit.obj
 0002:00001790       ??_C@_13FPGAJAPJ@?$AA?2@   10060790     libucrt:exit.obj
 0002:00001794       _RtlDosPathSeperatorsString 10060794     libucrt:exit.obj
 0002:0000179c       ??_C@_15MNCACJLI@?$AA?2?$AA?1@ 1006079c     libucrt:exit.obj
 0002:000017a4       _RtlAlternateDosPathSeperatorString 100607a4     libucrt:exit.obj
 0002:000017ac       ??_C@_13CGOKJPIL@?$AA?1@   100607ac     libucrt:exit.obj
 0002:000017b0       ??_C@_1BI@BGOHAHKC@?$AAm?$AAs?$AAc?$AAo?$AAr?$AAe?$AAe?$AA?4?$AAd?$AAl?$AAl@ 100607b0     libucrt:exit.obj
 0002:000017c8       ??_C@_0P@MIGLKIOC@CorExitProcess@ 100607c8     libucrt:exit.obj
 0002:000018d8       ___lc_category             100608d8     libucrt:wsetlocale.obj
 0002:00001920       ??_C@_1O@GIFLHMA@?$AAL?$AAC?$AA_?$AAA?$AAL?$AAL@ 10060920     libucrt:wsetlocale.obj
 0002:00001930       ??_C@_1BG@PPOMIBNJ@?$AAL?$AAC?$AA_?$AAC?$AAO?$AAL?$AAL?$AAA?$AAT?$AAE@ 10060930     libucrt:wsetlocale.obj
 0002:00001948       ??_C@_1BC@FFJGAPJM@?$AAL?$AAC?$AA_?$AAC?$AAT?$AAY?$AAP?$AAE@ 10060948     libucrt:wsetlocale.obj
 0002:0000195c       ??_C@_1BI@PCKFNJFB@?$AAL?$AAC?$AA_?$AAM?$AAO?$AAN?$AAE?$AAT?$AAA?$AAR?$AAY@ 1006095c     libucrt:wsetlocale.obj
 0002:00001974       ??_C@_1BG@ENIEDKID@?$AAL?$AAC?$AA_?$AAN?$AAU?$AAM?$AAE?$AAR?$AAI?$AAC@ 10060974     libucrt:wsetlocale.obj
 0002:0000198c       ??_C@_1BA@HAAOMIIG@?$AAL?$AAC?$AA_?$AAT?$AAI?$AAM?$AAE@ 1006098c     libucrt:wsetlocale.obj
 0002:0000199c       ??_C@_15NBPDDFIP@?$AA?$DN?$AA?$DL@ 1006099c     libucrt:wsetlocale.obj
 0002:000019a4       ??_C@_13PJJBFPED@?$AA?$DL@ 100609a4     libucrt:wsetlocale.obj
 0002:000019a8       ??_C@_13NMPKAAJP@?$AA?$DN@ 100609a8     libucrt:wsetlocale.obj
 0002:000019ac       ??_C@_13IMODFHAA@?$AA?9@   100609ac     libucrt:wsetlocale.obj
 0002:000019b0       ??_C@_17EFJLDFDO@?$AA?9?$AA_?$AA?4@ 100609b0     libucrt:wsetlocale.obj
 0002:000019b8       ??_C@_13FHBKNHDA@?$AAC@    100609b8     libucrt:wsetlocale.obj
 0002:000019bc       ??_C@_17MBJJLFDM@?$AA_?$AA?4?$AA?0@ 100609bc     libucrt:wsetlocale.obj
 0002:000019c4       ??_C@_13ENNFDPBH@?$AA_@    100609c4     libucrt:wsetlocale.obj
 0002:000019c8       ??_C@_13JOFGPIOO@?$AA?4@   100609c8     libucrt:wsetlocale.obj
 0002:000019d0       ___lc_time_c               100609d0     libucrt:nlsdata.obj
 0002:00001b34       ??_C@_03KOEHGMDN@Sun@      10060b34     libucrt:nlsdata.obj
 0002:00001b38       ??_C@_03PDAGKDH@Mon@       10060b38     libucrt:nlsdata.obj
 0002:00001b3c       ??_C@_03NAGEINEP@Tue@      10060b3c     libucrt:nlsdata.obj
 0002:00001b40       ??_C@_03MHOMLAJA@Wed@      10060b40     libucrt:nlsdata.obj
 0002:00001b44       ??_C@_03IOFIKPDN@Thu@      10060b44     libucrt:nlsdata.obj
 0002:00001b48       ??_C@_03IDIOELNC@Fri@      10060b48     libucrt:nlsdata.obj
 0002:00001b4c       ??_C@_03FEFJNEK@Sat@       10060b4c     libucrt:nlsdata.obj
 0002:00001b50       ??_C@_06OOPIFAJ@Sunday@    10060b50     libucrt:nlsdata.obj
 0002:00001b58       ??_C@_06JLEDEDGH@Monday@   10060b58     libucrt:nlsdata.obj
 0002:00001b60       ??_C@_07BAAGCFCM@Tuesday@  10060b60     libucrt:nlsdata.obj
 0002:00001b68       ??_C@_09DLIGFAKA@Wednesday@ 10060b68     libucrt:nlsdata.obj
 0002:00001b74       ??_C@_08HACCIKIA@Thursday@ 10060b74     libucrt:nlsdata.obj
 0002:00001b80       ??_C@_06JECMNKMI@Friday@   10060b80     libucrt:nlsdata.obj
 0002:00001b88       ??_C@_08INBOOONO@Saturday@ 10060b88     libucrt:nlsdata.obj
 0002:00001b94       ??_C@_03JIHJHPIE@Jan@      10060b94     libucrt:nlsdata.obj
 0002:00001b98       ??_C@_03HJBDCHOM@Feb@      10060b98     libucrt:nlsdata.obj
 0002:00001b9c       ??_C@_03ODNJBKGA@Mar@      10060b9c     libucrt:nlsdata.obj
 0002:00001ba0       ??_C@_03LEOLGMJP@Apr@      10060ba0     libucrt:nlsdata.obj
 0002:00001ba4       ??_C@_03CNMDKL@May@        10060ba4     libucrt:nlsdata.obj
 0002:00001ba8       ??_C@_03IDFGHECI@Jun@      10060ba8     libucrt:nlsdata.obj
 0002:00001bac       ??_C@_03LBGABGKK@Jul@      10060bac     libucrt:nlsdata.obj
 0002:00001bb0       ??_C@_03IFJFEIGA@Aug@      10060bb0     libucrt:nlsdata.obj
 0002:00001bb4       ??_C@_03GGCAPAJC@Sep@      10060bb4     libucrt:nlsdata.obj
 0002:00001bb8       ??_C@_03BMAOKBAD@Oct@      10060bb8     libucrt:nlsdata.obj
 0002:00001bbc       ??_C@_03JPJOFNIA@Nov@      10060bbc     libucrt:nlsdata.obj
 0002:00001bc0       ??_C@_03MKABNOCG@Dec@      10060bc0     libucrt:nlsdata.obj
 0002:00001bc4       ??_C@_07CGJPFGJA@January@  10060bc4     libucrt:nlsdata.obj
 0002:00001bcc       ??_C@_08GNJGEPFN@February@ 10060bcc     libucrt:nlsdata.obj
 0002:00001bd8       ??_C@_05HPCKOFNC@March@    10060bd8     libucrt:nlsdata.obj
 0002:00001be0       ??_C@_05DMJDNLEJ@April@    10060be0     libucrt:nlsdata.obj
 0002:00001be8       ??_C@_04CNLMGBGM@June@     10060be8     libucrt:nlsdata.obj
 0002:00001bf0       ??_C@_04MIEPOIFP@July@     10060bf0     libucrt:nlsdata.obj
 0002:00001bf8       ??_C@_06LBBHFDDG@August@   10060bf8     libucrt:nlsdata.obj
 0002:00001c00       ??_C@_09BHHEALKD@September@ 10060c00     libucrt:nlsdata.obj
 0002:00001c0c       ??_C@_07JJNFCEND@October@  10060c0c     libucrt:nlsdata.obj
 0002:00001c14       ??_C@_08HCHEGEOA@November@ 10060c14     libucrt:nlsdata.obj
 0002:00001c20       ??_C@_08EDHMEBNP@December@ 10060c20     libucrt:nlsdata.obj
 0002:00001c2c       ??_C@_02DEDBPAFC@AM@       10060c2c     libucrt:nlsdata.obj
 0002:00001c30       ??_C@_02CJNFDJBF@PM@       10060c30     libucrt:nlsdata.obj
 0002:00001c34       ??_C@_08BPBNCDIB@MM?1dd?1yy@ 10060c34     libucrt:nlsdata.obj
 0002:00001c40       ??_C@_0BE@CKGJFCPC@dddd?0?5MMMM?5dd?0?5yyyy@ 10060c40     libucrt:nlsdata.obj
 0002:00001c54       ??_C@_08JCCMCCIL@HH?3mm?3ss@ 10060c54     libucrt:nlsdata.obj
 0002:00001c60       ??_C@_17MBGCMIPB@?$AAS?$AAu?$AAn@ 10060c60     libucrt:nlsdata.obj
 0002:00001c68       ??_C@_17KBOMKBF@?$AAM?$AAo?$AAn@ 10060c68     libucrt:nlsdata.obj
 0002:00001c70       ??_C@_17BMKGEGOJ@?$AAT?$AAu?$AAe@ 10060c70     libucrt:nlsdata.obj
 0002:00001c78       ??_C@_17CJEDCEPE@?$AAW?$AAe?$AAd@ 10060c78     libucrt:nlsdata.obj
 0002:00001c80       ??_C@_17PDPHAADD@?$AAT?$AAh?$AAu@ 10060c80     libucrt:nlsdata.obj
 0002:00001c88       ??_C@_17HFOLPPLP@?$AAF?$AAr?$AAi@ 10060c88     libucrt:nlsdata.obj
 0002:00001c90       ??_C@_17GGIBDPIH@?$AAS?$AAa?$AAt@ 10060c90     libucrt:nlsdata.obj
 0002:00001c98       ??_C@_1O@IHNHDHPB@?$AAS?$AAu?$AAn?$AAd?$AAa?$AAy@ 10060c98     libucrt:nlsdata.obj
 0002:00001ca8       ??_C@_1O@MMNBFLIA@?$AAM?$AAo?$AAn?$AAd?$AAa?$AAy@ 10060ca8     libucrt:nlsdata.obj
 0002:00001cb8       ??_C@_1BA@ENFBFFEK@?$AAT?$AAu?$AAe?$AAs?$AAd?$AAa?$AAy@ 10060cb8     libucrt:nlsdata.obj
 0002:00001cc8       ??_C@_1BE@EBOGMDOH@?$AAW?$AAe?$AAd?$AAn?$AAe?$AAs?$AAd?$AAa?$AAy@ 10060cc8     libucrt:nlsdata.obj
 0002:00001cdc       ??_C@_1BC@HHMNLIHE@?$AAT?$AAh?$AAu?$AAr?$AAs?$AAd?$AAa?$AAy@ 10060cdc     libucrt:nlsdata.obj
 0002:00001cf0       ??_C@_1O@PDICJHAG@?$AAF?$AAr?$AAi?$AAd?$AAa?$AAy@ 10060cf0     libucrt:nlsdata.obj
 0002:00001d00       ??_C@_1BC@ENMNNPAJ@?$AAS?$AAa?$AAt?$AAu?$AAr?$AAd?$AAa?$AAy@ 10060d00     libucrt:nlsdata.obj
 0002:00001d14       ??_C@_17DKNBKCHM@?$AAJ?$AAa?$AAn@ 10060d14     libucrt:nlsdata.obj
 0002:00001d1c       ??_C@_17LMDJEKJN@?$AAF?$AAe?$AAb@ 10060d1c     libucrt:nlsdata.obj
 0002:00001d24       ??_C@_17CKNLEDEC@?$AAM?$AAa?$AAr@ 10060d24     libucrt:nlsdata.obj
 0002:00001d2c       ??_C@_17LFPOIHDD@?$AAA?$AAp?$AAr@ 10060d2c     libucrt:nlsdata.obj
 0002:00001d34       ??_C@_17PNNKMEED@?$AAM?$AAa?$AAy@ 10060d34     libucrt:nlsdata.obj
 0002:00001d3c       ??_C@_17KCJGOCPB@?$AAJ?$AAu?$AAn@ 10060d3c     libucrt:nlsdata.obj
 0002:00001d44       ??_C@_17IJPCKHK@?$AAJ?$AAu?$AAl@ 10060d44     libucrt:nlsdata.obj
 0002:00001d4c       ??_C@_17ICPELBCN@?$AAA?$AAu?$AAg@ 10060d4c     libucrt:nlsdata.obj
 0002:00001d54       ??_C@_17HCHCOKMG@?$AAS?$AAe?$AAp@ 10060d54     libucrt:nlsdata.obj
 0002:00001d5c       ??_C@_17FNLKOI@?$AAO?$AAc?$AAt@ 10060d5c     libucrt:nlsdata.obj
 0002:00001d64       ??_C@_17BBDMLCIG@?$AAN?$AAo?$AAv@ 10060d64     libucrt:nlsdata.obj
 0002:00001d6c       ??_C@_17EGKACKIF@?$AAD?$AAe?$AAc@ 10060d6c     libucrt:nlsdata.obj
 0002:00001d74       ??_C@_1BA@EFMEIEBA@?$AAJ?$AAa?$AAn?$AAu?$AAa?$AAr?$AAy@ 10060d74     libucrt:nlsdata.obj
 0002:00001d84       ??_C@_1BC@JGDDFFAM@?$AAF?$AAe?$AAb?$AAr?$AAu?$AAa?$AAr?$AAy@ 10060d84     libucrt:nlsdata.obj
 0002:00001d98       ??_C@_1M@IKEENEDF@?$AAM?$AAa?$AAr?$AAc?$AAh@ 10060d98     libucrt:nlsdata.obj
 0002:00001da4       ??_C@_1M@GJNLMHFD@?$AAA?$AAp?$AAr?$AAi?$AAl@ 10060da4     libucrt:nlsdata.obj
 0002:00001db0       ??_C@_19EPFLPGAP@?$AAJ?$AAu?$AAn?$AAe@ 10060db0     libucrt:nlsdata.obj
 0002:00001dbc       ??_C@_19BIFMLPCD@?$AAJ?$AAu?$AAl?$AAy@ 10060dbc     libucrt:nlsdata.obj
 0002:00001dc8       ??_C@_1O@PAHLKOAC@?$AAA?$AAu?$AAg?$AAu?$AAs?$AAt@ 10060dc8     libucrt:nlsdata.obj
 0002:00001dd8       ??_C@_1BE@DKAAMBJL@?$AAS?$AAe?$AAp?$AAt?$AAe?$AAm?$AAb?$AAe?$AAr@ 10060dd8     libucrt:nlsdata.obj
 0002:00001dec       ??_C@_1BA@EPANDLNG@?$AAO?$AAc?$AAt?$AAo?$AAb?$AAe?$AAr@ 10060dec     libucrt:nlsdata.obj
 0002:00001dfc       ??_C@_1BC@BGLIFPF@?$AAN?$AAo?$AAv?$AAe?$AAm?$AAb?$AAe?$AAr@ 10060dfc     libucrt:nlsdata.obj
 0002:00001e10       ??_C@_1BC@FEMKIFH@?$AAD?$AAe?$AAc?$AAe?$AAm?$AAb?$AAe?$AAr@ 10060e10     libucrt:nlsdata.obj
 0002:00001e24       ??_C@_15ODEHAHHF@?$AAA?$AAM@ 10060e24     libucrt:nlsdata.obj
 0002:00001e2c       ??_C@_15CLMNNGEL@?$AAP?$AAM@ 10060e2c     libucrt:nlsdata.obj
 0002:00001e34       ??_C@_1BC@IEBCMHCM@?$AAM?$AAM?$AA?1?$AAd?$AAd?$AA?1?$AAy?$AAy@ 10060e34     libucrt:nlsdata.obj
 0002:00001e48       ??_C@_1CI@KNAKOEBC@?$AAd?$AAd?$AAd?$AAd?$AA?0?$AA?5?$AAM?$AAM?$AAM?$AAM?$AA?5?$AAd?$AAd?$AA?0?$AA?5@ 10060e48     libucrt:nlsdata.obj
 0002:00001e70       ??_C@_1BC@GDGBMEMK@?$AAH?$AAH?$AA?3?$AAm?$AAm?$AA?3?$AAs?$AAs@ 10060e70     libucrt:nlsdata.obj
 0002:00001e84       ??_C@_1M@BMHNFIME@?$AAe?$AAn?$AA?9?$AAU?$AAS@ 10060e84     libucrt:nlsdata.obj
 0002:00001ee0       ??_C@_1EA@JGEFHKEI@?$AAa?$AAp?$AAi?$AA?9?$AAm?$AAs?$AA?9?$AAw?$AAi?$AAn?$AA?9?$AAc?$AAo?$AAr?$AAe@ 10060ee0     libucrt:winapi_thunks.obj
 0002:00001f20       ??_C@_1DI@IJCEHOCB@?$AAa?$AAp?$AAi?$AA?9?$AAm?$AAs?$AA?9?$AAw?$AAi?$AAn?$AA?9?$AAc?$AAo?$AAr?$AAe@ 10060f20     libucrt:winapi_thunks.obj
 0002:00001f58       ??_C@_1EI@MPIAOHOC@?$AAa?$AAp?$AAi?$AA?9?$AAm?$AAs?$AA?9?$AAw?$AAi?$AAn?$AA?9?$AAc?$AAo?$AAr?$AAe@ 10060f58     libucrt:winapi_thunks.obj
 0002:00001fa0       ??_C@_1FK@FPHCKFIE@?$AAa?$AAp?$AAi?$AA?9?$AAm?$AAs?$AA?9?$AAw?$AAi?$AAn?$AA?9?$AAc?$AAo?$AAr?$AAe@ 10060fa0     libucrt:winapi_thunks.obj
 0002:00002000       ??_C@_1EM@DILCGIIO@?$AAa?$AAp?$AAi?$AA?9?$AAm?$AAs?$AA?9?$AAw?$AAi?$AAn?$AA?9?$AAc?$AAo?$AAr?$AAe@ 10061000     libucrt:winapi_thunks.obj
 0002:0000204c       ??_C@_1DM@LNCGDDPN@?$AAa?$AAp?$AAi?$AA?9?$AAm?$AAs?$AA?9?$AAw?$AAi?$AAn?$AA?9?$AAc?$AAo?$AAr?$AAe@ 1006104c     libucrt:winapi_thunks.obj
 0002:00002088       ??_C@_1DO@FPAPJEMD@?$AAa?$AAp?$AAi?$AA?9?$AAm?$AAs?$AA?9?$AAw?$AAi?$AAn?$AA?9?$AAc?$AAo?$AAr?$AAe@ 10061088     libucrt:winapi_thunks.obj
 0002:000020c8       ??_C@_1DK@NDHNAHIO@?$AAa?$AAp?$AAi?$AA?9?$AAm?$AAs?$AA?9?$AAw?$AAi?$AAn?$AA?9?$AAc?$AAo?$AAr?$AAe@ 100610c8     libucrt:winapi_thunks.obj
 0002:00002104       ??_C@_1DM@KGHDGBCM@?$AAa?$AAp?$AAi?$AA?9?$AAm?$AAs?$AA?9?$AAw?$AAi?$AAn?$AA?9?$AAc?$AAo?$AAr?$AAe@ 10061104     libucrt:winapi_thunks.obj
 0002:00002140       ??_C@_1EO@IJIOEFOH@?$AAa?$AAp?$AAi?$AA?9?$AAm?$AAs?$AA?9?$AAw?$AAi?$AAn?$AA?9?$AAr?$AAt?$AAc?$AAo@ 10061140     libucrt:winapi_thunks.obj
 0002:00002190       ??_C@_1FG@HHGEKANL@?$AAa?$AAp?$AAi?$AA?9?$AAm?$AAs?$AA?9?$AAw?$AAi?$AAn?$AA?9?$AAs?$AAe?$AAc?$AAu@ 10061190     libucrt:winapi_thunks.obj
 0002:000021e8       ??_C@_1EG@DBIOJECG@?$AAe?$AAx?$AAt?$AA?9?$AAm?$AAs?$AA?9?$AAw?$AAi?$AAn?$AA?9?$AAn?$AAt?$AAu?$AAs@ 100611e8     libucrt:winapi_thunks.obj
 0002:00002230       ??_C@_1EO@FIHMJCLF@?$AAe?$AAx?$AAt?$AA?9?$AAm?$AAs?$AA?9?$AAw?$AAi?$AAn?$AA?9?$AAn?$AAt?$AAu?$AAs@ 10061230     libucrt:winapi_thunks.obj
 0002:00002280       ??_C@_1BC@DNHGCMLG@?$AAa?$AAd?$AAv?$AAa?$AAp?$AAi?$AA3?$AA2@ 10061280     libucrt:winapi_thunks.obj
 0002:00002294       ??_C@_1M@OAIMIKLP@?$AAn?$AAt?$AAd?$AAl?$AAl@ 10061294     libucrt:winapi_thunks.obj
 0002:000022a0       ??_C@_1EG@DPGNFKGC@?$AAa?$AAp?$AAi?$AA?9?$AAm?$AAs?$AA?9?$AAw?$AAi?$AAn?$AA?9?$AAa?$AAp?$AAp?$AAm@ 100612a0     libucrt:winapi_thunks.obj
 0002:000022e8       ??_C@_1O@BCCLBEOE@?$AAu?$AAs?$AAe?$AAr?$AA3?$AA2@ 100612e8     libucrt:winapi_thunks.obj
 0002:000022f8       ??_C@_1DM@BPJLHKCE@?$AAa?$AAp?$AAi?$AA?9?$AAm?$AAs?$AA?9?$AAw?$AAi?$AAn?$AA?9?$AAc?$AAo?$AAr?$AAe@ 100612f8     libucrt:winapi_thunks.obj
 0002:00002334       ??_C@_1BA@IAIFMGEF@?$AAe?$AAx?$AAt?$AA?9?$AAm?$AAs?$AA?9@ 10061334     libucrt:winapi_thunks.obj
 0002:00002348       ??_C@_0BA@FHFNEAED@AreFileApisANSI@ 10061348     libucrt:winapi_thunks.obj
 0002:00002360       ??_C@_0BA@IHGNDAEB@CompareStringEx@ 10061360     libucrt:winapi_thunks.obj
 0002:00002378       ??_C@_0BE@LJANKFHF@EnumSystemLocalesEx@ 10061378     libucrt:winapi_thunks.obj
 0002:00002394       ??_C@_0BA@HNOPNCHB@GetActiveWindow@ 10061394     libucrt:winapi_thunks.obj
 0002:000023ac       ??_C@_0BA@EPCJIIPD@GetDateFormatEx@ 100613ac     libucrt:winapi_thunks.obj
 0002:000023c4       ??_C@_0BJ@DIBIJBHA@GetEnabledXStateFeatures@ 100613c4     libucrt:winapi_thunks.obj
 0002:000023e8       ??_C@_0BD@HHGDFDBJ@GetLastActivePopup@ 100613e8     libucrt:winapi_thunks.obj
 0002:00002404       ??_C@_0BA@ONOKGCMP@GetLocaleInfoEx@ 10061404     libucrt:winapi_thunks.obj
 0002:0000241c       ??_C@_0BI@DFKBFLJE@GetProcessWindowStation@ 1006141c     libucrt:winapi_thunks.obj
 0002:00002438       ??_C@_0BP@FPNJPEJC@GetSystemTimePreciseAsFileTime@ 10061438     libucrt:winapi_thunks.obj
 0002:00002460       ??_C@_0BA@CIJJKCJJ@GetTimeFormatEx@ 10061460     libucrt:winapi_thunks.obj
 0002:00002478       ??_C@_0BJ@PBCCBIPI@GetUserDefaultLocaleName@ 10061478     libucrt:winapi_thunks.obj
 0002:0000249c       ??_C@_0BK@DEKFELLI@GetUserObjectInformationW@ 1006149c     libucrt:winapi_thunks.obj
 0002:000024c0       ??_C@_0BG@IKLDMBLM@GetXStateFeaturesMask@ 100614c0     libucrt:winapi_thunks.obj
 0002:000024e8       ??_C@_0BC@CELBKLLA@IsValidLocaleName@ 100614e8     libucrt:winapi_thunks.obj
 0002:00002504       ??_C@_0O@KKBNKAPF@LCMapStringEx@ 10061504     libucrt:winapi_thunks.obj
 0002:0000251c       ??_C@_0BB@CDHDDLLP@LCIDToLocaleName@ 1006151c     libucrt:winapi_thunks.obj
 0002:00002538       ??_C@_0BB@HBDEELFH@LocaleNameToLCID@ 10061538     libucrt:winapi_thunks.obj
 0002:00002554       ??_C@_0BE@KINNKFDA@LocateXStateFeature@ 10061554     libucrt:winapi_thunks.obj
 0002:00002570       ??_C@_0M@CHKKJDAI@MessageBoxA@ 10061570     libucrt:winapi_thunks.obj
 0002:00002584       ??_C@_0M@DLDCCGNP@MessageBoxW@ 10061584     libucrt:winapi_thunks.obj
 0002:00002594       ??_C@_0N@PPOMPGGK@RoInitialize@ 10061594     libucrt:winapi_thunks.obj
 0002:000025a8       ??_C@_0P@LLFHBIJD@RoUninitialize@ 100615a8     libucrt:winapi_thunks.obj
 0002:000025bc       ??_C@_0CF@OJOFEIGO@AppPolicyGetProcessTerminationM@ 100615bc     libucrt:winapi_thunks.obj
 0002:000025e8       ??_C@_0CF@NNDFDCOC@AppPolicyGetThreadInitializatio@ 100615e8     libucrt:winapi_thunks.obj
 0002:00002614       ??_C@_0CE@OICFMIKE@AppPolicyGetShowDeveloperDiagno@ 10061614     libucrt:winapi_thunks.obj
 0002:0000263c       ??_C@_0BL@ODDJNEDA@AppPolicyGetWindowingModel@ 1006163c     libucrt:winapi_thunks.obj
 0002:00002660       ??_C@_0BI@BKLFFAPO@SetThreadStackGuarantee@ 10061660     libucrt:winapi_thunks.obj
 0002:00002680       ??_C@_0BC@JEAENNKH@SystemFunction036@ 10061680     libucrt:winapi_thunks.obj
 0002:000026f8       ??_C@_03OEIAHPBN@INF@      100616f8     libucrt:cvt.obj
 0002:000026fc       ??_C@_03OJHLLCGB@inf@      100616fc     libucrt:cvt.obj
 0002:00002700       ??_C@_03LKNCIKJB@NAN@      10061700     libucrt:cvt.obj
 0002:00002704       ??_C@_03LHCJEHON@nan@      10061704     libucrt:cvt.obj
 0002:00002708       ??_C@_09OFJJIMPC@NAN?$CISNAN?$CJ@ 10061708     libucrt:cvt.obj
 0002:00002714       ??_C@_09IPFBKMDL@nan?$CIsnan?$CJ@ 10061714     libucrt:cvt.obj
 0002:00002720       ??_C@_08IKHNHAJ@NAN?$CIIND?$CJ@ 10061720     libucrt:cvt.obj
 0002:0000272c       ??_C@_08OFCDMILK@nan?$CIind?$CJ@ 1006172c     libucrt:cvt.obj
 0002:00002738       ??_C@_05KLBDPFGC@e?$CL000@ 10061738     libucrt:cvt.obj
 0002:00002740       __sys_first_posix_error    10061740     libucrt:syserr.obj
 0002:00002744       __sys_last_posix_error     10061744     libucrt:syserr.obj
 0002:00002748       __sys_posix_errlist        10061748     libucrt:syserr.obj
 0002:000027f0       __sys_errlist              100617f0     libucrt:syserr.obj
 0002:000028a0       ??_C@_08INEPGKHH@No?5error@ 100618a0     libucrt:syserr.obj
 0002:000028ac       ??_C@_0BI@BJFCGOHL@Operation?5not?5permitted@ 100618ac     libucrt:syserr.obj
 0002:000028c4       ??_C@_0BK@FMDHKPNF@No?5such?5file?5or?5directory@ 100618c4     libucrt:syserr.obj
 0002:000028e0       ??_C@_0BA@FKIAIBGA@No?5such?5process@ 100618e0     libucrt:syserr.obj
 0002:000028f0       ??_C@_0BK@FJBOAFDK@Interrupted?5function?5call@ 100618f0     libucrt:syserr.obj
 0002:0000290c       ??_C@_0BD@KKNFOBBD@Input?1output?5error@ 1006190c     libucrt:syserr.obj
 0002:00002920       ??_C@_0BK@DPKMCKJ@No?5such?5device?5or?5address@ 10061920     libucrt:syserr.obj
 0002:0000293c       ??_C@_0BC@MFFGCDFL@Arg?5list?5too?5long@ 1006193c     libucrt:syserr.obj
 0002:00002950       ??_C@_0BC@HKPNECK@Exec?5format?5error@ 10061950     libucrt:syserr.obj
 0002:00002964       ??_C@_0BE@NFGDDCEF@Bad?5file?5descriptor@ 10061964     libucrt:syserr.obj
 0002:00002978       ??_C@_0BD@LOHELEP@No?5child?5processes@ 10061978     libucrt:syserr.obj
 0002:0000298c       ??_C@_0CB@EPFKGNAK@Resource?5temporarily?5unavailabl@ 1006198c     libucrt:syserr.obj
 0002:000029b0       ??_C@_0BB@IMDKMPFB@Not?5enough?5space@ 100619b0     libucrt:syserr.obj
 0002:000029c4       ??_C@_0BC@HFNFNKAI@Permission?5denied@ 100619c4     libucrt:syserr.obj
 0002:000029d8       ??_C@_0M@LOEHLCJD@Bad?5address@ 100619d8     libucrt:syserr.obj
 0002:000029e4       ??_C@_0O@NIPGCINC@Unknown?5error@ 100619e4     libucrt:syserr.obj
 0002:000029f4       ??_C@_0BA@BIBLIOEK@Resource?5device@ 100619f4     libucrt:syserr.obj
 0002:00002a04       ??_C@_0M@NAAJNNGH@File?5exists@ 10061a04     libucrt:syserr.obj
 0002:00002a10       ??_C@_0O@OAMDNOCP@Improper?5link@ 10061a10     libucrt:syserr.obj
 0002:00002a20       ??_C@_0P@NLEIANHE@No?5such?5device@ 10061a20     libucrt:syserr.obj
 0002:00002a30       ??_C@_0BA@CJBACOOL@Not?5a?5directory@ 10061a30     libucrt:syserr.obj
 0002:00002a40       ??_C@_0P@NDHGCGKE@Is?5a?5directory@ 10061a40     libucrt:syserr.obj
 0002:00002a50       ??_C@_0BB@HMGGCEBG@Invalid?5argument@ 10061a50     libucrt:syserr.obj
 0002:00002a64       ??_C@_0BO@IIFBODJE@Too?5many?5open?5files?5in?5system@ 10061a64     libucrt:syserr.obj
 0002:00002a84       ??_C@_0BE@INBJMKGG@Too?5many?5open?5files@ 10061a84     libucrt:syserr.obj
 0002:00002a98       ??_C@_0CE@ONOKNLPF@Inappropriate?5I?1O?5control?5opera@ 10061a98     libucrt:syserr.obj
 0002:00002abc       ??_C@_0P@LFMMIPAE@File?5too?5large@ 10061abc     libucrt:syserr.obj
 0002:00002acc       ??_C@_0BI@FEALHKLD@No?5space?5left?5on?5device@ 10061acc     libucrt:syserr.obj
 0002:00002ae4       ??_C@_0N@FEHLOILP@Invalid?5seek@ 10061ae4     libucrt:syserr.obj
 0002:00002af4       ??_C@_0BG@DDBFNKBH@Read?9only?5file?5system@ 10061af4     libucrt:syserr.obj
 0002:00002b0c       ??_C@_0P@PKCJJLLM@Too?5many?5links@ 10061b0c     libucrt:syserr.obj
 0002:00002b1c       ??_C@_0M@LHEPIIOM@Broken?5pipe@ 10061b1c     libucrt:syserr.obj
 0002:00002b28       ??_C@_0N@MMJPGLJK@Domain?5error@ 10061b28     libucrt:syserr.obj
 0002:00002b38       ??_C@_0BB@FCBJFCAJ@Result?5too?5large@ 10061b38     libucrt:syserr.obj
 0002:00002b4c       ??_C@_0BK@JAEBMJJM@Resource?5deadlock?5avoided@ 10061b4c     libucrt:syserr.obj
 0002:00002b68       ??_C@_0BC@BEDIHIDK@Filename?5too?5long@ 10061b68     libucrt:syserr.obj
 0002:00002b7c       ??_C@_0BD@CLHBCGPB@No?5locks?5available@ 10061b7c     libucrt:syserr.obj
 0002:00002b90       ??_C@_0BJ@IHEHINLI@Function?5not?5implemented@ 10061b90     libucrt:syserr.obj
 0002:00002bac       ??_C@_0BE@ICMCHPHH@Directory?5not?5empty@ 10061bac     libucrt:syserr.obj
 0002:00002bc0       ??_C@_0BG@KLEAJEFJ@Illegal?5byte?5sequence@ 10061bc0     libucrt:syserr.obj
 0002:00002bd8       ??_C@_0P@LDMLAFHI@address?5in?5use@ 10061bd8     libucrt:syserr.obj
 0002:00002be8       ??_C@_0BG@DHPCNBJB@address?5not?5available@ 10061be8     libucrt:syserr.obj
 0002:00002c00       ??_C@_0BN@LKKBCCDB@address?5family?5not?5supported@ 10061c00     libucrt:syserr.obj
 0002:00002c20       ??_C@_0BP@KAIHPOGN@connection?5already?5in?5progress@ 10061c20     libucrt:syserr.obj
 0002:00002c40       ??_C@_0M@PMMIEFCP@bad?5message@ 10061c40     libucrt:syserr.obj
 0002:00002c4c       ??_C@_0BD@MOLBPMEA@operation?5canceled@ 10061c4c     libucrt:syserr.obj
 0002:00002c60       ??_C@_0BD@MGNDDEGM@connection?5aborted@ 10061c60     libucrt:syserr.obj
 0002:00002c74       ??_C@_0BD@PJLIIJEL@connection?5refused@ 10061c74     libucrt:syserr.obj
 0002:00002c88       ??_C@_0BB@IECNJNOI@connection?5reset@ 10061c88     libucrt:syserr.obj
 0002:00002c9c       ??_C@_0BN@KDMIFEIP@destination?5address?5required@ 10061c9c     libucrt:syserr.obj
 0002:00002cbc       ??_C@_0BB@DHFDFGDM@host?5unreachable@ 10061cbc     libucrt:syserr.obj
 0002:00002cd0       ??_C@_0BD@JPHBMONG@identifier?5removed@ 10061cd0     libucrt:syserr.obj
 0002:00002ce4       ??_C@_0BG@KDKHOPCO@operation?5in?5progress@ 10061ce4     libucrt:syserr.obj
 0002:00002cfc       ??_C@_0BC@DFIBIBIL@already?5connected@ 10061cfc     libucrt:syserr.obj
 0002:00002d10       ??_C@_0BO@EFGOJEF@too?5many?5symbolic?5link?5levels@ 10061d10     libucrt:syserr.obj
 0002:00002d30       ??_C@_0N@IFLPBIOP@message?5size@ 10061d30     libucrt:syserr.obj
 0002:00002d40       ??_C@_0N@KIIEAAIO@network?5down@ 10061d40     libucrt:syserr.obj
 0002:00002d50       ??_C@_0O@FNPDBHEE@network?5reset@ 10061d50     libucrt:syserr.obj
 0002:00002d60       ??_C@_0BE@IFNCKGE@network?5unreachable@ 10061d60     libucrt:syserr.obj
 0002:00002d74       ??_C@_0BA@PFFCAOFK@no?5buffer?5space@ 10061d74     libucrt:syserr.obj
 0002:00002d84       ??_C@_0BF@PBGGPKKE@no?5message?5available@ 10061d84     libucrt:syserr.obj
 0002:00002d9c       ??_C@_07PLECNNKG@no?5link@ 10061d9c     libucrt:syserr.obj
 0002:00002da4       ??_C@_0L@EDOLMPAK@no?5message@ 10061da4     libucrt:syserr.obj
 0002:00002db0       ??_C@_0BD@EAMBFIDF@no?5protocol?5option@ 10061db0     libucrt:syserr.obj
 0002:00002dc4       ??_C@_0BE@MKFDAFMP@no?5stream?5resources@ 10061dc4     libucrt:syserr.obj
 0002:00002dd8       ??_C@_0N@LGAPMMPI@not?5a?5stream@ 10061dd8     libucrt:syserr.obj
 0002:00002de8       ??_C@_0O@GLMIBBEG@not?5connected@ 10061de8     libucrt:syserr.obj
 0002:00002df8       ??_C@_0BG@MPLKFPAE@state?5not?5recoverable@ 10061df8     libucrt:syserr.obj
 0002:00002e10       ??_C@_0N@POEIPGGF@not?5a?5socket@ 10061e10     libucrt:syserr.obj
 0002:00002e20       ??_C@_0O@NHEDABJP@not?5supported@ 10061e20     libucrt:syserr.obj
 0002:00002e30       ??_C@_0BI@LNEGIFLN@operation?5not?5supported@ 10061e30     libucrt:syserr.obj
 0002:00002e48       ??_C@_0BA@KGKGOOJA@value?5too?5large@ 10061e48     libucrt:syserr.obj
 0002:00002e58       ??_C@_0L@BLPOFLNJ@owner?5dead@ 10061e58     libucrt:syserr.obj
 0002:00002e64       ??_C@_0P@FNPOCJBE@protocol?5error@ 10061e64     libucrt:syserr.obj
 0002:00002e74       ??_C@_0BH@JPPPLHJB@protocol?5not?5supported@ 10061e74     libucrt:syserr.obj
 0002:00002e8c       ??_C@_0BE@MIEJDDNH@wrong?5protocol?5type@ 10061e8c     libucrt:syserr.obj
 0002:00002ea0       ??_C@_0P@DIIFGFCG@stream?5timeout@ 10061ea0     libucrt:syserr.obj
 0002:00002eb0       ??_C@_09KJPPMAOI@timed?5out@ 10061eb0     libucrt:syserr.obj
 0002:00002ebc       ??_C@_0P@IPFDMIFL@text?5file?5busy@ 10061ebc     libucrt:syserr.obj
 0002:00002ecc       ??_C@_0BG@OEMDKMEE@operation?5would?5block@ 10061ecc     libucrt:syserr.obj
 0002:00002ee4       __sys_nerr                 10061ee4     libucrt:syserr.obj
 0002:00002ee8       ?ccs@?1???$__acrt_stdio_parse_mode@D@@YA?AU__acrt_stdio_stream_mode@@QBD@Z@4QBDB 10061ee8     libucrt:openfile.obj
 0002:00002eec       ?utf8_encoding@?1???$__acrt_stdio_parse_mode@D@@YA?AU__acrt_stdio_stream_mode@@QBD@Z@4QBDB 10061eec     libucrt:openfile.obj
 0002:00002ef4       ?utf16_encoding@?1???$__acrt_stdio_parse_mode@D@@YA?AU__acrt_stdio_stream_mode@@QBD@Z@4QBDB 10061ef4     libucrt:openfile.obj
 0002:00002efc       ?unicode_encoding@?1???$__acrt_stdio_parse_mode@D@@YA?AU__acrt_stdio_stream_mode@@QBD@Z@4QBDB 10061efc     libucrt:openfile.obj
 0002:00002f04       ?ccs@?1???$__acrt_stdio_parse_mode@_W@@YA?AU__acrt_stdio_stream_mode@@QB_W@Z@4QB_WB 10061f04     libucrt:openfile.obj
 0002:00002f0c       ?utf8_encoding@?1???$__acrt_stdio_parse_mode@_W@@YA?AU__acrt_stdio_stream_mode@@QB_W@Z@4QB_WB 10061f0c     libucrt:openfile.obj
 0002:00002f18       ?utf16_encoding@?1???$__acrt_stdio_parse_mode@_W@@YA?AU__acrt_stdio_stream_mode@@QB_W@Z@4QB_WB 10061f18     libucrt:openfile.obj
 0002:00002f28       ?unicode_encoding@?1???$__acrt_stdio_parse_mode@_W@@YA?AU__acrt_stdio_stream_mode@@QB_W@Z@4QB_WB 10061f28     libucrt:openfile.obj
 0002:00002f48       ??_C@_1M@HPNHIDJI@?$AAj?$AAa?$AA?9?$AAJ?$AAP@ 10061f48     libucrt:mbctype.obj
 0002:00002f54       ??_C@_1M@BIBDDEMK@?$AAz?$AAh?$AA?9?$AAC?$AAN@ 10061f54     libucrt:mbctype.obj
 0002:00002f60       ??_C@_1M@JLOOOEGK@?$AAk?$AAo?$AA?9?$AAK?$AAR@ 10061f60     libucrt:mbctype.obj
 0002:00002f6c       ??_C@_1M@CLNBBOPM@?$AAz?$AAh?$AA?9?$AAT?$AAW@ 10061f6c     libucrt:mbctype.obj
 0002:00002f78       ___newctype                10061f78     libucrt:ctype.obj
 0002:00003278       ___newclmap                10062278     libucrt:ctype.obj
 0002:000033f8       ___newcumap                100623f8     libucrt:ctype.obj
 0002:00003578       __wctype                   10062578     libucrt:ctype.obj
 0002:0000377c       ??_C@_1DE@JNGNBFGO@?$AAR?$AAu?$AAn?$AAt?$AAi?$AAm?$AAe?$AA?5?$AAE?$AAr?$AAr?$AAo?$AAr?$AA?$CB?$AA?6@ 1006277c     libucrt:report_runtime_error.obj
 0002:000037b0       ??_C@_1CO@EAEJAADC@?$AA?$DM?$AAp?$AAr?$AAo?$AAg?$AAr?$AAa?$AAm?$AA?5?$AAn?$AAa?$AAm?$AAe?$AA?5?$AAu@ 100627b0     libucrt:report_runtime_error.obj
 0002:000037e0       ??_C@_17LGKOMLJ@?$AA?4?$AA?4?$AA?4@ 100627e0     libucrt:report_runtime_error.obj
 0002:000037e8       ??_C@_15IABLJNFO@?$AA?6?$AA?6@ 100627e8     libucrt:report_runtime_error.obj
 0002:000037f0       ??_C@_1EK@MBDPDCGA@?$AAM?$AAi?$AAc?$AAr?$AAo?$AAs?$AAo?$AAf?$AAt?$AA?5?$AAV?$AAi?$AAs?$AAu?$AAa@ 100627f0     libucrt:report_runtime_error.obj
 0002:00003840       ___acrt_rg_language        10062840     libucrt:get_qualified_locale.obj
 0002:00003b4c       ___acrt_rg_language_count  10062b4c     libucrt:get_qualified_locale.obj
 0002:00003b50       ___acrt_rg_country         10062b50     libucrt:get_qualified_locale.obj
 0002:00003c64       ___acrt_rg_country_count   10062c64     libucrt:get_qualified_locale.obj
 0002:00003c68       ??_C@_1BC@LLOKLNP@?$AAa?$AAm?$AAe?$AAr?$AAi?$AAc?$AAa?$AAn@ 10062c68     libucrt:get_qualified_locale.obj
 0002:00003c7c       ??_C@_1CC@HEIGCDGG@?$AAa?$AAm?$AAe?$AAr?$AAi?$AAc?$AAa?$AAn?$AA?5?$AAe?$AAn?$AAg?$AAl?$AAi?$AAs@ 10062c7c     libucrt:get_qualified_locale.obj
 0002:00003ca0       ??_C@_1CC@IHCNOMIN@?$AAa?$AAm?$AAe?$AAr?$AAi?$AAc?$AAa?$AAn?$AA?9?$AAe?$AAn?$AAg?$AAl?$AAi?$AAs@ 10062ca0     libucrt:get_qualified_locale.obj
 0002:00003cc4       ??_C@_1BG@GKAGPCGG@?$AAa?$AAu?$AAs?$AAt?$AAr?$AAa?$AAl?$AAi?$AAa?$AAn@ 10062cc4     libucrt:get_qualified_locale.obj
 0002:00003cdc       ??_C@_1BA@GMENCENF@?$AAb?$AAe?$AAl?$AAg?$AAi?$AAa?$AAn@ 10062cdc     libucrt:get_qualified_locale.obj
 0002:00003cec       ??_C@_1BC@PJMIIAAN@?$AAc?$AAa?$AAn?$AAa?$AAd?$AAi?$AAa?$AAn@ 10062cec     libucrt:get_qualified_locale.obj
 0002:00003d00       ??_C@_17NOIMNFBF@?$AAc?$AAh?$AAh@ 10062d00     libucrt:get_qualified_locale.obj
 0002:00003d08       ??_C@_17GGDALCHA@?$AAc?$AAh?$AAi@ 10062d08     libucrt:get_qualified_locale.obj
 0002:00003d10       ??_C@_1BA@NPNJKIBL@?$AAc?$AAh?$AAi?$AAn?$AAe?$AAs?$AAe@ 10062d10     libucrt:get_qualified_locale.obj
 0002:00003d20       ??_C@_1CC@DINBAMMJ@?$AAc?$AAh?$AAi?$AAn?$AAe?$AAs?$AAe?$AA?9?$AAh?$AAo?$AAn?$AAg?$AAk?$AAo?$AAn@ 10062d20     libucrt:get_qualified_locale.obj
 0002:00003d44       ??_C@_1CG@IOBJPACO@?$AAc?$AAh?$AAi?$AAn?$AAe?$AAs?$AAe?$AA?9?$AAs?$AAi?$AAm?$AAp?$AAl?$AAi?$AAf@ 10062d44     libucrt:get_qualified_locale.obj
 0002:00003d6c       ??_C@_1CE@GAJNDCKG@?$AAc?$AAh?$AAi?$AAn?$AAe?$AAs?$AAe?$AA?9?$AAs?$AAi?$AAn?$AAg?$AAa?$AAp?$AAo@ 10062d6c     libucrt:get_qualified_locale.obj
 0002:00003d90       ??_C@_1CI@PAJPIOOD@?$AAc?$AAh?$AAi?$AAn?$AAe?$AAs?$AAe?$AA?9?$AAt?$AAr?$AAa?$AAd?$AAi?$AAt?$AAi@ 10062d90     libucrt:get_qualified_locale.obj
 0002:00003db8       ??_C@_1BM@NILJBMMD@?$AAd?$AAu?$AAt?$AAc?$AAh?$AA?9?$AAb?$AAe?$AAl?$AAg?$AAi?$AAa?$AAn@ 10062db8     libucrt:get_qualified_locale.obj
 0002:00003dd4       ??_C@_1CC@OOJPJNEJ@?$AAe?$AAn?$AAg?$AAl?$AAi?$AAs?$AAh?$AA?9?$AAa?$AAm?$AAe?$AAr?$AAi?$AAc?$AAa@ 10062dd4     libucrt:get_qualified_locale.obj
 0002:00003df8       ??_C@_1BI@IOLFEEM@?$AAe?$AAn?$AAg?$AAl?$AAi?$AAs?$AAh?$AA?9?$AAa?$AAu?$AAs@ 10062df8     libucrt:get_qualified_locale.obj
 0002:00003e10       ??_C@_1BO@HFFNLENJ@?$AAe?$AAn?$AAg?$AAl?$AAi?$AAs?$AAh?$AA?9?$AAb?$AAe?$AAl?$AAi?$AAz?$AAe@ 10062e10     libucrt:get_qualified_locale.obj
 0002:00003e30       ??_C@_1BI@HAPKJMPO@?$AAe?$AAn?$AAg?$AAl?$AAi?$AAs?$AAh?$AA?9?$AAc?$AAa?$AAn@ 10062e30     libucrt:get_qualified_locale.obj
 0002:00003e48       ??_C@_1CE@HLNDMIOJ@?$AAe?$AAn?$AAg?$AAl?$AAi?$AAs?$AAh?$AA?9?$AAc?$AAa?$AAr?$AAi?$AAb?$AAb?$AAe@ 10062e48     libucrt:get_qualified_locale.obj
 0002:00003e6c       ??_C@_1BI@LDHJHHAC@?$AAe?$AAn?$AAg?$AAl?$AAi?$AAs?$AAh?$AA?9?$AAi?$AAr?$AAe@ 10062e6c     libucrt:get_qualified_locale.obj
 0002:00003e84       ??_C@_1CA@NJMMCFOC@?$AAe?$AAn?$AAg?$AAl?$AAi?$AAs?$AAh?$AA?9?$AAj?$AAa?$AAm?$AAa?$AAi?$AAc?$AAa@ 10062e84     libucrt:get_qualified_locale.obj
 0002:00003ea4       ??_C@_1BG@BHJEBBGG@?$AAe?$AAn?$AAg?$AAl?$AAi?$AAs?$AAh?$AA?9?$AAn?$AAz@ 10062ea4     libucrt:get_qualified_locale.obj
 0002:00003ebc       ??_C@_1CK@FGOEJJCO@?$AAe?$AAn?$AAg?$AAl?$AAi?$AAs?$AAh?$AA?9?$AAs?$AAo?$AAu?$AAt?$AAh?$AA?5?$AAa@ 10062ebc     libucrt:get_qualified_locale.obj
 0002:00003ee8       ??_C@_1DE@PDBJPCJ@?$AAe?$AAn?$AAg?$AAl?$AAi?$AAs?$AAh?$AA?9?$AAt?$AAr?$AAi?$AAn?$AAi?$AAd?$AAa@ 10062ee8     libucrt:get_qualified_locale.obj
 0002:00003f1c       ??_C@_1BG@JGCANDME@?$AAe?$AAn?$AAg?$AAl?$AAi?$AAs?$AAh?$AA?9?$AAu?$AAk@ 10062f1c     libucrt:get_qualified_locale.obj
 0002:00003f34       ??_C@_1BG@DINKMLE@?$AAe?$AAn?$AAg?$AAl?$AAi?$AAs?$AAh?$AA?9?$AAu?$AAs@ 10062f34     libucrt:get_qualified_locale.obj
 0002:00003f4c       ??_C@_1BI@NMFDBHJE@?$AAe?$AAn?$AAg?$AAl?$AAi?$AAs?$AAh?$AA?9?$AAu?$AAs?$AAa@ 10062f4c     libucrt:get_qualified_locale.obj
 0002:00003f64       ??_C@_1BO@OIHKJKII@?$AAf?$AAr?$AAe?$AAn?$AAc?$AAh?$AA?9?$AAb?$AAe?$AAl?$AAg?$AAi?$AAa?$AAn@ 10062f64     libucrt:get_qualified_locale.obj
 0002:00003f84       ??_C@_1CA@NKAELJKI@?$AAf?$AAr?$AAe?$AAn?$AAc?$AAh?$AA?9?$AAc?$AAa?$AAn?$AAa?$AAd?$AAi?$AAa?$AAn@ 10062f84     libucrt:get_qualified_locale.obj
 0002:00003fa4       ??_C@_1CE@MGKCNLGN@?$AAf?$AAr?$AAe?$AAn?$AAc?$AAh?$AA?9?$AAl?$AAu?$AAx?$AAe?$AAm?$AAb?$AAo?$AAu@ 10062fa4     libucrt:get_qualified_locale.obj
 0002:00003fc8       ??_C@_1BK@CEGEAILM@?$AAf?$AAr?$AAe?$AAn?$AAc?$AAh?$AA?9?$AAs?$AAw?$AAi?$AAs?$AAs@ 10062fc8     libucrt:get_qualified_locale.obj
 0002:00003fe4       ??_C@_1CA@PAFKEOCC@?$AAg?$AAe?$AAr?$AAm?$AAa?$AAn?$AA?9?$AAa?$AAu?$AAs?$AAt?$AAr?$AAi?$AAa?$AAn@ 10062fe4     libucrt:get_qualified_locale.obj
 0002:00004004       ??_C@_1CI@HCFHGOFD@?$AAg?$AAe?$AAr?$AAm?$AAa?$AAn?$AA?9?$AAl?$AAi?$AAc?$AAh?$AAt?$AAe?$AAn?$AAs@ 10063004     libucrt:get_qualified_locale.obj
 0002:0000402c       ??_C@_1CE@FEDDNPDG@?$AAg?$AAe?$AAr?$AAm?$AAa?$AAn?$AA?9?$AAl?$AAu?$AAx?$AAe?$AAm?$AAb?$AAo?$AAu@ 1006302c     libucrt:get_qualified_locale.obj
 0002:00004050       ??_C@_1BK@LIMINNMN@?$AAg?$AAe?$AAr?$AAm?$AAa?$AAn?$AA?9?$AAs?$AAw?$AAi?$AAs?$AAs@ 10063050     libucrt:get_qualified_locale.obj
 0002:0000406c       ??_C@_1BM@LGMDBEPD@?$AAi?$AAr?$AAi?$AAs?$AAh?$AA?9?$AAe?$AAn?$AAg?$AAl?$AAi?$AAs?$AAh@ 1006306c     libucrt:get_qualified_locale.obj
 0002:00004088       ??_C@_1BM@NNCFBAEE@?$AAi?$AAt?$AAa?$AAl?$AAi?$AAa?$AAn?$AA?9?$AAs?$AAw?$AAi?$AAs?$AAs@ 10063088     libucrt:get_qualified_locale.obj
 0002:000040a4       ??_C@_1BE@FEDJNPIB@?$AAn?$AAo?$AAr?$AAw?$AAe?$AAg?$AAi?$AAa?$AAn@ 100630a4     libucrt:get_qualified_locale.obj
 0002:000040b8       ??_C@_1CC@CILKDEIE@?$AAn?$AAo?$AAr?$AAw?$AAe?$AAg?$AAi?$AAa?$AAn?$AA?9?$AAb?$AAo?$AAk?$AAm?$AAa@ 100630b8     libucrt:get_qualified_locale.obj
 0002:000040dc       ??_C@_1CE@DHMMHEPL@?$AAn?$AAo?$AAr?$AAw?$AAe?$AAg?$AAi?$AAa?$AAn?$AA?9?$AAn?$AAy?$AAn?$AAo?$AAr@ 100630dc     libucrt:get_qualified_locale.obj
 0002:00004100       ??_C@_1CK@OPNMHECD@?$AAp?$AAo?$AAr?$AAt?$AAu?$AAg?$AAu?$AAe?$AAs?$AAe?$AA?9?$AAb?$AAr?$AAa?$AAz@ 10063100     libucrt:get_qualified_locale.obj
 0002:0000412c       ??_C@_1CE@KEEHCDB@?$AAs?$AAp?$AAa?$AAn?$AAi?$AAs?$AAh?$AA?9?$AAa?$AAr?$AAg?$AAe?$AAn?$AAt?$AAi@ 1006312c     libucrt:get_qualified_locale.obj
 0002:00004150       ??_C@_1CA@GIAOLHJD@?$AAs?$AAp?$AAa?$AAn?$AAi?$AAs?$AAh?$AA?9?$AAb?$AAo?$AAl?$AAi?$AAv?$AAi?$AAa@ 10063150     libucrt:get_qualified_locale.obj
 0002:00004170       ??_C@_1BM@OJNDFNPD@?$AAs?$AAp?$AAa?$AAn?$AAi?$AAs?$AAh?$AA?9?$AAc?$AAh?$AAi?$AAl?$AAe@ 10063170     libucrt:get_qualified_locale.obj
 0002:0000418c       ??_C@_1CC@OCOLPALL@?$AAs?$AAp?$AAa?$AAn?$AAi?$AAs?$AAh?$AA?9?$AAc?$AAo?$AAl?$AAo?$AAm?$AAb?$AAi@ 1006318c     libucrt:get_qualified_locale.obj
 0002:000041b0       ??_C@_1CG@BPOFMKBB@?$AAs?$AAp?$AAa?$AAn?$AAi?$AAs?$AAh?$AA?9?$AAc?$AAo?$AAs?$AAt?$AAa?$AA?5?$AAr@ 100631b0     libucrt:get_qualified_locale.obj
 0002:000041d8       ??_C@_1DG@IGOBAPBB@?$AAs?$AAp?$AAa?$AAn?$AAi?$AAs?$AAh?$AA?9?$AAd?$AAo?$AAm?$AAi?$AAn?$AAi?$AAc@ 100631d8     libucrt:get_qualified_locale.obj
 0002:00004210       ??_C@_1CA@JHAPGEGI@?$AAs?$AAp?$AAa?$AAn?$AAi?$AAs?$AAh?$AA?9?$AAe?$AAc?$AAu?$AAa?$AAd?$AAo?$AAr@ 10063210     libucrt:get_qualified_locale.obj
 0002:00004230       ??_C@_1CI@LAPALJPP@?$AAs?$AAp?$AAa?$AAn?$AAi?$AAs?$AAh?$AA?9?$AAe?$AAl?$AA?5?$AAs?$AAa?$AAl?$AAv@ 10063230     libucrt:get_qualified_locale.obj
 0002:00004258       ??_C@_1CE@PDGBOFOM@?$AAs?$AAp?$AAa?$AAn?$AAi?$AAs?$AAh?$AA?9?$AAg?$AAu?$AAa?$AAt?$AAe?$AAm?$AAa@ 10063258     libucrt:get_qualified_locale.obj
 0002:0000427c       ??_C@_1CC@NBEBAODI@?$AAs?$AAp?$AAa?$AAn?$AAi?$AAs?$AAh?$AA?9?$AAh?$AAo?$AAn?$AAd?$AAu?$AAr?$AAa@ 1006327c     libucrt:get_qualified_locale.obj
 0002:000042a0       ??_C@_1CA@LLKGHBMF@?$AAs?$AAp?$AAa?$AAn?$AAi?$AAs?$AAh?$AA?9?$AAm?$AAe?$AAx?$AAi?$AAc?$AAa?$AAn@ 100632a0     libucrt:get_qualified_locale.obj
 0002:000042c0       ??_C@_1BO@LKNDOIGD@?$AAs?$AAp?$AAa?$AAn?$AAi?$AAs?$AAh?$AA?9?$AAm?$AAo?$AAd?$AAe?$AAr?$AAn@ 100632c0     libucrt:get_qualified_locale.obj
 0002:000042e0       ??_C@_1CE@NMDMOEEB@?$AAs?$AAp?$AAa?$AAn?$AAi?$AAs?$AAh?$AA?9?$AAn?$AAi?$AAc?$AAa?$AAr?$AAa?$AAg@ 100632e0     libucrt:get_qualified_locale.obj
 0002:00004304       ??_C@_1BO@LLCBEJGB@?$AAs?$AAp?$AAa?$AAn?$AAi?$AAs?$AAh?$AA?9?$AAp?$AAa?$AAn?$AAa?$AAm?$AAa@ 10063304     libucrt:get_qualified_locale.obj
 0002:00004324       ??_C@_1CC@FKPGGIHO@?$AAs?$AAp?$AAa?$AAn?$AAi?$AAs?$AAh?$AA?9?$AAp?$AAa?$AAr?$AAa?$AAg?$AAu?$AAa@ 10063324     libucrt:get_qualified_locale.obj
 0002:00004348       ??_C@_1BK@CDEIHOOP@?$AAs?$AAp?$AAa?$AAn?$AAi?$AAs?$AAh?$AA?9?$AAp?$AAe?$AAr?$AAu@ 10063348     libucrt:get_qualified_locale.obj
 0002:00004364       ??_C@_1CI@GAHAKKGP@?$AAs?$AAp?$AAa?$AAn?$AAi?$AAs?$AAh?$AA?9?$AAp?$AAu?$AAe?$AAr?$AAt?$AAo?$AA?5@ 10063364     libucrt:get_qualified_locale.obj
 0002:0000438c       ??_C@_1CA@NKJBCAGP@?$AAs?$AAp?$AAa?$AAn?$AAi?$AAs?$AAh?$AA?9?$AAu?$AAr?$AAu?$AAg?$AAu?$AAa?$AAy@ 1006338c     libucrt:get_qualified_locale.obj
 0002:000043ac       ??_C@_1CE@ODILCONM@?$AAs?$AAp?$AAa?$AAn?$AAi?$AAs?$AAh?$AA?9?$AAv?$AAe?$AAn?$AAe?$AAz?$AAu?$AAe@ 100633ac     libucrt:get_qualified_locale.obj
 0002:000043d0       ??_C@_1CA@OBNMCGFO@?$AAs?$AAw?$AAe?$AAd?$AAi?$AAs?$AAh?$AA?9?$AAf?$AAi?$AAn?$AAl?$AAa?$AAn?$AAd@ 100633d0     libucrt:get_qualified_locale.obj
 0002:000043f0       ??_C@_1M@PIPDDPPI@?$AAs?$AAw?$AAi?$AAs?$AAs@ 100633f0     libucrt:get_qualified_locale.obj
 0002:000043fc       ??_C@_15PJPFLCCM@?$AAu?$AAk@ 100633fc     libucrt:get_qualified_locale.obj
 0002:00004404       ??_C@_15GMFIMNFM@?$AAu?$AAs@ 10063404     libucrt:get_qualified_locale.obj
 0002:0000440c       ??_C@_17HAEBFAGL@?$AAu?$AAs?$AAa@ 1006340c     libucrt:get_qualified_locale.obj
 0002:00004414       ??_C@_1BA@DPFJEPHB@?$AAa?$AAm?$AAe?$AAr?$AAi?$AAc?$AAa@ 10063414     libucrt:get_qualified_locale.obj
 0002:00004424       ??_C@_1BA@ELOGGFK@?$AAb?$AAr?$AAi?$AAt?$AAa?$AAi?$AAn@ 10063424     libucrt:get_qualified_locale.obj
 0002:00004434       ??_C@_1M@GHBGIGDA@?$AAc?$AAh?$AAi?$AAn?$AAa@ 10063434     libucrt:get_qualified_locale.obj
 0002:00004440       ??_C@_1M@NCHEJOPO@?$AAc?$AAz?$AAe?$AAc?$AAh@ 10063440     libucrt:get_qualified_locale.obj
 0002:0000444c       ??_C@_1BA@BKPAPBLA@?$AAe?$AAn?$AAg?$AAl?$AAa?$AAn?$AAd@ 1006344c     libucrt:get_qualified_locale.obj
 0002:0000445c       ??_C@_1BM@HKBCKIPC@?$AAg?$AAr?$AAe?$AAa?$AAt?$AA?5?$AAb?$AAr?$AAi?$AAt?$AAa?$AAi?$AAn@ 1006345c     libucrt:get_qualified_locale.obj
 0002:00004478       ??_C@_1BA@PPCHPGJB@?$AAh?$AAo?$AAl?$AAl?$AAa?$AAn?$AAd@ 10063478     libucrt:get_qualified_locale.obj
 0002:00004488       ??_C@_1BE@JBMPEGDG@?$AAh?$AAo?$AAn?$AAg?$AA?9?$AAk?$AAo?$AAn?$AAg@ 10063488     libucrt:get_qualified_locale.obj
 0002:0000449c       ??_C@_1BI@KOELBBPJ@?$AAn?$AAe?$AAw?$AA?9?$AAz?$AAe?$AAa?$AAl?$AAa?$AAn?$AAd@ 1006349c     libucrt:get_qualified_locale.obj
 0002:000044b4       ??_C@_15HIEBHAIO@?$AAn?$AAz@ 100634b4     libucrt:get_qualified_locale.obj
 0002:000044bc       ??_C@_1BC@CHBCPFPI@?$AAp?$AAr?$AA?5?$AAc?$AAh?$AAi?$AAn?$AAa@ 100634bc     libucrt:get_qualified_locale.obj
 0002:000044d0       ??_C@_1BC@JAOIIFKD@?$AAp?$AAr?$AA?9?$AAc?$AAh?$AAi?$AAn?$AAa@ 100634d0     libucrt:get_qualified_locale.obj
 0002:000044e4       ??_C@_1BI@BEHPPHKC@?$AAp?$AAu?$AAe?$AAr?$AAt?$AAo?$AA?9?$AAr?$AAi?$AAc?$AAo@ 100634e4     libucrt:get_qualified_locale.obj
 0002:000044fc       ??_C@_1O@PAEOFKDI@?$AAs?$AAl?$AAo?$AAv?$AAa?$AAk@ 100634fc     libucrt:get_qualified_locale.obj
 0002:0000450c       ??_C@_1BK@FIHMCKAM@?$AAs?$AAo?$AAu?$AAt?$AAh?$AA?5?$AAa?$AAf?$AAr?$AAi?$AAc?$AAa@ 1006350c     libucrt:get_qualified_locale.obj
 0002:00004528       ??_C@_1BI@NAEOODKB@?$AAs?$AAo?$AAu?$AAt?$AAh?$AA?5?$AAk?$AAo?$AAr?$AAe?$AAa@ 10063528     libucrt:get_qualified_locale.obj
 0002:00004540       ??_C@_1BK@FBDGGIFF@?$AAs?$AAo?$AAu?$AAt?$AAh?$AA?9?$AAa?$AAf?$AAr?$AAi?$AAc?$AAa@ 10063540     libucrt:get_qualified_locale.obj
 0002:0000455c       ??_C@_1BI@GHLEJDPK@?$AAs?$AAo?$AAu?$AAt?$AAh?$AA?9?$AAk?$AAo?$AAr?$AAe?$AAa@ 1006355c     libucrt:get_qualified_locale.obj
 0002:00004574       ??_C@_1CE@PLHLOMJF@?$AAt?$AAr?$AAi?$AAn?$AAi?$AAd?$AAa?$AAd?$AA?5?$AA?$CG?$AA?5?$AAt?$AAo?$AAb?$AAa@ 10063574     libucrt:get_qualified_locale.obj
 0002:00004598       ??_C@_1BO@MODIMHHI@?$AAu?$AAn?$AAi?$AAt?$AAe?$AAd?$AA?9?$AAk?$AAi?$AAn?$AAg?$AAd?$AAo?$AAm@ 10063598     libucrt:get_qualified_locale.obj
 0002:000045b8       ??_C@_1BM@FFHJONBJ@?$AAu?$AAn?$AAi?$AAt?$AAe?$AAd?$AA?9?$AAs?$AAt?$AAa?$AAt?$AAe?$AAs@ 100635b8     libucrt:get_qualified_locale.obj
 0002:000045d4       ??_C@_19MPDNHKDG@?$AAu?$AAt?$AAf?$AA8@ 100635d4     libucrt:get_qualified_locale.obj
 0002:000045e0       ??_C@_17DNCLJFIF@?$AAA?$AAC?$AAP@ 100635e0     libucrt:get_qualified_locale.obj
 0002:000045e8       ??_C@_1M@FPEIIFAM@?$AAu?$AAt?$AAf?$AA?9?$AA8@ 100635e8     libucrt:get_qualified_locale.obj
 0002:000045f4       ??_C@_17CIKBIHLH@?$AAO?$AAC?$AAP@ 100635f4     libucrt:get_qualified_locale.obj
 0002:000045fc       ___rglangidNotDefault      100635fc     libucrt:getqloc_downlevel.obj
 0002:00004d30       ??_C@_15EMKDOKLE@?$AAa?$AAr@ 10063d30     libucrt:lcidtoname_downlevel.obj
 0002:00004d38       ??_C@_15KNPADPLH@?$AAb?$AAg@ 10063d38     libucrt:lcidtoname_downlevel.obj
 0002:00004d40       ??_C@_15EDMHLDMO@?$AAc?$AAa@ 10063d40     libucrt:lcidtoname_downlevel.obj
 0002:00004d48       ??_C@_1O@BPEAJADD@?$AAz?$AAh?$AA?9?$AAC?$AAH?$AAS@ 10063d48     libucrt:lcidtoname_downlevel.obj
 0002:00004d58       ??_C@_15LJNHCMNK@?$AAc?$AAs@ 10063d58     libucrt:lcidtoname_downlevel.obj
 0002:00004d60       ??_C@_15FOMCIDHG@?$AAd?$AAa@ 10063d60     libucrt:lcidtoname_downlevel.obj
 0002:00004d68       ??_C@_15NBKABECB@?$AAd?$AAe@ 10063d68     libucrt:lcidtoname_downlevel.obj
 0002:00004d70       ??_C@_15GHPEIIAO@?$AAe?$AAl@ 10063d70     libucrt:lcidtoname_downlevel.obj
 0002:00004d78       ??_C@_15MNPNEAIF@?$AAe?$AAn@ 10063d78     libucrt:lcidtoname_downlevel.obj
 0002:00004d80       ??_C@_15GPIOMPMH@?$AAe?$AAs@ 10063d80     libucrt:lcidtoname_downlevel.obj
 0002:00004d88       ??_C@_15NGLOAKJC@?$AAf?$AAi@ 10063d88     libucrt:lcidtoname_downlevel.obj
 0002:00004d90       ??_C@_15FBKGNKAM@?$AAf?$AAr@ 10063d90     libucrt:lcidtoname_downlevel.obj
 0002:00004d98       ??_C@_15KGGCNEFK@?$AAh?$AAe@ 10063d98     libucrt:lcidtoname_downlevel.obj
 0002:00004da0       ??_C@_15PGHLIDMF@?$AAh?$AAu@ 10063da0     libucrt:lcidtoname_downlevel.obj
 0002:00004da8       ??_C@_15BIEMAPLM@?$AAi?$AAs@ 10063da8     libucrt:lcidtoname_downlevel.obj
 0002:00004db0       ??_C@_15IFJLDHAF@?$AAi?$AAt@ 10063db0     libucrt:lcidtoname_downlevel.obj
 0002:00004db8       ??_C@_15GEMIOCAG@?$AAj?$AAa@ 10063db8     libucrt:lcidtoname_downlevel.obj
 0002:00004dc0       ??_C@_15EPELEGJA@?$AAk?$AAo@ 10063dc0     libucrt:lcidtoname_downlevel.obj
 0002:00004dc8       ??_C@_15NDDHIMN@?$AAn?$AAl@ 10063dc8     libucrt:lcidtoname_downlevel.obj
 0002:00004dd0       ??_C@_15BPIGNHCD@?$AAn?$AAo@ 10063dd0     libucrt:lcidtoname_downlevel.obj
 0002:00004dd8       ??_C@_15DEOPBLCG@?$AAp?$AAl@ 10063dd8     libucrt:lcidtoname_downlevel.obj
 0002:00004de0       ??_C@_15KBECGEFG@?$AAp?$AAt@ 10063de0     libucrt:lcidtoname_downlevel.obj
 0002:00004de8       ??_C@_15GLJCBFMD@?$AAr?$AAo@ 10063de8     libucrt:lcidtoname_downlevel.obj
 0002:00004df0       ??_C@_15FEDGKCDI@?$AAr?$AAu@ 10063df0     libucrt:lcidtoname_downlevel.obj
 0002:00004df8       ??_C@_15GLKMLLHM@?$AAh?$AAr@ 10063df8     libucrt:lcidtoname_downlevel.obj
 0002:00004e00       ??_C@_15CPKMFBDB@?$AAs?$AAk@ 10063e00     libucrt:lcidtoname_downlevel.obj
 0002:00004e08       ??_C@_15BAAIOGMK@?$AAs?$AAq@ 10063e08     libucrt:lcidtoname_downlevel.obj
 0002:00004e10       ??_C@_15INNPNOHD@?$AAs?$AAv@ 10063e10     libucrt:lcidtoname_downlevel.obj
 0002:00004e18       ??_C@_15CABMMOGH@?$AAt?$AAh@ 10063e18     libucrt:lcidtoname_downlevel.obj
 0002:00004e20       ??_C@_15BPLIHJJM@?$AAt?$AAr@ 10063e20     libucrt:lcidtoname_downlevel.obj
 0002:00004e28       ??_C@_15NEOEKKDJ@?$AAu?$AAr@ 10063e28     libucrt:lcidtoname_downlevel.obj
 0002:00004e30       ??_C@_15NFICGAJK@?$AAi?$AAd@ 10063e30     libucrt:lcidtoname_downlevel.obj
 0002:00004e38       ??_C@_15HPJPHDM@?$AAb?$AAe@ 10063e38     libucrt:lcidtoname_downlevel.obj
 0002:00004e40       ??_C@_15LCHLGJII@?$AAs?$AAl@ 10063e40     libucrt:lcidtoname_downlevel.obj
 0002:00004e48       ??_C@_15PCFJPHHO@?$AAe?$AAt@ 10063e48     libucrt:lcidtoname_downlevel.obj
 0002:00004e50       ??_C@_15HPFPGODN@?$AAl?$AAv@ 10063e50     libucrt:lcidtoname_downlevel.obj
 0002:00004e58       ??_C@_15NFFGKGLG@?$AAl?$AAt@ 10063e58     libucrt:lcidtoname_downlevel.obj
 0002:00004e60       ??_C@_15BDAKCCHN@?$AAf?$AAa@ 10063e60     libucrt:lcidtoname_downlevel.obj
 0002:00004e68       ??_C@_15NFGIAIAJ@?$AAv?$AAi@ 10063e68     libucrt:lcidtoname_downlevel.obj
 0002:00004e70       ??_C@_15LMKNDMHN@?$AAh?$AAy@ 10063e70     libucrt:lcidtoname_downlevel.obj
 0002:00004e78       ??_C@_15IJBHMCFL@?$AAa?$AAz@ 10063e78     libucrt:lcidtoname_downlevel.obj
 0002:00004e80       ??_C@_15EKOFJABL@?$AAe?$AAu@ 10063e80     libucrt:lcidtoname_downlevel.obj
 0002:00004e88       ??_C@_15BGHADCNK@?$AAm?$AAk@ 10063e88     libucrt:lcidtoname_downlevel.obj
 0002:00004e90       ??_C@_15JDNICKHM@?$AAa?$AAf@ 10063e90     libucrt:lcidtoname_downlevel.obj
 0002:00004e98       ??_C@_15KPJEDBKD@?$AAk?$AAa@ 10063e98     libucrt:lcidtoname_downlevel.obj
 0002:00004ea0       ??_C@_15PDNFFFEO@?$AAf?$AAo@ 10063ea0     libucrt:lcidtoname_downlevel.obj
 0002:00004ea8       ??_C@_15OMLEGLOC@?$AAh?$AAi@ 10063ea8     libucrt:lcidtoname_downlevel.obj
 0002:00004eb0       ??_C@_15IDNNENKK@?$AAm?$AAs@ 10063eb0     libucrt:lcidtoname_downlevel.obj
 0002:00004eb8       ??_C@_15MACJNBMH@?$AAk?$AAk@ 10063eb8     libucrt:lcidtoname_downlevel.obj
 0002:00004ec0       ??_C@_15DKDJEOND@?$AAk?$AAy@ 10063ec0     libucrt:lcidtoname_downlevel.obj
 0002:00004ec8       ??_C@_15DFGDLJBG@?$AAs?$AAw@ 10063ec8     libucrt:lcidtoname_downlevel.obj
 0002:00004ed0       ??_C@_15BBFAICNG@?$AAu?$AAz@ 10063ed0     libucrt:lcidtoname_downlevel.obj
 0002:00004ed8       ??_C@_15DKNDCGEA@?$AAt?$AAt@ 10063ed8     libucrt:lcidtoname_downlevel.obj
 0002:00004ee0       ??_C@_15MGIFMDPL@?$AAp?$AAa@ 10063ee0     libucrt:lcidtoname_downlevel.obj
 0002:00004ee8       ??_C@_15HCNDBBA@?$AAg?$AAu@ 10063ee8     libucrt:lcidtoname_downlevel.obj
 0002:00004ef0       ??_C@_15FNBEIBON@?$AAt?$AAa@ 10063ef0     libucrt:lcidtoname_downlevel.obj
 0002:00004ef8       ??_C@_15NCHGBGLK@?$AAt?$AAe@ 10063ef8     libucrt:lcidtoname_downlevel.obj
 0002:00004f00       ??_C@_15PHPHCBPF@?$AAk?$AAn@ 10063f00     libucrt:lcidtoname_downlevel.obj
 0002:00004f08       ??_C@_15DLGBCKMP@?$AAm?$AAr@ 10063f08     libucrt:lcidtoname_downlevel.obj
 0002:00004f10       ??_C@_15EABBLBFF@?$AAs?$AAa@ 10063f10     libucrt:lcidtoname_downlevel.obj
 0002:00004f18       ??_C@_15CBKOMCOI@?$AAm?$AAn@ 10063f18     libucrt:lcidtoname_downlevel.obj
 0002:00004f20       ??_C@_15CKDMCJAF@?$AAg?$AAl@ 10063f20     libucrt:lcidtoname_downlevel.obj
 0002:00004f28       ??_C@_17CNJFBPG@?$AAk?$AAo?$AAk@ 10063f28     libucrt:lcidtoname_downlevel.obj
 0002:00004f30       ??_C@_17FFBJICPL@?$AAs?$AAy?$AAr@ 10063f30     libucrt:lcidtoname_downlevel.obj
 0002:00004f38       ??_C@_17KPNDCPAF@?$AAd?$AAi?$AAv@ 10063f38     libucrt:lcidtoname_downlevel.obj
 0002:00004f40       ??_C@_11LOCGONAA@@         10063f40     libucrt:lcidtoname_downlevel.obj
 0002:00004f44       ??_C@_1M@OKAHONE@?$AAa?$AAr?$AA?9?$AAS?$AAA@ 10063f44     libucrt:lcidtoname_downlevel.obj
 0002:00004f50       ??_C@_1M@FFFIGIGK@?$AAb?$AAg?$AA?9?$AAB?$AAG@ 10063f50     libucrt:lcidtoname_downlevel.obj
 0002:00004f5c       ??_C@_1M@BJNKEDC@?$AAc?$AAa?$AA?9?$AAE?$AAS@ 10063f5c     libucrt:lcidtoname_downlevel.obj
 0002:00004f68       ??_C@_1M@IJJHFJHA@?$AAc?$AAs?$AA?9?$AAC?$AAZ@ 10063f68     libucrt:lcidtoname_downlevel.obj
 0002:00004f74       ??_C@_1M@CLPEOBGI@?$AAd?$AAa?$AA?9?$AAD?$AAK@ 10063f74     libucrt:lcidtoname_downlevel.obj
 0002:00004f80       ??_C@_1M@MCMADGCB@?$AAd?$AAe?$AA?9?$AAD?$AAE@ 10063f80     libucrt:lcidtoname_downlevel.obj
 0002:00004f8c       ??_C@_1M@OOCKEMAM@?$AAe?$AAl?$AA?9?$AAG?$AAR@ 10063f8c     libucrt:lcidtoname_downlevel.obj
 0002:00004f98       ??_C@_1M@DDNJFGID@?$AAf?$AAi?$AA?9?$AAF?$AAI@ 10063f98     libucrt:lcidtoname_downlevel.obj
 0002:00004fa4       ??_C@_1M@GLIPPMAC@?$AAf?$AAr?$AA?9?$AAF?$AAR@ 10063fa4     libucrt:lcidtoname_downlevel.obj
 0002:00004fb0       ??_C@_1M@GFMCHPE@?$AAh?$AAe?$AA?9?$AAI?$AAL@ 10063fb0     libucrt:lcidtoname_downlevel.obj
 0002:00004fbc       ??_C@_1M@MHLPGNKM@?$AAh?$AAu?$AA?9?$AAH?$AAU@ 10063fbc     libucrt:lcidtoname_downlevel.obj
 0002:00004fc8       ??_C@_1M@LPDDNNPN@?$AAi?$AAs?$AA?9?$AAI?$AAS@ 10063fc8     libucrt:lcidtoname_downlevel.obj
 0002:00004fd4       ??_C@_1M@MADIPODN@?$AAi?$AAt?$AA?9?$AAI?$AAT@ 10063fd4     libucrt:lcidtoname_downlevel.obj
 0002:00004fe0       ??_C@_1M@IHBJJGG@?$AAn?$AAl?$AA?9?$AAN?$AAL@ 10063fe0     libucrt:lcidtoname_downlevel.obj
 0002:00004fec       ??_C@_1M@EANAGDL@?$AAn?$AAb?$AA?9?$AAN?$AAO@ 10063fec     libucrt:lcidtoname_downlevel.obj
 0002:00004ff8       ??_C@_1M@NEIEMEGP@?$AAp?$AAl?$AA?9?$AAP?$AAL@ 10063ff8     libucrt:lcidtoname_downlevel.obj
 0002:00005004       ??_C@_1M@BOCFIGEP@?$AAp?$AAt?$AA?9?$AAB?$AAR@ 10064004     libucrt:lcidtoname_downlevel.obj
 0002:00005010       ??_C@_1M@IMPFOPBG@?$AAr?$AAo?$AA?9?$AAR?$AAO@ 10064010     libucrt:lcidtoname_downlevel.obj
 0002:0000501c       ??_C@_1M@IDNNEJMM@?$AAr?$AAu?$AA?9?$AAR?$AAU@ 1006401c     libucrt:lcidtoname_downlevel.obj
 0002:00005028       ??_C@_1M@LILEEOGM@?$AAh?$AAr?$AA?9?$AAH?$AAR@ 10064028     libucrt:lcidtoname_downlevel.obj
 0002:00005034       ??_C@_1M@FKIFEHPB@?$AAs?$AAk?$AA?9?$AAS?$AAK@ 10064034     libucrt:lcidtoname_downlevel.obj
 0002:00005040       ??_C@_1M@LJMAMNPJ@?$AAs?$AAq?$AA?9?$AAA?$AAL@ 10064040     libucrt:lcidtoname_downlevel.obj
 0002:0000504c       ??_C@_1M@GIAKDKJK@?$AAs?$AAv?$AA?9?$AAS?$AAE@ 1006404c     libucrt:lcidtoname_downlevel.obj
 0002:00005058       ??_C@_1M@MKJKIKCL@?$AAt?$AAh?$AA?9?$AAT?$AAH@ 10064058     libucrt:lcidtoname_downlevel.obj
 0002:00005064       ??_C@_1M@MFLCCMPB@?$AAt?$AAr?$AA?9?$AAT?$AAR@ 10064064     libucrt:lcidtoname_downlevel.obj
 0002:00005070       ??_C@_1M@OIJHDKJN@?$AAu?$AAr?$AA?9?$AAP?$AAK@ 10064070     libucrt:lcidtoname_downlevel.obj
 0002:0000507c       ??_C@_1M@LHIPCIEK@?$AAi?$AAd?$AA?9?$AAI?$AAD@ 1006407c     libucrt:lcidtoname_downlevel.obj
 0002:00005088       ??_C@_1M@MFMOBGI@?$AAu?$AAk?$AA?9?$AAU?$AAA@ 10064088     libucrt:lcidtoname_downlevel.obj
 0002:00005094       ??_C@_1M@OBGLJIPL@?$AAb?$AAe?$AA?9?$AAB?$AAY@ 10064094     libucrt:lcidtoname_downlevel.obj
 0002:000050a0       ??_C@_1M@BCFAJEAD@?$AAs?$AAl?$AA?9?$AAS?$AAI@ 100640a0     libucrt:lcidtoname_downlevel.obj
 0002:000050ac       ??_C@_1M@FKFFEDDN@?$AAe?$AAt?$AA?9?$AAE?$AAE@ 100640ac     libucrt:lcidtoname_downlevel.obj
 0002:000050b8       ??_C@_1M@KGKKAACI@?$AAl?$AAv?$AA?9?$AAL?$AAV@ 100640b8     libucrt:lcidtoname_downlevel.obj
 0002:000050c4       ??_C@_1M@IFGBIJO@?$AAl?$AAt?$AA?9?$AAL?$AAT@ 100640c4     libucrt:lcidtoname_downlevel.obj
 0002:000050d0       ??_C@_1M@FGEAHEDM@?$AAf?$AAa?$AA?9?$AAI?$AAR@ 100640d0     libucrt:lcidtoname_downlevel.obj
 0002:000050dc       ??_C@_1M@KBMAIBFN@?$AAv?$AAi?$AA?9?$AAV?$AAN@ 100640dc     libucrt:lcidtoname_downlevel.obj
 0002:000050e8       ??_C@_1M@GPCBKDJK@?$AAh?$AAy?$AA?9?$AAA?$AAM@ 100640e8     libucrt:lcidtoname_downlevel.obj
 0002:000050f4       ??_C@_1BG@BECMDDJB@?$AAa?$AAz?$AA?9?$AAA?$AAZ?$AA?9?$AAL?$AAa?$AAt?$AAn@ 100640f4     libucrt:lcidtoname_downlevel.obj
 0002:0000510c       ??_C@_1M@MAOFCAEA@?$AAe?$AAu?$AA?9?$AAE?$AAS@ 1006410c     libucrt:lcidtoname_downlevel.obj
 0002:00005118       ??_C@_1M@IGHABKPI@?$AAm?$AAk?$AA?9?$AAM?$AAK@ 10064118     libucrt:lcidtoname_downlevel.obj
 0002:00005124       ??_C@_1M@IAIGNEJG@?$AAt?$AAn?$AA?9?$AAZ?$AAA@ 10064124     libucrt:lcidtoname_downlevel.obj
 0002:00005130       ??_C@_1M@IIJCOJFA@?$AAx?$AAh?$AA?9?$AAZ?$AAA@ 10064130     libucrt:lcidtoname_downlevel.obj
 0002:0000513c       ??_C@_1M@LGPJHNJH@?$AAz?$AAu?$AA?9?$AAZ?$AAA@ 1006413c     libucrt:lcidtoname_downlevel.obj
 0002:00005148       ??_C@_1M@HOKAOIO@?$AAa?$AAf?$AA?9?$AAZ?$AAA@ 10064148     libucrt:lcidtoname_downlevel.obj
 0002:00005154       ??_C@_1M@DPCLHLIE@?$AAk?$AAa?$AA?9?$AAG?$AAE@ 10064154     libucrt:lcidtoname_downlevel.obj
 0002:00005160       ??_C@_1M@BLKMHJBI@?$AAf?$AAo?$AA?9?$AAF?$AAO@ 10064160     libucrt:lcidtoname_downlevel.obj
 0002:0000516c       ??_C@_1M@LGGJAPPB@?$AAh?$AAi?$AA?9?$AAI?$AAN@ 1006416c     libucrt:lcidtoname_downlevel.obj
 0002:00005178       ??_C@_1M@FIKPIHFE@?$AAm?$AAt?$AA?9?$AAM?$AAT@ 10064178     libucrt:lcidtoname_downlevel.obj
