; Listing generated by Microsoft (R) Optimizing Compiler Version 19.36.32537.0 

	TITLE	d:\code\alastor\thirdparty\zlib\contrib\vstudio\vc14\x86\zlibdllrelease\tmp\gzwrite.obj
	.686P
	.XMM
	include listing.inc
	.model	flat

INCLUDELIB OLDNAMES

PUBLIC	??_C@_0CH@DEEGAHIB@internal?5error?3?5deflate?5stream?5@ ; `string'
PUBLIC	??_C@_0CF@MLPJFDMM@requested?5length?5does?5not?5fit?5i@ ; `string'
PUBLIC	??_C@_0CC@ENDIFONJ@string?5length?5does?5not?5fit?5in?5i@ ; `string'
EXTRN	__write:PROC
;	COMDAT ??_C@_0CC@ENDIFONJ@string?5length?5does?5not?5fit?5in?5i@
CONST	SEGMENT
??_C@_0CC@ENDIFONJ@string?5length?5does?5not?5fit?5in?5i@ DB 'string leng'
	DB	'th does not fit in int', 00H		; `string'
CONST	ENDS
;	COMDAT ??_C@_0CF@MLPJFDMM@requested?5length?5does?5not?5fit?5i@
CONST	SEGMENT
??_C@_0CF@MLPJFDMM@requested?5length?5does?5not?5fit?5i@ DB 'requested le'
	DB	'ngth does not fit in int', 00H		; `string'
CONST	ENDS
;	COMDAT ??_C@_0CH@DEEGAHIB@internal?5error?3?5deflate?5stream?5@
CONST	SEGMENT
??_C@_0CH@DEEGAHIB@internal?5error?3?5deflate?5stream?5@ DB 'internal err'
	DB	'or: deflate stream corrupt', 00H		; `string'
PUBLIC	_gzsetparams@12
PUBLIC	_gzflush@8
PUBLIC	_gzprintf
PUBLIC	_gzvprintf
PUBLIC	_gzputs@8
PUBLIC	_gzputc@8
PUBLIC	_gzfwrite@16
PUBLIC	_gzwrite@12
PUBLIC	_gzclose_w@4
END
