; Listing generated by Microsoft (R) Optimizing Compiler Version 19.36.32537.0 

include listing.inc

INCLUDELIB OLDNAMES

PUBLIC	??_C@_0CH@DEEGAHIB@internal?5error?3?5deflate?5stream?5@ ; `string'
PUBLIC	??_C@_0CF@MLPJFDMM@requested?5length?5does?5not?5fit?5i@ ; `string'
PUBLIC	??_C@_0CC@ENDIFONJ@string?5length?5does?5not?5fit?5in?5i@ ; `string'
EXTRN	__imp__write:PROC
;	COMDAT ??_C@_0CC@ENDIFONJ@string?5length?5does?5not?5fit?5in?5i@
CONST	SEGMENT
??_C@_0CC@ENDIFONJ@string?5length?5does?5not?5fit?5in?5i@ DB 'string leng'
	DB	'th does not fit in int', 00H		; `string'
CONST	ENDS
;	COMDAT ??_C@_0CF@MLPJFDMM@requested?5length?5does?5not?5fit?5i@
CONST	SEGMENT
??_C@_0CF@MLPJFDMM@requested?5length?5does?5not?5fit?5i@ DB 'requested le'
	DB	'ngth does not fit in int', 00H		; `string'
CONST	ENDS
;	COMDAT ??_C@_0CH@DEEGAHIB@internal?5error?3?5deflate?5stream?5@
CONST	SEGMENT
??_C@_0CH@DEEGAHIB@internal?5error?3?5deflate?5stream?5@ DB 'internal err'
	DB	'or: deflate stream corrupt', 00H		; `string'
PUBLIC	gzsetparams
PUBLIC	gzflush
PUBLIC	gzprintf
PUBLIC	gzvprintf
PUBLIC	gzputs
PUBLIC	gzputc
PUBLIC	gzfwrite
PUBLIC	gzwrite
PUBLIC	gzclose_w
;	COMDAT pdata
pdata	SEGMENT
$pdata$gzsetparams DD imagerel $LN28@gzsetparam
	DD	imagerel $LN28@gzsetparam+177
	DD	imagerel $unwind$gzsetparams
pdata	ENDS
;	COMDAT pdata
pdata	SEGMENT
$pdata$gzflush DD imagerel $LN21@gzflush
	DD	imagerel $LN21@gzflush+107
	DD	imagerel $unwind$gzflush
pdata	ENDS
;	COMDAT pdata
pdata	SEGMENT
$pdata$gzprintf DD imagerel $LN4@gzprintf
	DD	imagerel $LN4@gzprintf+34
	DD	imagerel $unwind$gzprintf
pdata	ENDS
;	COMDAT pdata
pdata	SEGMENT
$pdata$gzvprintf DD imagerel $LN38@gzvprintf
	DD	imagerel $LN38@gzvprintf+129
	DD	imagerel $unwind$gzvprintf
pdata	ENDS
;	COMDAT pdata
pdata	SEGMENT
$pdata$1$gzvprintf DD imagerel $LN38@gzvprintf+129
	DD	imagerel $LN38@gzvprintf+331
	DD	imagerel $chain$1$gzvprintf
pdata	ENDS
;	COMDAT pdata
pdata	SEGMENT
$pdata$3$gzvprintf DD imagerel $LN38@gzvprintf+331
	DD	imagerel $LN38@gzvprintf+374
	DD	imagerel $chain$3$gzvprintf
pdata	ENDS
;	COMDAT pdata
pdata	SEGMENT
$pdata$4$gzvprintf DD imagerel $LN38@gzvprintf+374
	DD	imagerel $LN38@gzvprintf+396
	DD	imagerel $chain$4$gzvprintf
pdata	ENDS
;	COMDAT pdata
pdata	SEGMENT
$pdata$gzputs DD imagerel $LN18@gzputs
	DD	imagerel $LN18@gzputs+33
	DD	imagerel $unwind$gzputs
pdata	ENDS
;	COMDAT pdata
pdata	SEGMENT
$pdata$0$gzputs DD imagerel $LN18@gzputs+33
	DD	imagerel $LN18@gzputs+95
	DD	imagerel $chain$0$gzputs
pdata	ENDS
;	COMDAT pdata
pdata	SEGMENT
$pdata$2$gzputs DD imagerel $LN18@gzputs+95
	DD	imagerel $LN18@gzputs+125
	DD	imagerel $chain$2$gzputs
pdata	ENDS
;	COMDAT pdata
pdata	SEGMENT
$pdata$3$gzputs DD imagerel $LN18@gzputs+125
	DD	imagerel $LN18@gzputs+138
	DD	imagerel $chain$3$gzputs
pdata	ENDS
;	COMDAT pdata
pdata	SEGMENT
$pdata$gzputc DD imagerel $LN26@gzputc
	DD	imagerel $LN26@gzputc+202
	DD	imagerel $unwind$gzputc
pdata	ENDS
;	COMDAT pdata
pdata	SEGMENT
$pdata$gzfwrite DD imagerel $LN17@gzfwrite
	DD	imagerel $LN17@gzfwrite+114
	DD	imagerel $unwind$gzfwrite
pdata	ENDS
;	COMDAT pdata
pdata	SEGMENT
$pdata$gzwrite DD imagerel $LN9@gzwrite
	DD	imagerel $LN9@gzwrite+65
	DD	imagerel $unwind$gzwrite
pdata	ENDS
;	COMDAT pdata
pdata	SEGMENT
$pdata$gz_write DD imagerel gz_write
	DD	imagerel gz_write+351
	DD	imagerel $unwind$gz_write
pdata	ENDS
;	COMDAT pdata
pdata	SEGMENT
$pdata$gz_zero DD imagerel gz_zero
	DD	imagerel gz_zero+174
	DD	imagerel $unwind$gz_zero
pdata	ENDS
;	COMDAT pdata
pdata	SEGMENT
$pdata$gz_comp DD imagerel gz_comp
	DD	imagerel gz_comp+435
	DD	imagerel $unwind$gz_comp
pdata	ENDS
;	COMDAT pdata
pdata	SEGMENT
$pdata$gz_init DD imagerel gz_init
	DD	imagerel gz_init+285
	DD	imagerel $unwind$gz_init
pdata	ENDS
;	COMDAT pdata
pdata	SEGMENT
$pdata$gzclose_w DD imagerel $LN21@gzclose_w
	DD	imagerel $LN21@gzclose_w+207
	DD	imagerel $unwind$gzclose_w
;	COMDAT xdata
xdata	SEGMENT
$unwind$gzclose_w DQ 00006340a00040a01r		; 8.62672e-309
	DD	07006320aH
xdata	ENDS
;	COMDAT xdata
xdata	SEGMENT
$unwind$gz_init DQ 0000b745900085901r		; 1.59294e-308
	DQ	0000c340a000a5454r		; 1.69707e-308
	DD	06006720aH
xdata	ENDS
;	COMDAT xdata
xdata	SEGMENT
$unwind$gz_comp DQ 0000ae442000a4201r		; 1.51467e-308
	DQ	0000854380009643dr		; 1.15829e-308
	DQ	030027003f0053209r		; 1.99037e-77
xdata	ENDS
;	COMDAT xdata
xdata	SEGMENT
$unwind$gz_zero DQ 00008641400081401r		; 1.1669e-308
	DQ	00006341400075414r		; 8.62693e-309
	DD	070103214H
xdata	ENDS
;	COMDAT xdata
xdata	SEGMENT
$unwind$gz_write DQ 0000d641c000c1c01r		; 1.86226e-308
	DQ	0000a341c000b541cr		; 1.41898e-308
	DQ	0d014e016f018321cr		; -6.043e+77
	DD	07010c012H
xdata	ENDS
;	COMDAT xdata
xdata	SEGMENT
$unwind$gzwrite DQ 00000420400010401r		; 3.58617e-310
xdata	ENDS
;	COMDAT xdata
xdata	SEGMENT
$unwind$gzfwrite DQ 03002320600020601r		; 1.96423e-77
xdata	ENDS
;	COMDAT xdata
xdata	SEGMENT
$unwind$gzputc DQ 00007340a00040a01r		; 1.00174e-308
	DD	07006320aH
xdata	ENDS
;	COMDAT xdata
xdata	SEGMENT
$chain$3$gzputs DD 021H
	DD	imagerel $LN18@gzputs
	DD	imagerel $LN18@gzputs+33
	DD	imagerel $unwind$gzputs
xdata	ENDS
;	COMDAT xdata
xdata	SEGMENT
$chain$2$gzputs DQ 00006340000020021r		; 8.62651e-309
	DD	imagerel $LN18@gzputs
	DD	imagerel $LN18@gzputs+33
	DD	imagerel $unwind$gzputs
xdata	ENDS
;	COMDAT xdata
xdata	SEGMENT
$chain$0$gzputs DQ 00006340500020521r		; 8.62661e-309
	DD	imagerel $LN18@gzputs
	DD	imagerel $LN18@gzputs+33
	DD	imagerel $unwind$gzputs
xdata	ENDS
;	COMDAT xdata
xdata	SEGMENT
$unwind$gzputs DQ 07002320600020601r		; 3.53109e+231
xdata	ENDS
;	COMDAT xdata
xdata	SEGMENT
$chain$4$gzvprintf DD 021H
	DD	imagerel $LN38@gzvprintf
	DD	imagerel $LN38@gzvprintf+129
	DD	imagerel $unwind$gzvprintf
xdata	ENDS
;	COMDAT xdata
xdata	SEGMENT
$chain$3$gzvprintf DQ 00009640000040021r	; 1.30593e-308
	DD	083400H
	DD	imagerel $LN38@gzvprintf
	DD	imagerel $LN38@gzvprintf+129
	DD	imagerel $unwind$gzvprintf
xdata	ENDS
;	COMDAT xdata
xdata	SEGMENT
$chain$1$gzvprintf DQ 00009640a00040a21r	; 1.30595e-308
	DD	083405H
	DD	imagerel $LN38@gzvprintf
	DD	imagerel $LN38@gzvprintf+129
	DD	imagerel $unwind$gzvprintf
xdata	ENDS
;	COMDAT xdata
xdata	SEGMENT
$unwind$gzvprintf DQ 0000b741000061001r		; 1.59279e-308
	DQ	0e00c5210000a5410r		; -4.74646e+154
xdata	ENDS
;	COMDAT xdata
xdata	SEGMENT
$unwind$gzprintf DQ 00000421300011301r		; 3.58936e-310
xdata	ENDS
;	COMDAT xdata
xdata	SEGMENT
$unwind$gzflush DQ 00006340a00040a01r		; 8.62672e-309
	DD	07006320aH
xdata	ENDS
;	COMDAT xdata
xdata	SEGMENT
$unwind$gzsetparams DQ 00008641400081401r	; 1.1669e-308
	DQ	00006341400075414r		; 8.62693e-309
	DD	070103214H
END
